CCS PCH C Compiler, Version 4.137, 4375               29-Mar-19 15:18

               Filename: C:\Users\James Jarvis\Documents\GitHub\rdlUniversal\rdLoggerUniversal.lst

               ROM used: 31166 bytes (48%)
                         Largest free fragment is 33534
               RAM used: 1118 (28%) at main() level
                         1489 (38%) worst case
               Stack:    10 worst case (8 in main + 2 for interrupts)

*
0000:  GOTO   7788
*
0008:  GOTO   00D6
000C:  NOP   
000E:  NOP   
0010:  NOP   
0012:  NOP   
0014:  NOP   
0016:  NOP   
0018:  MOVWF  04
001A:  MOVFF  FD8,05
001E:  MOVFF  FE0,06
0022:  MOVLB  0
0024:  MOVFF  FE9,0C
0028:  MOVFF  FEA,07
002C:  MOVFF  FE1,08
0030:  MOVFF  FE2,09
0034:  MOVFF  FD9,0A
0038:  MOVFF  FDA,0B
003C:  MOVFF  FF3,12
0040:  MOVFF  FF4,13
0044:  MOVFF  FFA,14
0048:  MOVFF  FF5,15
004C:  MOVFF  FF6,16
0050:  MOVFF  FF7,17
0054:  MOVFF  00,0E
0058:  MOVFF  01,0F
005C:  MOVFF  02,10
0060:  MOVFF  03,11
0064:  BTFSS  FA0.1
0066:  GOTO   0070
006A:  BTFSC  FA1.1
006C:  GOTO   1490
0070:  BTFSS  F9D.5
0072:  GOTO   007C
0076:  BTFSC  F9E.5
0078:  GOTO   16AE
007C:  BTFSS  FA3.5
007E:  GOTO   0088
0082:  BTFSC  FA4.5
0084:  GOTO   16F6
0088:  MOVFF  0E,00
008C:  MOVFF  0F,01
0090:  MOVFF  10,02
0094:  MOVFF  11,03
0098:  MOVFF  0C,FE9
009C:  MOVFF  07,FEA
00A0:  BSF    07.7
00A2:  MOVFF  08,FE1
00A6:  MOVFF  09,FE2
00AA:  MOVFF  0A,FD9
00AE:  MOVFF  0B,FDA
00B2:  MOVFF  12,FF3
00B6:  MOVFF  13,FF4
00BA:  MOVFF  14,FFA
00BE:  MOVFF  15,FF5
00C2:  MOVFF  16,FF6
00C6:  MOVFF  17,FF7
00CA:  MOVF   04,W
00CC:  MOVFF  06,FE0
00D0:  MOVFF  05,FD8
00D4:  RETFIE 0
00D6:  MOVWF  19
00D8:  MOVFF  FD8,1A
00DC:  MOVFF  FE0,1B
00E0:  MOVLB  0
00E2:  MOVFF  FE9,21
00E6:  MOVFF  FEA,1C
00EA:  MOVFF  FE1,1D
00EE:  MOVFF  FE2,1E
00F2:  MOVFF  FD9,1F
00F6:  MOVFF  FDA,20
00FA:  MOVFF  FF3,27
00FE:  MOVFF  FF4,28
0102:  MOVFF  FFA,29
0106:  MOVFF  FF5,2A
010A:  MOVFF  FF6,2B
010E:  MOVFF  FF7,2C
0112:  MOVFF  00,23
0116:  MOVFF  01,24
011A:  MOVFF  02,25
011E:  MOVFF  03,26
0122:  BTFSS  F9D.1
0124:  GOTO   012E
0128:  BTFSC  F9E.1
012A:  GOTO   1566
012E:  MOVFF  23,00
0132:  MOVFF  24,01
0136:  MOVFF  25,02
013A:  MOVFF  26,03
013E:  MOVFF  21,FE9
0142:  MOVFF  1C,FEA
0146:  BSF    1C.7
0148:  MOVFF  1D,FE1
014C:  MOVFF  1E,FE2
0150:  MOVFF  1F,FD9
0154:  MOVFF  20,FDA
0158:  MOVFF  27,FF3
015C:  MOVFF  28,FF4
0160:  MOVFF  29,FFA
0164:  MOVFF  2A,FF5
0168:  MOVFF  2B,FF6
016C:  MOVFF  2C,FF7
0170:  MOVF   19,W
0172:  MOVFF  1B,FE0
0176:  MOVFF  1A,FD8
017A:  RETFIE 0
.................... #include "rdLoggerUniversal.h" 
.................... 	#include <18F6622.h> 
.................... //////// Standard Header file for the PIC18F6622 device //////////////// 
.................... #device PIC18F6622 
.................... #list 
....................  
.................... #device ADC=10 
.................... #device *=16 
.................... #DEVICE HIGH_INTS=TRUE 
.................... #include <stdlib.h> 
.................... /////////////////////////////////////////////////////////////////////////// 
.................... ////        (C) Copyright 1996,2007 Custom Computer Services           //// 
.................... //// This source code may only be used by licensed users of the CCS C  //// 
.................... //// compiler.  This source code may only be distributed to other      //// 
.................... //// licensed users of the CCS C compiler.  No other use, reproduction //// 
.................... //// or distribution is permitted without written permission.          //// 
.................... //// Derivative programs created using this software in object code    //// 
.................... //// form are not restricted in any way.                               //// 
.................... /////////////////////////////////////////////////////////////////////////// 
....................  
.................... #ifndef _STDLIB 
.................... #define _STDLIB 
....................  
.................... //--------------------------------------------------------------------------- 
.................... // Definitions and types 
.................... //--------------------------------------------------------------------------- 
....................  
.................... #ifndef RAND_MAX 
.................... #define RAND_MAX  32767    // The value of which is the maximum value 
....................                            // ... returned by the rand function 
.................... #endif 
....................  
....................  
.................... #IF (sizeof(int16*)>1) 
.................... #DEFINE LONG_POINTERS 1 
.................... #ELSE  
.................... #DEFINE LONG_POINTERS 0 
.................... #ENDIF 
....................  
.................... typedef struct { 
....................    signed int quot; 
....................    signed int rem; 
.................... } div_t; 
....................  
.................... typedef struct { 
....................    signed long quot; 
....................    signed long rem; 
.................... } ldiv_t; 
....................  
.................... #include <stddef.h> 
.................... /////////////////////////////////////////////////////////////////////////// 
.................... ////        (C) Copyright 1996,2003 Custom Computer Services           //// 
.................... //// This source code may only be used by licensed users of the CCS C  //// 
.................... //// compiler.  This source code may only be distributed to other      //// 
.................... //// licensed users of the CCS C compiler.  No other use, reproduction //// 
.................... //// or distribution is permitted without written permission.          //// 
.................... //// Derivative programs created using this software in object code    //// 
.................... //// form are not restricted in any way.                               //// 
.................... /////////////////////////////////////////////////////////////////////////// 
....................  
.................... #ifndef _STDDEF 
....................  
.................... #define _STDDEF 
....................  
.................... #if sizeof(unsigned int8 *)==1 
.................... #define ptrdiff_t unsigned int8 
.................... #else 
.................... #define ptrdiff_t unsigned int16 
.................... #endif 
....................  
.................... #if defined(__PCB__) 
.................... #define size_t unsigned int8 
.................... #else 
.................... #define size_t unsigned int16 
.................... #endif 
.................... #define wchar_t char 
.................... #define NULL 0 
....................  
.................... #define offsetof(s,f) (offsetofbit(s,f)/8) 
....................  
.................... #endif 
....................  
....................  
.................... //--------------------------------------------------------------------------- 
.................... // String conversion functions 
.................... //--------------------------------------------------------------------------- 
....................  
.................... /* Standard template: signed int  atoi(char * s) 
....................  * converts the initial portion of the string s to a signed int 
....................  * returns the converted value if any, 0 otherwise 
....................  */ 
.................... signed int atoi(char *s); 
....................  
.................... /* Syntax: signed int32  atoi32(char * s) 
....................    converts the initial portion of the string s to a signed int32 
....................    returns the converted value if any, 0 otherwise*/ 
.................... #if (sizeof(long)==4) 
....................  #define atoi32(s) atol(s) 
.................... #else  
....................  signed int32 atoi32(char *s); 
.................... #endif 
....................  
.................... #if defined(__PCD__) 
.................... // The following functions only work on the 24 bit compiler 
.................... // for the 30F, 33F, 24F and 24H parts 
.................... /* Syntax: signed int48  atoi48(char * s) 
....................    converts the initial portion of the string s to a signed int48 
....................    returns the converted value if any, 0 otherwise*/ 
....................     
.................... signed int48 atoi48(char *s); 
....................  
.................... /* Syntax: signed int64  atoi64(char * s) 
....................    converts the initial portion of the string s to a signed int64 
....................    returns the converted value if any, 0 otherwise*/ 
.................... signed int64 atoi64(char *s); 
.................... #endif 
....................  
.................... /* Syntax: char *  itoa(signed int32 num, int8 base, char * s) 
....................    converts the signed int32 to a string and 
....................    returns the converted value if any, 0 otherwise*/ 
.................... char * itoa(signed int32 num, unsigned int base, char * s); 
....................  
.................... /* Standard template: signed int16  atol(char * s) 
....................  * converts the initial portion of the string s to a signed int16 
....................  * returns the converted value if any, 0 otherwise 
....................  */ 
.................... signed long atol(char *s); 
....................  
.................... /* Standard template: int16 strtoul(char * s,char *endptr,signed int base) 
....................  * converts the initial portion of the string s, represented as an 
....................  * integral value of radix base  to a signed long. 
....................  * Returns the converted value if any, 0 otherwise 
....................  * the final string is returned in the endptr, if endptr is not null 
....................  */ 
.................... signed long strtol(char *s,char *endptr, signed int base); 
....................  
.................... /* Standard template: int16 strtoul(char * s,char *endptr,signed int base) 
....................  * converts the initial portion of the string s, represented as an 
....................  * integral value of radix base to a unsigned long. 
....................  * returns the converted value if any, 0 otherwise 
....................  * the final string is returned in the endptr, if endptr is not null 
....................  */ 
.................... unsigned long strtoul(char *s,char *endptr, signed int base); 
....................  
.................... /* Standart template: float strtof(char * s,char *endptr) 
....................                       float48 strtof48(char *s,char *endptr); 
....................                       float64 strtod(char *s,char *endptr); 
....................  * converts the initial portion of the string s to a float32, float48 or float64, 
....................  * returns the converted value if any, 0 otherwise 
....................  * the final string is returned in the endptr, if endptr is not null                    
.................... */ 
.................... float strtof(char *s,char *endptr); 
.................... #if defined(__PCD__) 
.................... float48 strtof48(char *s,char *endptr); 
.................... float64 strtod(char *s,char *endptr); 
.................... #else 
.................... //provided for compatibility 
.................... #define strtof48(s, e) strtof(s, e) 
.................... #define strtod(s, e) strtof(s, e) 
.................... #endif 
....................  
.................... /* Standard template: float32 atof(char * s) 
....................  * converts the initial portion of the string s to a float. 
....................  * returns the converted value if any, 0 otherwise 
....................  */ 
.................... #define atof(s)   strtof(s, 0) 
....................  
.................... #if defined(__PCD__) 
.................... // The following functions only work on the 24 bit compiler 
.................... // for the 30F, 33F, 24F and 24H parts 
....................  
.................... /* Standard template: float48 atof48(char * s) 
....................  * converts the initial portion of the string s to a float. 
....................  * returns the converted value if any, 0 otherwise 
....................  */ 
.................... #define atof48(s) strtof48(s, 0) 
....................  
.................... /* Standard template: float64 atof64(char * s) 
....................  * converts the initial portion of the string s to a float. 
....................  * returns the converted value if any, 0 otherwise 
....................  */ 
.................... #define atof64(s) strtod(s, 0) 
.................... #endif 
....................  
.................... /* Standard template: float32 atoe(char * s) 
....................  * converts the initial portion of the string s to a float. 
....................  * returns the converted value if any, 0 otherwise 
....................  * also handles E format numbers 
....................  */ 
.................... #if !defined(__PCD__) 
.................... float atoe(char * s); 
.................... #endif 
....................  
.................... #if defined(__PCD__) 
.................... float32 atoe(char * s); 
.................... #endif 
....................  
.................... //--------------------------------------------------------------------------- 
.................... // Pseudo-random sequence generation functions 
.................... //--------------------------------------------------------------------------- 
....................  
.................... /* The rand function computes a sequence of pseudo-random integers in 
....................  * the range 0 to RAND_MAX 
....................  * 
....................  * Parameters: 
....................  *       (none) 
....................  * 
....................  * Returns: 
....................  *       The pseudo-random integer 
....................  */ 
.................... unsigned int16 rand(void); 
....................  
.................... /* The srand function uses the argument as a seed for a new sequence of 
....................  * pseudo-random numbers to be returned by subsequent calls to rand. 
....................  * 
....................  * Parameters: 
....................  *       [in] seed: The seed value to start from. You might need to pass 
....................  * 
....................  * Returns: 
....................  *       (none) 
....................  * 
....................  * Remarks 
....................  *          The srand function sets the starting point for generating 
....................  *       a series of pseudorandom integers. To reinitialize the 
....................  *       generator, use 1 as the seed argument. Any other value for 
....................  *       seed sets the generator to a random starting point. rand 
....................  *       retrieves the pseudorandom numbers that are generated. 
....................  *       Calling rand before any call to srand generates the same 
....................  *       sequence as calling srand with seed passed as 1. 
....................  *          Usually, you need to pass a time here from outer source 
....................  *       so that the numbers will be different every time you run. 
....................  */ 
.................... void srand(unsigned int32 seed); 
....................  
.................... //--------------------------------------------------------------------------- 
.................... // Memory management functions 
.................... //--------------------------------------------------------------------------- 
....................  
.................... // Comming soon 
....................  
.................... //--------------------------------------------------------------------------- 
.................... // Communication with the environment 
.................... //--------------------------------------------------------------------------- 
....................  
.................... /* The function returns 0 always 
....................  */ 
.................... signed int8 system(char *string); 
....................  
.................... //--------------------------------------------------------------------------- 
.................... // Searching and sorting utilities 
.................... //--------------------------------------------------------------------------- 
....................  
.................... /* Performs a binary search of a sorted array.. 
....................  * 
....................  * Parameters: 
....................  *       [in] key: Object to search for 
....................  *       [in] base: Pointer to base of search data 
....................  *       [in] num: Number of elements 
....................  *       [in] width: Width of elements 
....................  *       [in] compare: Function that compares two elements 
....................  * 
....................  * Returns: 
....................  *       bsearch returns a pointer to an occurrence of key in the array pointed 
....................  *       to by base. If key is not found, the function returns NULL. If the 
....................  *       array is not in order or contains duplicate records with identical keys, 
....................  *       the result is unpredictable. 
....................  */ 
.................... //void *bsearch(const void *key, const void *base, size_t num, size_t width, 
.................... //              int (*compare)(const void *, const void *)); 
....................  
.................... /* Performs the shell-metzner sort (not the quick sort algorithm). The contents 
....................  * of the array are sorted into ascending order according to a comparison 
....................  * function pointed to by compar. 
....................  * 
....................  * Parameters: 
....................  *       [in] base: Pointer to base of search data 
....................  *       [in] num: Number of elements 
....................  *       [in] width: Width of elements 
....................  *       [in] compare: Function that compares two elements 
....................  * 
....................  * Returns: 
....................  *       (none) 
....................  */ 
.................... //void *qsort(const void *base, size_t num, size_t width, 
.................... //              int (*compare)(const void *, const void *)); 
....................  
.................... //--------------------------------------------------------------------------- 
.................... // Integer arithmetic functions 
.................... //--------------------------------------------------------------------------- 
....................  
.................... #define labs abs 
....................  
.................... div_t div(signed int numer, signed int denom); 
.................... ldiv_t ldiv(signed long numer, signed long denom); 
....................  
.................... //--------------------------------------------------------------------------- 
.................... // Multibyte character functions 
.................... //--------------------------------------------------------------------------- 
....................  
.................... // Not supported 
....................  
.................... //--------------------------------------------------------------------------- 
.................... // Multibyte string functions 
.................... //--------------------------------------------------------------------------- 
....................  
.................... // Not supported 
....................  
....................  
.................... //--------------------------------------------------------------------------- 
.................... // Internal implementation 
.................... //--------------------------------------------------------------------------- 
....................  
.................... #include <stddef.h> 
.................... /////////////////////////////////////////////////////////////////////////// 
.................... ////        (C) Copyright 1996,2003 Custom Computer Services           //// 
.................... //// This source code may only be used by licensed users of the CCS C  //// 
.................... //// compiler.  This source code may only be distributed to other      //// 
.................... //// licensed users of the CCS C compiler.  No other use, reproduction //// 
.................... //// or distribution is permitted without written permission.          //// 
.................... //// Derivative programs created using this software in object code    //// 
.................... //// form are not restricted in any way.                               //// 
.................... /////////////////////////////////////////////////////////////////////////// 
....................  
.................... #ifndef _STDDEF 
....................  
.................... #define _STDDEF 
....................  
.................... #if sizeof(unsigned int8 *)==1 
.................... #define ptrdiff_t unsigned int8 
.................... #else 
.................... #define ptrdiff_t unsigned int16 
.................... #endif 
....................  
.................... #if defined(__PCB__) 
.................... #define size_t unsigned int8 
.................... #else 
.................... #define size_t unsigned int16 
.................... #endif 
.................... #define wchar_t char 
.................... #define NULL 0 
....................  
.................... #define offsetof(s,f) (offsetofbit(s,f)/8) 
....................  
.................... #endif 
....................  
.................... #include <string.h> 
.................... //////////////////////////////////////////////////////////////////////////// 
.................... ////        (C) Copyright 1996,2008 Custom Computer Services            //// 
.................... //// This source code may only be used by licensed users of the CCS C   //// 
.................... //// compiler.  This source code may only be distributed to other       //// 
.................... //// licensed users of the CCS C compiler.  No other use, reproduction  //// 
.................... //// or distribution is permitted without written permission.           //// 
.................... //// Derivative programs created using this software in object code     //// 
.................... //// form are not restricted in any way.                                //// 
.................... //////////////////////////////////////////////////////////////////////////// 
....................  
.................... #ifndef _STRING 
.................... #define _STRING 
.................... #include <stddef.h> 
.................... /////////////////////////////////////////////////////////////////////////// 
.................... ////        (C) Copyright 1996,2003 Custom Computer Services           //// 
.................... //// This source code may only be used by licensed users of the CCS C  //// 
.................... //// compiler.  This source code may only be distributed to other      //// 
.................... //// licensed users of the CCS C compiler.  No other use, reproduction //// 
.................... //// or distribution is permitted without written permission.          //// 
.................... //// Derivative programs created using this software in object code    //// 
.................... //// form are not restricted in any way.                               //// 
.................... /////////////////////////////////////////////////////////////////////////// 
....................  
.................... #ifndef _STDDEF 
....................  
.................... #define _STDDEF 
....................  
.................... #if sizeof(unsigned int8 *)==1 
.................... #define ptrdiff_t unsigned int8 
.................... #else 
.................... #define ptrdiff_t unsigned int16 
.................... #endif 
....................  
.................... #if defined(__PCB__) 
.................... #define size_t unsigned int8 
.................... #else 
.................... #define size_t unsigned int16 
.................... #endif 
.................... #define wchar_t char 
.................... #define NULL 0 
....................  
.................... #define offsetof(s,f) (offsetofbit(s,f)/8) 
....................  
.................... #endif 
....................  
.................... #include <ctype.h> 
.................... //////////////////////////////////////////////////////////////////////////// 
.................... ////        (C) Copyright 1996,2003 Custom Computer Services            //// 
.................... //// This source code may only be used by licensed users of the CCS C   //// 
.................... //// compiler.  This source code may only be distributed to other       //// 
.................... //// licensed users of the CCS C compiler.  No other use, reproduction  //// 
.................... //// or distribution is permitted without written permission.           //// 
.................... //// Derivative programs created using this software in object code     //// 
.................... //// form are not restricted in any way.                                //// 
.................... //////////////////////////////////////////////////////////////////////////// 
....................  
.................... #ifndef _CTYPE 
.................... #define _CTYPE 
....................  
.................... #define islower(x)  isamong(x,"abcdefghijklmnopqrstuvwxyz") 
.................... #define isupper(x)  isamong(x,"ABCDEFGHIJKLMNOPQRSTUVWXYZ") 
.................... #define isalnum(x)  isamong(x,"0123456789ABCDEFGHIJKLMNOPQRSTUVWXYZabcdefghijklmnopqrstuvwxyz") 
.................... #define isalpha(x)  isamong(x,"ABCDEFGHIJKLMNOPQRSTUVWXYZabcdefghijklmnopqrstuvwxyz") 
.................... #define isdigit(x)  isamong(x,"0123456789") 
.................... #define isspace(x)  ((x)==' ') 
.................... #define isxdigit(x) isamong(x,"0123456789ABCDEFabcdef") 
.................... #define iscntrl(x)  ((x)<' ') 
.................... #define isprint(x)  ((x)>=' ') 
.................... #define isgraph(x)  ((x)>' ') 
.................... #define ispunct(x)  (((x)>' ')&&!isalnum(x)) 
....................  
.................... #endif 
....................  
....................  
....................  
....................  
....................  
.................... ////////////////////////////////////////////// 
.................... //// Uncomment the following define to    //// 
.................... //// allow some functions to use a        //// 
.................... //// quicker algorithm, but use more ROM  //// 
.................... ////                                      //// 
.................... //// #define FASTER_BUT_MORE_ROM          //// 
.................... ////////////////////////////////////////////// 
....................  
....................  
....................  
.................... /*Copying functions*/ 
.................... /* standard template: 
....................    void *memmove(void *s1, void *s2, size_t n). 
....................    Copies max of n characters safely (not following ending '\0') 
....................    from s2 in s1; if s2 has less than n characters, appends 0 */ 
....................  
.................... char *memmove(void *s1,char *s2,size_t n) 
.................... { 
....................    char *sc1; 
....................    char *sc2; 
....................    sc1=s1; 
....................    sc2=s2; 
....................    if(sc2<sc1 && sc1 <sc2 +n) 
....................       for(sc1+=n,sc2+=n;0<n;--n) 
....................          *--sc1=*--sc2; 
....................    else 
....................       for(;0<n;--n) 
....................          *sc1++=*sc2++; 
....................   return s1; 
....................   } 
....................  
.................... /* Standard template: char *strcpy(char *s1, const char *s2) 
....................    copies the string s2 including the null character to s1. 
....................    This is a compiler built in to handle the different address 
....................    spaces */ 
....................  
.................... #define strcopy strcpy 
....................  
.................... /* standard template: 
....................    char *strncpy(char *s1, const char *s2, size_t n). 
....................    Copies max of n characters (not following ending '\0') 
....................    from s2 in s1; if s2 has less than n characters, appends 0 */ 
....................  
.................... char *strncpy(char *s1, char *s2, size_t n) 
.................... { 
....................   char *s; 
....................  
....................   for (s = s1; n > 0 && *s2 != '\0'; n--) 
....................      *s++ = *s2++; 
....................   for (; n > 0; n--) 
....................      *s++ = '\0'; 
....................  
....................   return(s1); 
.................... } 
.................... /***********************************************************/ 
....................  
.................... /*concatenation functions*/ 
.................... /* standard template: char *strcat(char *s1, const char *s2) 
.................... appends s2 to s1*/ 
....................  
.................... char *strcat(char *s1, char *s2) 
.................... { 
....................    char *s; 
....................  
....................    for (s = s1; *s != '\0'; ++s); 
....................    while(*s2 != '\0') 
....................    { 
....................       *s = *s2; 
....................       ++s; 
....................       ++s2; 
....................    } 
....................  
....................    *s = '\0'; 
....................    return(s1); 
.................... } 
.................... /* standard template: char *strncat(char *s1, char *s2,size_t n) 
.................... appends not more than n characters from s2 to s1*/ 
....................  
.................... char *strncat(char *s1, char *s2, size_t n) 
.................... { 
....................    char *s; 
....................  
....................    for (s = s1; *s != '\0'; ++s); 
....................    while(*s2 != '\0' && 0<n) 
....................    { 
....................       *s = *s2; 
....................       ++s; 
....................       ++s2; 
....................       --n; 
....................    } 
....................  
....................    *s = '\0'; 
....................    return(s1); 
.................... } 
....................  
.................... /***********************************************************/ 
....................  
....................  
.................... /*comparison functions*/ 
.................... /* standard template: signed int memcmp(void *s1, void *s2). 
....................    Compares s1 & s2; returns -1 if s1<s2, 0 if s1=s2, 1 if s1>s2 */ 
....................  
.................... signed int8 memcmp(void * s1,char *s2,size_t n) 
.................... { 
.................... char *su1, *su2; 
.................... for(su1=s1, su2=s2; 0<n; ++su1, ++su2, --n) 
.................... { 
....................    if(*su1!=*su2) 
....................       return ((*su1<*su2)?-1:+1); 
.................... } 
.................... return 0; 
.................... } 
....................  
.................... /* standard template: int strcmp(const char *s1, const char *s2). 
....................    Compares s1 & s2; returns -1 if s1<s2, 0 if s1=s2, 1 if s1>s2 */ 
....................  
.................... signed int8 strcmp(char *s1, char *s2) 
.................... { 
....................    for (; *s1 == *s2; s1++, s2++) 
....................       if (*s1 == '\0') 
....................          return(0); 
....................    return((*s1 < *s2) ? -1: 1); 
.................... } 
.................... /* standard template: int strcoll(const char *s1, const char *s2). 
....................    Compares s1 & s2; returns -1 if s1<s2, 0 if s1=s2, 1 if s1>s2 */ 
....................  
.................... signed int8 strcoll(char *s1, char *s2) 
.................... { 
....................    for (; *s1 == *s2; s1++, s2++) 
....................       if (*s1 == '\0') 
....................          return(0); 
....................    return((*s1 < *s2) ? -1: 1); 
.................... } 
....................  
.................... /* standard template: 
....................    int strncmp(const char *s1, const char *s2, size_t n). 
....................    Compares max of n characters (not following 0) from s1 to s2; 
....................    returns same as strcmp */ 
....................  
.................... signed int8 strncmp(char *s1, char *s2, size_t n) 
.................... { 
....................    for (; n > 0; s1++, s2++, n--) 
....................       if (*s1 != *s2) 
....................          return((*s1 <*s2) ? -1: 1); 
....................       else if (*s1 == '\0') 
....................          return(0); 
....................    return(0); 
.................... } 
.................... /* standard template: 
....................    int strxfrm(const char *s1, const char *s2, size_t n). 
....................    transforms maximum of n characters from s2 and places them into s1*/ 
.................... size_t strxfrm(char *s1, char *s2, size_t n) 
.................... { 
....................   char *s; 
....................   unsigned int8 n1; 
....................   n1=n; 
....................   for (s = s1; n > 0 && *s2 != '\0'; n--) 
....................      *s++ = *s2++; 
....................   for (; n > 0; n--) 
....................      *s++ = '\0'; 
....................  
....................   return(n1); 
.................... } 
....................  
....................  
....................  
....................  
....................  
.................... /***********************************************************/ 
.................... /*Search functions*/ 
.................... /* standard template: void *memchr(const char *s, int c). 
....................    Finds first occurrence of c in n characters of s */ 
....................  
.................... char *memchr(void *s,unsigned int8 c,size_t n) 
.................... { 
....................    char uc; 
....................    char *su; 
....................    uc=c; 
....................    for(su=s;0<n;++su,--n) 
....................       if(*su==uc) 
....................       return su; 
....................    return NULL; 
.................... } 
....................  
.................... /* standard template: char *strchr(const char *s, int c). 
....................    Finds first occurrence of c in s */ 
....................  
.................... char *strchr(char *s, unsigned int8 c) 
.................... { 
....................    for (; *s != c; s++) 
....................       if (*s == '\0') 
....................          return(0); 
....................    return(s); 
.................... } 
.................... /* standard template: 
....................    size_t strcspn(const char *s1, const char *s2). 
....................    Computes length of max initial segment of s1 that 
....................    consists entirely of characters NOT from s2*/ 
....................  
.................... unsigned int8  strcspn(char *s1, char *s2) 
.................... { 
....................    char *sc1, *sc2; 
....................  
....................    for (sc1 = s1; *sc1 != 0; sc1++) 
....................       for (sc2 = s2; *sc2 != 0; sc2++) 
....................          if (*sc1 == *sc2) 
....................             return(sc1 - s1); 
....................    return(sc1 - s1); 
.................... } 
.................... /* standard template: 
....................    char *strpbrk(const char *s1, const char *s2). 
....................    Locates first occurence of any character from s2 in s1; 
....................    returns s1 if s2 is empty string */ 
....................  
.................... char *strpbrk(char *s1, char *s2) 
.................... { 
....................    char *sc1, *sc2; 
....................  
....................    for (sc1 = s1; *sc1 != 0; sc1++) 
....................       for (sc2 = s2; *sc2 != 0; sc2++) 
....................          if (*sc1 == *sc2) 
....................             return(sc1); 
....................    return(0); 
.................... } 
....................  
....................  
.................... /* standard template: char *strrchr(const char *s, int c). 
....................    Finds last occurrence of c in s */ 
....................  
.................... char *strrchr(char *s, unsigned int8 c) 
.................... { 
....................    char *p; 
....................  
....................    for (p = 0; ; s++) 
....................    { 
....................       if (*s == c) 
....................          p = s; 
....................       if (*s == '\0') 
....................          return(p); 
....................    } 
.................... } 
.................... /* computes length of max initial segment of s1 consisting 
....................    entirely of characters from s2 */ 
....................  
.................... unsigned int8  strspn(char *s1, char *s2) 
.................... { 
....................    char *sc1, *sc2; 
....................  
....................    for (sc1 = s1; *sc1 != 0; sc1++) 
....................       for (sc2 = s2; ; sc2++) 
....................     if (*sc2 == '\0') 
....................        return(sc1 - s1); 
....................          else if (*sc1 == *sc2) 
....................             break; 
....................    return(sc1 - s1); 
.................... } 
.................... /* standard template: 
....................    char *strstr(const char *s1, const char *s2); 
....................    Locates first occurence of character sequence s2 in s1; 
....................    returns 0 if s2 is empty string 
....................  
....................    Uncomment #define FASTER_BUT_MORE_ROM at the top of the 
....................    file to use the faster algorithm */ 
.................... char *strstr(char *s1, char *s2) 
.................... { 
....................    char *s, *t; 
....................  
....................    #ifdef FASTER_BUT_MORE_ROM 
....................    if (*s2 == '\0') 
....................          return(s1); 
....................    #endif 
....................  
....................    while (*s1) 
....................    { 
....................       for(s = s1, t = s2; *t && (*s == *t); ++s, ++t); 
....................  
....................       if (*t == '\0') 
....................          return s1; 
....................       ++s1; 
....................       #ifdef FASTER_BUT_MORE_ROM 
....................          while(*s1 != '\0' && *s1 != *s2) 
....................             ++s1; 
....................       #endif 
....................    } 
....................    return 0; 
.................... } 
....................  
.................... /* standard template: char *strtok(char *s1, const char *s2). 
....................  
....................    Finds next token in s1 delimited by a character from separator 
....................    string s2 (which can be different from call to call).  First call 
....................    starts at beginning of s1 searching for first character NOT 
....................    contained in s2; returns 0 if none is found. 
....................    If one is found, it is the start of first token (return value). 
....................    Function then searches from there for a character contained in s2. 
....................    If none is found, current token extends to end of s1, and subsequent 
....................    searches for a token will return 0.  If one is found, it is 
....................    overwritten by '\0', which terminates current token.  Function saves 
....................    pointer to following character from which next search will start. 
....................    Each subsequent call, with 0 as first argument, starts searching 
....................    from saved pointer */ 
....................  
.................... char *strtok(char *s1, char *s2) 
.................... { 
....................    char *beg, *end; 
....................    static char *save; 
....................  
....................    beg = (s1)? s1: save; 
....................    beg += strspn(beg, s2); 
....................    if (*beg == '\0') 
....................    { 
....................       *save = ' '; 
....................       return(0); 
....................    } 
....................    end = strpbrk(beg, s2); 
....................    if (*end != '\0') 
....................    { 
....................       *end = '\0'; 
....................       end++; 
....................    } 
....................    save = end; 
....................    return(beg); 
.................... } 
....................  
.................... /*****************************************************************/ 
.................... /*Miscellaneous functions*/ 
.................... /* standard template 
.................... maps error number in errnum to an error message string 
.................... Returns: Pointer to string 
.................... */ 
.................... #ifdef _ERRNO 
.................... char * strerror(unsigned int8 errnum) 
.................... { 
.................... static char s[13]; 
.................... switch( errnum) 
.................... { 
.................... case 0: 
....................    strcpy(s,"no errors"); 
....................    return s; 
.................... case EDOM : 
....................    strcpy(s,"domain error"); 
....................    return s; 
.................... case ERANGE: 
....................    strcpy(s,"range error"); 
....................    return s; 
.................... } 
.................... } 
.................... #ENDIF 
.................... /* standard template: size_t strlen(const char *s). 
....................    Computes length of s1 (preceding terminating 0) */ 
....................  
.................... unsigned int8 strlen(char *s) 
.................... { 
....................    char *sc; 
....................  
....................    for (sc = s; *sc != 0; sc++); 
*
4748:  MOVFF  5A7,5A9
474C:  MOVFF  5A6,5A8
4750:  MOVFF  5A9,03
4754:  MOVLB  5
4756:  MOVFF  5A8,FE9
475A:  MOVFF  5A9,FEA
475E:  MOVF   FEF,F
4760:  BZ    476E
4762:  INCF   xA8,F
4764:  BTFSC  FD8.2
4766:  INCF   xA9,F
4768:  MOVLB  0
476A:  BRA    4750
476C:  MOVLB  5
....................    return(sc - s); 
476E:  MOVF   xA6,W
4770:  SUBWF  xA8,W
4772:  MOVWF  00
4774:  MOVF   xA7,W
4776:  SUBWFB xA9,W
4778:  MOVWF  03
477A:  MOVFF  00,01
.................... } 
477E:  MOVLB  0
4780:  RETURN 0
....................  
.................... /* standard template: size_t stricmp(const char *s1, const char *s2). 
....................    Compares s1 to s2 ignoring case (upper vs. lower) */ 
....................  
.................... signed int8 stricmp(char *s1, char *s2) 
.................... { 
....................  for(; *s1==*s2||(isalpha(*s1)&&isalpha(*s2)&&(*s1==*s2+32||*s2==*s1+32)); 
....................     s1++, s2++) 
....................     if (*s1 == '\0') 
....................        return(0); 
....................  return((*s1 < *s2) ? -1: 1); 
.................... } 
....................  
....................  
.................... /* standard template: char *strlwr(char *s). 
....................    Replaces uppercase letters by lowercase; 
....................    returns pointer to new string s */ 
....................  
.................... char *strlwr(char *s) 
.................... { 
....................    char *p; 
....................  
....................    for (p = s; *p != '\0'; p++) 
....................       if (*p >= 'A' && *p <='Z') 
....................          *p += 'a' - 'A'; 
....................    return(s); 
.................... } 
....................  
.................... /* standard template: char *strupr(char *s). 
....................    Replaces lowercase letters by upercase; 
....................    returns pointer to new string s */ 
....................  
.................... char *strupr(char *s) 
.................... { 
....................    char *p; 
....................  
....................    for (p = s; *p != '\0'; p++) 
....................       if (*p >= 'a' && *p <='z') 
....................          *p -= 'a' - 'A'; 
....................    return(s); 
.................... } 
....................  
....................  
.................... /************************************************************/ 
....................  
....................  
.................... #endif 
....................  
....................  
.................... div_t div(signed int numer, signed int denom) 
.................... { 
....................    div_t val; 
....................    val.quot = numer / denom; 
....................    val.rem = numer - (denom * val.quot); 
....................    return (val); 
.................... } 
....................  
.................... ldiv_t ldiv(signed long numer, signed long denom) 
.................... { 
....................    ldiv_t val; 
....................  
....................    val.quot = numer / denom; 
....................    val.rem = numer - (denom * val.quot); 
....................    return (val); 
.................... } 
....................  
.................... #if defined(__PCD__) 
.................... float32 atoe(char * s) 
.................... { 
....................    float32 pow10 = 1.0; 
....................    float32 result = 0.0; 
....................    unsigned int8 sign = 0; 
....................    unsigned int8 expsign = 0; 
....................    char c; 
....................    unsigned int8 ptr = 0; 
....................    unsigned int8 i; 
....................    float32 exp = 1.0; 
....................    unsigned int8 expcnt = 0; 
....................  
....................    c = s[ptr++]; 
....................  
....................    if ((c>='0' && c<='9') || c=='+' || c=='-' || c=='.' || c=='E' || c=='e') { 
....................       if(c == '-') { 
....................          sign = 1; 
....................          c = s[ptr++]; 
....................       } 
....................       if(c == '+') 
....................          c = s[ptr++]; 
....................  
....................       while((c >= '0' && c <= '9')) { 
....................          result = 10*result + c - '0'; 
....................          c = s[ptr++]; 
....................       } 
....................  
....................       if (c == '.') { 
....................          c = s[ptr++]; 
....................          while((c >= '0' && c <= '9')) { 
....................              pow10 = pow10*10; 
....................              result += (c - '0')/pow10; 
....................              c = s[ptr++]; 
....................          } 
....................       } 
....................  
....................       // Handling the exponent 
....................       if (c=='e' || c=='E') { 
....................          c = s[ptr++]; 
....................  
....................          if(c == '-') { 
....................             expsign = 1; 
....................             c = s[ptr++]; 
....................          } 
....................          if(c == '+') 
....................             c = s[ptr++]; 
....................  
....................          while((c >= '0' && c <= '9')) { 
....................             expcnt = 10*expcnt + c - '0'; 
....................             c = s[ptr++]; 
....................          } 
....................  
....................          for(i=0;i<expcnt;i++) 
....................             exp*=10; 
....................  
....................          if(expsign==1) 
....................             result/=exp; 
....................          else 
....................             result*=exp; 
....................       } 
....................    } 
....................  
....................    if (sign == 1) 
....................       result = -1*result; 
....................    return(result); 
.................... } 
.................... #endif 
....................  
.................... #if !defined(__PCD__) 
.................... float atoe(char * s) 
.................... { 
....................    float pow10 = 1.0; 
....................    float result = 0.0; 
....................    unsigned int8 sign = 0; 
....................    unsigned int8 expsign = 0; 
....................    char c; 
....................    unsigned int8 ptr = 0; 
....................    unsigned int8 i; 
....................    float exp = 1.0; 
....................    unsigned int8 expcnt = 0; 
....................  
....................    c = s[ptr++]; 
....................  
....................    if ((c>='0' && c<='9') || c=='+' || c=='-' || c=='.' || c=='E' || c=='e') { 
....................       if(c == '-') { 
....................          sign = 1; 
....................          c = s[ptr++]; 
....................       } 
....................       if(c == '+') 
....................          c = s[ptr++]; 
....................  
....................       while((c >= '0' && c <= '9')) { 
....................          result = 10*result + c - '0'; 
....................          c = s[ptr++]; 
....................       } 
....................  
....................       if (c == '.') { 
....................          c = s[ptr++]; 
....................          while((c >= '0' && c <= '9')) { 
....................              pow10 = pow10*10; 
....................              result += (c - '0')/pow10; 
....................              c = s[ptr++]; 
....................          } 
....................       } 
....................  
....................       // Handling the exponent 
....................       if (c=='e' || c=='E') { 
....................          c = s[ptr++]; 
....................  
....................          if(c == '-') { 
....................             expsign = 1; 
....................             c = s[ptr++]; 
....................          } 
....................          if(c == '+') 
....................             c = s[ptr++]; 
....................  
....................          while((c >= '0' && c <= '9')) { 
....................             expcnt = 10*expcnt + c - '0'; 
....................             c = s[ptr++]; 
....................          } 
....................  
....................          for(i=0;i<expcnt;i++) 
....................             exp*=10; 
....................  
....................          if(expsign==1) 
....................             result/=exp; 
....................          else 
....................             result*=exp; 
....................       } 
....................    } 
....................  
....................    if (sign == 1) 
....................       result = -1*result; 
....................    return(result); 
.................... } 
.................... #endif 
....................  
.................... signed int atoi(char *s) 
.................... { 
....................    signed int result; 
....................    unsigned int sign, base, index; 
....................    char c; 
....................  
....................    index = 0; 
....................    sign = 0; 
....................    base = 10; 
....................    result = 0; 
....................  
....................    if (!s) 
....................       return 0; 
....................    // Omit all preceeding alpha characters 
....................    c = s[index++]; 
....................  
....................    // increase index if either positive or negative sign is detected 
....................    if (c == '-') 
....................    { 
....................       sign = 1;         // Set the sign to negative 
....................       c = s[index++]; 
....................    } 
....................    else if (c == '+') 
....................    { 
....................       c = s[index++]; 
....................    } 
....................  
....................    if (c >= '0' && c <= '9') 
....................    { 
....................  
....................       // Check for hexa number 
....................       if (c == '0' && (s[index] == 'x' || s[index] == 'X')) 
....................       { 
....................          base = 16; 
....................          index++; 
....................          c = s[index++]; 
....................       } 
....................  
....................       // The number is a decimal number 
....................       if (base == 10) 
....................       { 
....................          while (c >= '0' && c <= '9') 
....................          { 
....................             result = 10*result + (c - '0'); 
....................             c = s[index++]; 
....................          } 
....................       } 
....................       else if (base == 16)    // The number is a hexa number 
....................       { 
....................          c = toupper(c); 
....................          while ( (c >= '0' && c <= '9') || (c >= 'A' && c<='F')) 
....................          { 
....................             if (c >= '0' && c <= '9') 
....................                result = (result << 4) + (c - '0'); 
....................             else 
....................                result = (result << 4) + (c - 'A' + 10); 
....................  
....................             c = s[index++]; 
....................             c = toupper(c); 
....................          } 
....................       } 
....................    } 
....................  
....................    if (sign == 1 && base == 10) 
....................        result = -result; 
....................  
....................    return(result); 
.................... } 
....................  
.................... signed long atol(char *s) 
.................... { 
....................    signed long result; 
....................    unsigned int sign, base, index; 
....................    char c; 
....................  
....................    index = 0; 
....................    sign = 0; 
....................    base = 10; 
....................    result = 0; 
....................  
....................    if (!s) 
....................       return 0; 
....................    c = s[index++]; 
....................  
....................    // increase index if either positive or negative sign is detected 
....................    if (c == '-') 
....................    { 
....................       sign = 1;         // Set the sign to negative 
....................       c = s[index++]; 
....................    } 
....................    else if (c == '+') 
....................    { 
....................       c = s[index++]; 
....................    } 
....................  
....................    if (c >= '0' && c <= '9') 
....................    { 
....................       if (c == '0' && (s[index] == 'x' || s[index] == 'X')) 
....................       { 
....................          base = 16; 
....................          index++; 
....................          c = s[index++]; 
....................       } 
....................  
....................       // The number is a decimal number 
....................       if (base == 10) 
....................       { 
....................          while (c >= '0' && c <= '9') 
....................          { 
....................             result = 10*result + (c - '0'); 
....................             c = s[index++]; 
....................          } 
....................       } 
....................       else if (base == 16)    // The number is a hexa number 
....................       { 
....................          c = toupper(c); 
....................          while ( (c >= '0' && c <= '9') || (c >= 'A' && c <='F')) 
....................          { 
....................             if (c >= '0' && c <= '9') 
....................                result = (result << 4) + (c - '0'); 
....................             else 
....................                result = (result << 4) + (c - 'A' + 10); 
....................  
....................             c = s[index++];c = toupper(c); 
....................          } 
....................       } 
....................    } 
....................  
....................    if (base == 10 && sign == 1) 
....................       result = -result; 
....................  
....................    return(result); 
.................... } 
....................  
.................... /* A fast routine to multiply by 10 
....................  */ 
.................... signed int32 mult_with10(int32 num) 
.................... { 
....................    return ( (num << 1) + (num << 3) ); 
.................... } 
....................  
.................... #if sizeof(long)==2 
.................... signed int32 atoi32(char *s) 
.................... { 
....................    signed int32 result; 
....................    int8 sign, base, index; 
....................    char c; 
....................  
....................    index = 0; 
....................    sign = 0; 
....................    base = 10; 
....................    result = 0; 
....................  
....................    if (!s) 
....................       return 0; 
....................    c = s[index++]; 
....................  
....................    // increase index if either positive or negative sign is detected 
....................    if (c == '-') 
....................    { 
....................       sign = 1;         // Set the sign to negative 
....................       c = s[index++]; 
....................    } 
....................    else if (c == '+') 
....................    { 
....................       c = s[index++]; 
....................    } 
....................  
....................    if (c >= '0' && c <= '9') 
....................    { 
....................       if (c == '0' && (s[index] == 'x' || s[index] == 'X')) 
....................       { 
....................          base = 16; 
....................          index++; 
....................          c = s[index++]; 
....................       } 
....................  
....................       // The number is a decimal number 
....................       if (base == 10) 
....................       { 
....................          while (c >= '0' && c <= '9') { 
....................             result = (result << 1) + (result << 3);  // result *= 10; 
....................             result += (c - '0'); 
....................             c = s[index++]; 
....................          } 
....................       } 
....................       else if (base == 16)    // The number is a hexa number 
....................       { 
....................          c = toupper(c); 
....................          while ((c >= '0' && c <= '9') || (c >= 'A' && c <='F')) 
....................          { 
....................             if (c >= '0' && c <= '9') 
....................                result = (result << 4) + (c - '0'); 
....................             else 
....................                result = (result << 4) + (c - 'A' + 10); 
....................  
....................             c = s[index++];c = toupper(c); 
....................          } 
....................       } 
....................    } 
....................  
....................    if (base == 10 && sign == 1) 
....................       result = -result; 
....................  
....................    return(result); 
.................... } 
.................... #endif 
....................  
.................... #if defined(__PCD__) 
....................  
.................... signed int48 atoi48(char *s) 
.................... { 
....................    signed int48 result; 
....................    int8 sign, base, index; 
....................    char c; 
....................  
....................    index = 0; 
....................    sign = 0; 
....................    base = 10; 
....................    result = 0; 
....................  
....................    if (!s) 
....................       return 0; 
....................    c = s[index++]; 
....................  
....................    // increase index if either positive or negative sign is detected 
....................    if (c == '-') 
....................    { 
....................       sign = 1;         // Set the sign to negative 
....................       c = s[index++]; 
....................    } 
....................    else if (c == '+') 
....................    { 
....................       c = s[index++]; 
....................    } 
....................  
....................    if (c >= '0' && c <= '9') 
....................    { 
....................       if (c == '0' && (s[index] == 'x' || s[index] == 'X')) 
....................       { 
....................          base = 16; 
....................          index++; 
....................          c = s[index++]; 
....................       } 
....................  
....................       // The number is a decimal number 
....................       if (base == 10) 
....................       { 
....................          while (c >= '0' && c <= '9') { 
....................             result = (result << 1) + (result << 3);  // result *= 10; 
....................             result += (c - '0'); 
....................             c = s[index++]; 
....................          } 
....................       } 
....................       else if (base == 16)    // The number is a hexa number 
....................       { 
....................          c = toupper(c); 
....................          while ((c >= '0' && c <= '9') || (c >= 'A' && c <='F')) 
....................          { 
....................             if (c >= '0' && c <= '9') 
....................                result = (result << 4) + (c - '0'); 
....................             else 
....................                result = (result << 4) + (c - 'A' + 10); 
....................  
....................             c = s[index++];c = toupper(c); 
....................          } 
....................       } 
....................    } 
....................  
....................    if (base == 10 && sign == 1) 
....................       result = -result; 
....................  
....................    return(result); 
.................... } 
....................  
.................... signed int64 atoi64(char *s) 
.................... { 
....................    signed int64 result; 
....................    int8 sign, base, index; 
....................    char c; 
....................  
....................    index = 0; 
....................    sign = 0; 
....................    base = 10; 
....................    result = 0; 
....................  
....................    if (!s) 
....................       return 0; 
....................    c = s[index++]; 
....................  
....................    // increase index if either positive or negative sign is detected 
....................    if (c == '-') 
....................    { 
....................       sign = 1;         // Set the sign to negative 
....................       c = s[index++]; 
....................    } 
....................    else if (c == '+') 
....................    { 
....................       c = s[index++]; 
....................    } 
....................  
....................    if (c >= '0' && c <= '9') 
....................    { 
....................       if (c == '0' && (s[index] == 'x' || s[index] == 'X')) 
....................       { 
....................          base = 16; 
....................          index++; 
....................          c = s[index++]; 
....................       } 
....................  
....................       // The number is a decimal number 
....................       if (base == 10) 
....................       { 
....................          while (c >= '0' && c <= '9') { 
....................             result = (result << 1) + (result << 3);  // result *= 10; 
....................             result += (c - '0'); 
....................             c = s[index++]; 
....................          } 
....................       } 
....................       else if (base == 16)    // The number is a hexa number 
....................       { 
....................          c = toupper(c); 
....................          while ((c >= '0' && c <= '9') || (c >= 'A' && c <='F')) 
....................          { 
....................             if (c >= '0' && c <= '9') 
....................                result = (result << 4) + (c - '0'); 
....................             else 
....................                result = (result << 4) + (c - 'A' + 10); 
....................  
....................             c = s[index++];c = toupper(c); 
....................          } 
....................       } 
....................    } 
....................  
....................    if (base == 10 && sign == 1) 
....................       result = -result; 
....................  
....................    return(result); 
.................... } 
.................... #endif 
....................  
.................... char * itoa(signed int32 num, unsigned int base, char * s) 
.................... { 
....................      unsigned int32 temp=1; 
....................      unsigned int8 i,sign=0,cnt=0; 
....................      char c; 
....................  
....................      if(num<0) { 
....................          sign=1;        // Check for negative number 
....................          num*=-1; 
....................      } 
....................  
....................      while(temp>0) { 
....................          temp=(num/base); 
....................          s[cnt]=(num%base)+'0';    // Conversion 
....................  
....................          if(s[cnt]>0x39) 
....................             s[cnt]+=0x7; 
....................  
....................          cnt++; 
....................          num=temp; 
....................      } 
....................  
....................      if(sign==1) { 
....................          s[cnt]=0x2D;      // Negative sign 
....................          cnt++; 
....................      } 
....................  
....................      for(i = 0;i<(int8)(cnt/2);i++) { 
....................  
....................          c=s[i]; 
....................          s[i]=s[cnt-i-1];        // Reverse the number 
....................          s[cnt-i-1]=c; 
....................      } 
....................      s[cnt]='\0';     // End the string 
....................      return s; 
.................... } 
....................  
.................... #if defined(__PCD__) 
....................  
.................... char * itoa(signed int48 num, unsigned int base, char * s) 
.................... { 
....................      unsigned int48 temp=1; 
....................      unsigned int8 i,sign=0,cnt=0; 
....................      char c; 
....................  
....................      if(num<0) { 
....................          sign=1;        // Check for negative number 
....................          num*=-1; 
....................      } 
....................  
....................      while(temp>0) { 
....................          temp=(num/base); 
....................          s[cnt]=(num%base)+'0';    // Conversion 
....................  
....................          if(s[cnt]>0x39) 
....................             s[cnt]+=0x7; 
....................  
....................          cnt++; 
....................          num=temp; 
....................      } 
....................  
....................      if(sign==1) { 
....................          s[cnt]=0x2D;      // Negative sign 
....................          cnt++; 
....................      } 
....................  
....................      for(i = 0;i<(int8)(cnt/2);i++) { 
....................  
....................          c=s[i]; 
....................          s[i]=s[cnt-i-1];        // Reverse the number 
....................          s[cnt-i-1]=c; 
....................      } 
....................      s[cnt]='\0';     // End the string 
....................      return s; 
.................... } 
....................  
.................... char * itoa(signed int64 num, unsigned int base, char * s) 
.................... { 
....................      unsigned int64 temp=1; 
....................      unsigned int8 i,sign=0,cnt=0; 
....................      char c; 
....................       
....................      if(num<0) { 
....................          sign=1;        // Check for negative number 
....................          num*=-1;         
....................      } 
....................  
....................      while(temp>0) { 
....................          temp=(num/base); 
....................          s[cnt]=(num%base)+'0';    // Conversion 
....................  
....................          if(s[cnt]>0x39) 
....................             s[cnt]+=0x7; 
....................              
....................          cnt++; 
....................          num=temp; 
....................      } 
....................  
....................      if(sign==1) { 
....................          s[cnt]=0x2D;      // Negative sign 
....................          cnt++; 
....................      } 
....................  
....................      for(i = 0;i<(int8)(cnt/2);i++) { 
....................  
....................          c=s[i]; 
....................          s[i]=s[cnt-i-1];        // Reverse the number 
....................          s[cnt-i-1]=c; 
....................      } 
....................      s[cnt]='\0';     // End the string 
....................      return s; 
.................... } 
....................  
.................... #endif 
....................  
.................... float strtof(char *s, char *endptr) 
.................... { 
....................    float pow10 = 1.0; 
....................    float result = 0.0; 
....................    int1 skip = 1, sign = 0, point = 0; 
....................    char c; 
....................    unsigned int8 ptr = 0; 
....................  
....................    if (!s) 
....................       return 0; 
....................  
....................    for(c=s[ptr++]; c!=0; c=s[ptr++]) 
....................    { 
....................       if (skip && !isspace(c)) 
....................       { 
....................          skip = 0; 
....................          if (c == '+') 
....................          { 
....................             sign = 0; 
....................             continue; 
....................          }             
....................          else if (c == '-') 
....................          { 
....................             sign = 1; 
....................             continue; 
....................          } 
....................       } 
....................       if (!skip && (c == '.') && !point) 
....................          point = 1; 
....................       else if (!skip && isdigit(c)) 
....................       { 
....................          c -= '0'; 
....................          if (point) 
....................          { 
....................             pow10 = pow10 * 10.0; 
....................             result += (float)c / pow10;    
....................          } 
....................          else 
....................          { 
....................             result = 10.0 * result + (float)c; 
....................          } 
....................       } 
....................       else if (!skip) 
....................          break; 
....................    } 
....................  
....................    if (sign) 
....................       result = -1*result; 
....................        
....................    if(endptr) 
....................    { 
....................       if (ptr) { 
....................          ptr--; 
....................        #IF LONG_POINTERS  
....................          *((int16 *)endptr)= s+ptr;  
....................        #ELSE 
....................          *((char *)endptr)=s+ptr; 
....................        #ENDIF 
....................       } 
....................       else 
....................       { 
....................       #IF LONG_POINTERS 
....................       *((int16 *)endptr)= s;  
....................       #ELSE 
....................       *((char *)endptr)=s; 
....................       #ENDIF 
....................       } 
....................    } 
....................  
....................    return(result); 
.................... } 
....................  
.................... #if defined(__PCD__) 
.................... float48 strtof48(char *s, char *endptr) 
.................... { 
....................    float48 pow10 = 1.0; 
....................    float48 result = 0.0; 
....................    int1 skip = 1, sign = 0, point = 0; 
....................    char c; 
....................    unsigned int8 ptr = 0; 
....................  
....................    if (!s) 
....................       return 0; 
....................  
....................    for(c=s[ptr++]; c!=0; c=s[ptr++]) 
....................    { 
....................       if (skip && !isspace(c)) 
....................       { 
....................          skip = 0; 
....................          if (c == '+') 
....................          { 
....................             sign = 0; 
....................             continue; 
....................          }             
....................          else if (c == '-') 
....................          { 
....................             sign = 1; 
....................             continue; 
....................          } 
....................       } 
....................       if (!skip && (c == '.') && !point) 
....................          point = 1; 
....................       else if (!skip && isdigit(c)) 
....................       { 
....................          c -= '0'; 
....................          if (point) 
....................          { 
....................             pow10 = pow10 * 10.0; 
....................             result += (float48)c / pow10;    
....................          } 
....................          else 
....................          { 
....................             result = 10.0 * result + (float48)c; 
....................          } 
....................       } 
....................       else if (!skip) 
....................          break; 
....................    } 
....................  
....................    if (sign) 
....................       result = -1*result; 
....................        
....................    if(endptr) 
....................    { 
....................       if (ptr) { 
....................          ptr--; 
....................        #IF LONG_POINTERS  
....................          *((int16 *)endptr)= s+ptr;  
....................        #ELSE 
....................          *((char *)endptr)=s+ptr; 
....................        #ENDIF 
....................       } 
....................       else 
....................       { 
....................       #IF LONG_POINTERS 
....................       *((int16 *)endptr)= s;  
....................       #ELSE 
....................       *((char *)endptr)=s; 
....................       #ENDIF 
....................       } 
....................    } 
....................  
....................    return(result); 
.................... } 
....................  
.................... float64 strtod(char *s, char *endptr) 
.................... { 
....................    float64 pow10 = 1.0; 
....................    float64 result = 0.0; 
....................    int1 skip = 1, sign = 0, point = 0; 
....................    char c; 
....................    unsigned int8 ptr = 0; 
....................  
....................    if (!s) 
....................       return 0; 
....................  
....................    for(c=s[ptr++]; c!=0; c=s[ptr++]) 
....................    { 
....................       if (skip && !isspace(c)) 
....................       { 
....................          skip = 0; 
....................          if (c == '+') 
....................          { 
....................             sign = 0; 
....................             continue; 
....................          }             
....................          else if (c == '-') 
....................          { 
....................             sign = 1; 
....................             continue; 
....................          } 
....................       } 
....................       if (!skip && (c == '.') && !point) 
....................          point = 1; 
....................       else if (!skip && isdigit(c)) 
....................       { 
....................          c -= '0'; 
....................          if (point) 
....................          { 
....................             pow10 = pow10 * 10.0; 
....................             result += (float64)c / pow10;    
....................          } 
....................          else 
....................          { 
....................             result = 10.0 * result + (float64)c; 
....................          } 
....................       } 
....................       else if (!skip) 
....................          break; 
....................    } 
....................  
....................    if (sign) 
....................       result = -1*result; 
....................        
....................    if(endptr) 
....................    { 
....................       if (ptr) { 
....................          ptr--; 
....................        #IF LONG_POINTERS  
....................          *((int16 *)endptr)= s+ptr;  
....................        #ELSE 
....................          *((char *)endptr)=s+ptr; 
....................        #ENDIF 
....................       } 
....................       else 
....................       { 
....................       #IF LONG_POINTERS 
....................       *((int16 *)endptr)= s;  
....................       #ELSE 
....................       *((char *)endptr)=s; 
....................       #ENDIF 
....................       } 
....................    } 
....................  
....................    return(result); 
.................... } 
.................... #endif 
....................  
.................... unsigned long strtoul(char *s, char *endptr, signed int base) 
.................... { 
....................    char *sc,*s1,*sd; 
....................    unsigned long x=0; 
....................    char sign; 
....................    char digits[]="0123456789abcdefghijklmnopqstuvwxyz"; 
....................    for(sc=s;isspace(*sc);++sc); 
....................    sign=*sc=='-'||*sc=='+'?*sc++:'+'; 
....................    if(sign=='-' || base <0 || base ==1|| base >36) // invalid base 
....................    goto StrtoulGO; 
....................  
....................    else if (base) 
....................    { 
....................       if(base==16 && *sc =='0'&&(sc[1]=='x' || sc[1]=='X')) 
....................          sc+=2; 
....................       if(base==8 && *sc =='0') 
....................          sc+=1; 
....................       if(base==2 && *sc =='0'&&sc[1]=='b') 
....................          sc+=2; 
....................  
....................    } 
....................    else if(*sc!='0') // base is 0, find base 
....................       base=10; 
....................    else if (sc[1]=='x' || sc[1]=='X') 
....................       base =16,sc+=2; 
....................    else if(sc[1]=='b') 
....................       base=2,sc+=2; 
....................    else 
....................       base=8; 
....................    for (s1=sc;*sc=='0';++sc);// skip leading zeroes 
....................    sd=memchr(digits,tolower(*sc),base); 
....................    for(; sd!=0; ) 
....................    { 
....................       x=x*base+(int16)(sd-digits); 
....................       ++sc; 
....................       sd=memchr(digits,tolower(*sc),base); 
....................    } 
....................    if(s1==sc) 
....................    { 
....................    StrtoulGO: 
....................       if (endptr) 
....................       { 
....................          #IF LONG_POINTERS 
....................          *((int16 *)endptr)= s;  
....................          #ELSE 
....................          *((char *)endptr)=s; 
....................          #ENDIF 
....................          } 
....................    return 0; 
....................    } 
....................    if (endptr) 
....................    { 
....................          #IF LONG_POINTERS 
....................          *((int16 *)endptr)= sc;  
....................          #ELSE 
....................          *((char *)endptr)=sc;  
....................          #ENDIF 
....................    } 
....................    return x; 
.................... } 
....................  
....................  
.................... signed long strtol(char *s,char *endptr, signed int base) 
.................... { 
....................    char *sc,*s1,*sd; 
....................    signed long x=0; 
....................    char sign; 
....................    char digits[]="0123456789abcdefghijklmnopqstuvwxyz"; 
....................    for(sc=s;isspace(*sc);++sc); 
....................    sign=*sc=='-'||*sc=='+'?*sc++:'+'; 
....................    if (base <0 || base ==1|| base >36) // invalid base 
....................    goto StrtolGO; 
....................    else if (base) 
....................    { 
....................       if(base==16 && *sc =='0'&&(sc[1]=='x' || sc[1]=='X')) 
....................          sc+=2; 
....................       if(base==8 && *sc =='0') 
....................          sc+=1; 
....................       if(base==2 && *sc =='0'&&sc[1]=='b') 
....................          sc+=2; 
....................  
....................    } 
....................    else if(*sc!='0') // base is 0, find base 
....................       base=10; 
....................    else if (sc[1]=='x' || sc[1]=='X') 
....................       base =16,sc+=2; 
....................    else if(sc[1]=='b') 
....................       base=2,sc+=2; 
....................    else 
....................       base=8; 
....................    for (s1=sc;*sc=='0';++sc);// skip leading zeroes 
....................  
....................    sd=memchr(digits,tolower(*sc),base); 
....................    for(;sd!=0;) 
....................    { 
....................       x=x*base+(int16)(sd-digits); 
....................       ++sc; 
....................       sd=memchr(digits,tolower(*sc),base); 
....................    } 
....................    if(s1==sc) 
....................    { 
....................    StrtolGO: 
....................       if (endptr) 
....................       { 
....................          #IF LONG_POINTERS 
....................          *((int16 *)endptr)= s;  
....................          #ELSE 
....................          *((char *)endptr)=s; 
....................          #ENDIF 
....................       } 
....................    return 0; 
....................    } 
....................    if(sign=='-') 
....................       x  =-x; 
....................    if (endptr) 
....................    { 
....................         #IF LONG_POINTERS 
....................          *((int16 *)endptr)= sc;  
....................         #ELSE 
....................         *((char *)endptr)=sc; 
....................         #ENDIF 
....................    } 
....................    return x; 
.................... } 
....................  
.................... signed int8 system(char *string) 
.................... { 
....................    return 0; 
.................... } 
....................  
.................... int8 mblen(char *s,size_t n) 
.................... { 
....................    return strlen(s); 
.................... } 
....................  
.................... int8 mbtowc(wchar_t *pwc,char *s,size_t n) 
.................... { 
....................    *pwc=*s; 
....................    return 1; 
.................... } 
....................  
.................... int8 wctomb(char *s,wchar_t wchar) 
.................... { 
....................    *s=wchar; 
....................    return 1; 
.................... } 
....................  
.................... size_t mbstowcs(wchar_t *pwcs,char *s,size_t n) 
.................... { 
....................    strncpy(pwcs,s,n); 
....................    return strlen(pwcs); 
.................... } 
....................  
.................... size_t wcstombs(char *s,wchar_t *pwcs,size_t n) 
.................... { 
....................    strncpy(s,pwcs,n); 
....................    return strlen(s); 
.................... } 
....................  
.................... //--------------------------------------------------------------------------- 
.................... // The random number implementation 
.................... //--------------------------------------------------------------------------- 
....................  
.................... unsigned int32 _Randseed; 
....................  
.................... unsigned int16 rand(void) 
.................... { 
....................    _Randseed = _Randseed * 1103515245 + 12345; 
....................    return ((unsigned int16)(_Randseed >> 16) % RAND_MAX); 
.................... } 
....................  
.................... void srand(unsigned int32 seed) 
.................... { 
....................    _Randseed = seed; 
.................... } 
....................  
.................... //--------------------------------------------------------------------------- 
.................... // Searching and sorting utilities implementation 
.................... //--------------------------------------------------------------------------- 
....................  
.................... #if !defined(__PCD__) 
.................... typedef signed int8 (*_Cmpfun)(char * p1,char * p2);  
.................... #else  
.................... typedef signed int16 (*_Cmpfun)(char * p1,char * p2);  
.................... #endif 
....................  
....................  
....................  
.................... void qsort(char * qdata, unsigned int qitems, unsigned int qsize, _Cmpfun cmp) { 
....................    unsigned int m,j,i,l; 
....................    int1 done; 
....................    unsigned int8 t[16]; 
....................  
....................    m = qitems/2; 
....................    while( m > 0 ) { 
....................      for(j=0; j<(qitems-m); ++j) { 
....................         i = j; 
....................         do 
....................         { 
....................            done=1; 
....................            l = i+m; 
....................            if( (*cmp)(qdata+i*qsize, qdata+l*qsize) > 0 ) { 
....................               memcpy(t, qdata+i*qsize, qsize); 
....................               memcpy(qdata+i*qsize, qdata+l*qsize, qsize); 
....................               memcpy(qdata+l*qsize, t, qsize); 
....................               if(m <= i) 
....................                 i -= m; 
....................                 done = 0; 
....................            } 
....................         } while(!done); 
....................      } 
....................      m = m/2; 
....................    } 
.................... } 
....................  
....................  
.................... char *bsearch(char *key, char *base, size_t num, size_t width,_Cmpfun cmp) 
.................... { 
....................    char *p, *q; 
....................    size_t n; 
....................    size_t pivot; 
....................    signed int val; 
....................  
....................    p = base; 
....................    n = num; 
....................  
....................    while (n > 0) 
....................    { 
....................       pivot = n >> 1; 
....................       q = p + width * pivot; 
....................  
....................       val = (*cmp)(key, q); 
....................  
....................       if (val < 0) 
....................          n = pivot; 
....................       else if (val == 0) 
....................          return ((char *)q); 
....................       else { 
....................          p = q + width; 
....................          n -= pivot + 1; 
....................       } 
....................    } 
....................  
....................    return NULL;      // There's no match 
.................... } 
....................  
....................  
.................... #endif 
....................  
....................  
.................... #define FASTOSC 0 
....................  
.................... #FUSES INTRC_IO,NOPROTECT,PUT,NOLVP,BROWNOUT,NOMCLR,WDT8192 
.................... #use delay(clock=8000000) 
*
1E58:  MOVLW  05
1E5A:  MOVWF  FEA
1E5C:  MOVLW  A6
1E5E:  MOVWF  FE9
1E60:  MOVF   FEF,W
1E62:  BZ    1E7E
1E64:  MOVLW  02
1E66:  MOVWF  01
1E68:  CLRF   00
1E6A:  DECFSZ 00,F
1E6C:  BRA    1E6A
1E6E:  DECFSZ 01,F
1E70:  BRA    1E68
1E72:  MOVLW  97
1E74:  MOVWF  00
1E76:  DECFSZ 00,F
1E78:  BRA    1E76
1E7A:  DECFSZ FEF,F
1E7C:  BRA    1E64
1E7E:  RETURN 0
....................  
.................... #use rs232(stream=stream_wireless,baud=57600,xmit=PIN_C6,rcv=PIN_C7,ERRORS)	 
*
1696:  BTFSS  F9E.5
1698:  BRA    1696
169A:  MOVFF  FAB,34
169E:  MOVFF  FAE,01
16A2:  BTFSS  34.1
16A4:  BRA    16AA
16A6:  BCF    FAB.4
16A8:  BSF    FAB.4
16AA:  GOTO   16B4 (RETURN)
*
46BA:  BTFSS  F9E.4
46BC:  BRA    46BA
46BE:  MOVWF  FAD
46C0:  RETURN 0
.................... #use rs232(stream=stream_sd,baud=9600,xmit=PIN_G1,rcv=PIN_G2,ERRORS) 
*
16DE:  BTFSS  FA4.5
16E0:  BRA    16DE
16E2:  MOVFF  F6B,34
16E6:  MOVFF  F6E,01
16EA:  BTFSS  34.1
16EC:  BRA    16F2
16EE:  BCF    F6B.4
16F0:  BSF    F6B.4
16F2:  GOTO   16F8 (RETURN)
*
4782:  BTFSS  FA4.4
4784:  BRA    4782
4786:  MOVWF  F6D
4788:  RETURN 0
.................... #use i2c(master, sda=PIN_C4, scl=PIN_C3, FAST) 
*
1F84:  MOVLW  08
1F86:  MOVWF  01
1F88:  NOP   
1F8A:  BCF    F8B.3
1F8C:  BCF    F94.3
1F8E:  NOP   
1F90:  MOVLB  5
1F92:  RLCF   x81,F
1F94:  BCF    F8B.4
1F96:  BTFSC  FD8.0
1F98:  BSF    F94.4
1F9A:  BTFSS  FD8.0
1F9C:  BCF    F94.4
1F9E:  BSF    F94.3
1FA0:  BTFSS  F82.3
1FA2:  BRA    1FA0
1FA4:  DECFSZ 01,F
1FA6:  BRA    1FAA
1FA8:  BRA    1FAE
1FAA:  MOVLB  0
1FAC:  BRA    1F88
1FAE:  NOP   
1FB0:  BCF    F8B.3
1FB2:  BCF    F94.3
1FB4:  NOP   
1FB6:  BSF    F94.4
1FB8:  NOP   
1FBA:  NOP   
1FBC:  BSF    F94.3
1FBE:  BTFSS  F82.3
1FC0:  BRA    1FBE
1FC2:  CLRF   01
1FC4:  NOP   
1FC6:  BTFSC  F82.4
1FC8:  BSF    01.0
1FCA:  BCF    F8B.3
1FCC:  BCF    F94.3
1FCE:  BCF    F8B.4
1FD0:  BCF    F94.4
1FD2:  MOVLB  0
1FD4:  RETURN 0
*
203A:  MOVLW  08
203C:  MOVLB  5
203E:  MOVWF  x7F
2040:  MOVFF  00,580
2044:  BSF    F94.4
2046:  NOP   
2048:  BSF    F94.3
204A:  BTFSS  F82.3
204C:  BRA    204A
204E:  BTFSC  F82.4
2050:  BSF    FD8.0
2052:  BTFSS  F82.4
2054:  BCF    FD8.0
2056:  RLCF   01,F
2058:  NOP   
205A:  BCF    F94.3
205C:  BCF    F8B.3
205E:  DECFSZ x7F,F
2060:  BRA    2044
2062:  BSF    F94.4
2064:  NOP   
2066:  BCF    F8B.4
2068:  MOVF   x80,W
206A:  BTFSS  FD8.2
206C:  BCF    F94.4
206E:  NOP   
2070:  BSF    F94.3
2072:  BTFSS  F82.3
2074:  BRA    2072
2076:  NOP   
2078:  BCF    F8B.3
207A:  BCF    F94.3
207C:  NOP   
207E:  BCF    F8B.4
2080:  BCF    F94.4
2082:  MOVLB  0
2084:  RETURN 0
....................  
.................... #use standard_io(A) 
.................... #use standard_io(B) 
.................... #use standard_io(C) 
.................... #use standard_io(D) 
.................... #use standard_io(E) 
.................... #use standard_io(F) 
....................  
.................... /* location where serial number is stored */ 
.................... #define EE_SERIAL_PREFIX             0x10 
.................... #define EE_SERIAL_MSB                0x11 
.................... #define EE_SERIAL_LSB                0x12 
.................... #define EE_HW_TYPE                   0x13 
.................... #define EE_ANEMOMETER_TYPE           0x14 
.................... #define EE_SD_LOG_RATE               0x15 
.................... #define EE_LIVE_TYPE                 0x16 
.................... #define EE_WIND_DIRECTION_SOURCE     0x17 
.................... #define EE_WIND_DIRECTION_OFFSET_MSB 0x18 
.................... #define EE_WIND_DIRECTION_OFFSET_LSB 0x19 
....................  
.................... //#define ANEMOMETER_TIMEOUT 2000 
.................... #define MODEM_TIMEOUT_SECONDS 240 
.................... #define BACKLIGHT_TIMEOUT_SECONDS 30 
.................... #define BUTTON_0_BIT  5 
.................... #define BUTTON_1_BIT  6 
.................... #define BUTTON_2_BIT  7 
.................... #define BUTTON_BOUNCE 2 
....................  
.................... /* I2C bus has RTC, FRAM, and UART */ 
.................... #define I2C_SDA       PIN_C4 
.................... #define I2C_SCL       PIN_C3 
....................  
.................... #define BUTTON_0      PIN_B5 
.................... #define BUTTON_1      PIN_B6 
.................... #define BUTTON_2      PIN_B7 
....................  
.................... /* LCD, character, 16x2 */ 
.................... #define LCD_RS PIN_F1	// Register select 
.................... #define LCD_RW PIN_F2 
.................... #define LCD_EN PIN_F3	// Enable 
.................... #define LCD_D4 PIN_F4	// Data bits 
.................... #define LCD_D5 PIN_F5	// Data bits 
.................... #define LCD_D6 PIN_F6   // Data bits 
.................... #define LCD_D7 PIN_F7   // Data bits 
.................... #define LCD_BACKLIGHT PIN_F0 
....................  
.................... /* XBee Pro modem */ 
.................... #define MODEM_SLEEP        PIN_E5 
.................... #define MODEM_CTS          PIN_E4 
.................... #define MODEM_SLEEP_STATUS PIN_E3 
.................... #define MODEM_RTS          PIN_E2 
....................  
.................... /* Dataflash AT45DB161D */ 
.................... #define DATAFLASH_CS       PIN_D2 
.................... #define DATAFLASH_RESET    PIN_D3 
.................... #define DATAFLASH_SI       PIN_D4 
.................... #define DATAFLASH_SO       PIN_D5 
.................... #define DATAFLASH_SCK      PIN_D6 
....................  
.................... /* status LEDs (present on rdLoggerUniversalXTC */ 
.................... #define LED_LOGGING        PIN_B2 /* green */ 
.................... #define LED_WIRELESS       PIN_B3 /* red */ 
.................... #define LED_ANEMOMETER     PIN_D7 /* orange */ 
....................  
.................... /* SD daughter board */ 
.................... #define MMC_STATUS_TO_HOST PIN_E1 
.................... #define MMC_STATUS_TO_SD   PIN_E0 
....................  
....................  
.................... /* GPS */ 
.................... #define GPS_EN             PIN_E6 
....................  
.................... /* analog inputs */ 
.................... #define AN_IN_VOLTS        PIN_A0 
.................... #define AN0_FILTERED       PIN_B0 
.................... #define AN1_FILTERED       PIN_B1 
.................... #define WV0_FILTERED       PIN_A1 
.................... #define WV1_FILTERED       PIN_A2 
.................... #define ADC_AN_IN_VOLTS    0 
.................... #define ADC_WV0_FILTERED   1 
.................... #define ADC_WV1_FILTERED   2 
....................  
.................... #define HARDWARE_TYPE_RDLOGGER          0 
.................... //#define HARDWARE_TYPE_RDLOGGERCELL      1 
.................... #define HARDWARE_TYPE_RDLOGGERUNIVERSAL 2 
....................  
.................... #define ANEMOMETER_TYPE_40HC  0 
.................... #define ANEMOMETER_TYPE_THIES 1 
....................  
.................... #define SD_LOG_RATE_60 0 
.................... #define SD_LOG_RATE_10 1 
....................  
.................... #define LIVE_TYPE_SHORT  0 
.................... #define LIVE_TYPE_FULL   1 
.................... #define LIVE_TYPE_CMPS12 2 
....................  
.................... #define WIND_DIRECTION_SOURCE_ADC    0 
.................... #define WIND_DIRECTION_SOURCE_CMPS12 1 
....................  
.................... const int16 int16_tens[]={10000,1000,100,10,1}; 
....................  
.................... #define I2C_ADDR_CMPS12 0xC0 
.................... #define I2C_ADDR_MS5611 0x77 
.................... #define I2C_ADDR_DS1307 0x68 
.................... #define I2C_ADDR_NVRAM  0xA0 
....................  
.................... #define DEBUG_HUMAN_OUTPUT 0 
....................  
....................  
.................... typedef struct { 
.................... 	/* most recent valid */ 
.................... 	int16 pulse_period;     /* period for #40HC or frequency (Hz) for Thies */ 
.................... 	int16 pulse_min_period; /* period for #40HC or frequency (Hz) for Thies */ 
....................  
.................... 	int16 pulse_count_log;  /* reset in log routine */ 
.................... 	int16 pulse_count_live; /* reset in live routine */ 
....................  
....................  
.................... 	int16 input_voltage_adc; 
.................... 	int8 wind_direction_sector; 
.................... 	int8 battery_charge; 
.................... 	int16 analog0_adc; 
.................... 	int16 analog1_adc; 
....................  
....................  
.................... 	int8 serial_prefix; 
.................... 	int8 serial_msb; 
.................... 	int8 serial_lsb; 
....................  
.................... 	int8 compile_year, compile_month, compile_day; 
.................... 	int16 uptime; 
.................... 	int8 hardware_type; 
.................... 	int8 anemometer_type; 
.................... 	int8 live_type; 
.................... 	int8 sd_log_rate; 
....................  
.................... 	int8 wind_direction_source; 
.................... 	int16 wind_direction_offset; 
.................... 	int16 wind_direction_degrees; 
....................  
.................... 	int8 cmps12_register[32]; 
.................... } struct_current; 
....................  
....................  
....................  
.................... typedef struct { 
.................... 	short now_generate_message;  
....................  
.................... 	int8  buff[128];     
.................... 	int16 buff_length;    // bytes of data in buffer 
.................... 	int16 age;            // age (milliseconds) of receive buffer 
.................... 	int16 age_response; 
....................  
.................... 	int8  message[129]; 
.................... 	short message_waiting; 
.................... } struct_wireless; 
....................  
.................... typedef struct { 
.................... 	short now_redraw; 
.................... 	short now_log; 
.................... 	short now_log_init; 
.................... 	short now_log_mark_downloaded; 
.................... 	short now_live; 
.................... 	short now_live_status; 
.................... 	short now_10millisecond; 
.................... 	short now_second; 
.................... 	short now_gps_update; 
....................  
.................... 	/* flag to see if we are timing */ 
.................... 	short pulse_0_count; 
....................  
.................... 	short up_now; 
.................... 	short down_now; 
.................... 	short select_now; 
....................  
.................... 	int8 port_b; 
.................... } struct_action; 
....................  
....................  
....................  
.................... typedef struct { 
.................... 	int8 hour; 
.................... 	int8 minute; 
.................... 	int8 second; 
.................... 	int8 day; 
.................... 	int8 month; 
.................... 	int8 year; 
....................  
.................... 	int8 backlight_seconds;	 
.................... 	int8 modem_seconds; 
.................... 	int8 live_seconds; 
....................  
.................... 	int16 pulse_period; 
.................... 	int16 pulse_count; /* used in frequency counting interrupt to count pulses in second */ 
.................... } struct_time_keep; 
....................  
.................... typedef struct { 
.................... 	float latitude; 
.................... 	float longitude; 
....................  
.................... 	int8 year; 
.................... 	int8 month; 
.................... 	int8 day; 
.................... 	 
.................... 	int8 hour; 
.................... 	int8 minute; 
.................... 	int8 second; 
.................... 	 
.................... 	int8 valid; 
.................... 	int8 rcrc; 
....................  
.................... 	/* raw unparsed ASCII data, null terminated */ 
.................... 	int8 buff[80]; 
.................... 	int8 buff_rcrc[3]; 
.................... } struct_gps_data; 
....................  
.................... typedef struct { 
.................... 	int8  buff_page[528]; 
.................... 	int16 page_requested; 
.................... 	int16 n_pages; 
.................... } struct_log; 
....................  
.................... typedef struct { 
.................... 	int16 value; 
.................... 	float fvalue; 
.................... 	int8 start_pos; 
.................... 	int8 field; 
.................... } struct_keypad_input; 
....................  
.................... /* global structures */ 
.................... struct_current current; 
.................... struct_wireless wireless; 
.................... struct_action action; 
.................... struct_time_keep timers; 
.................... struct_gps_data gps; 
.................... struct_log log; 
.................... struct_keypad_input keypad; 
....................  
.................... #byte port_a=0x0f80 
.................... #byte port_b=0x0f81 
.................... #byte port_c=0x0f82 
.................... #byte port_d=0x0f83 
.................... #byte port_e=0x0f84 
.................... #byte port_f=0x0f85 
.................... #byte port_g=0x0f86 
....................  
....................  
....................  
.................... int16 crc_chk(int8 *data, int8 length) { 
*
4128:  MOVLB  5
412A:  SETF   xAB
412C:  SETF   xAA
.................... 	int8 j; 
.................... 	int16 reg_crc=0xFFFF; 
....................  
.................... 	while ( length-- ) { 
412E:  MOVF   xA8,W
4130:  DECF   xA8,F
4132:  XORLW  00
4134:  BZ    4182
.................... 		reg_crc ^= *data++; 
4136:  MOVFF  5A7,03
413A:  MOVF   xA6,W
413C:  INCF   xA6,F
413E:  BTFSC  FD8.2
4140:  INCF   xA7,F
4142:  MOVWF  FE9
4144:  MOVFF  03,FEA
4148:  MOVF   FEF,W
414A:  XORWF  xAA,F
....................  
.................... 		for ( j=0 ; j<8 ; j++ ) { 
414C:  CLRF   xA9
414E:  MOVF   xA9,W
4150:  SUBLW  07
4152:  BNC   4180
.................... 			if ( reg_crc & 0x01 ) { 
4154:  MOVF   xAA,W
4156:  ANDLW  01
4158:  MOVWF  00
415A:  CLRF   03
415C:  MOVF   00,W
415E:  IORWF  03,W
4160:  BZ    4176
.................... 				reg_crc=(reg_crc>>1) ^ 0xA001; 
4162:  BCF    FD8.0
4164:  RRCF   xAB,W
4166:  MOVWF  xAD
4168:  RRCF   xAA,W
416A:  XORLW  01
416C:  MOVWF  xAA
416E:  MOVF   xAD,W
4170:  XORLW  A0
4172:  MOVWF  xAB
.................... 			} else { 
4174:  BRA    417C
.................... 				reg_crc=reg_crc>>1; 
4176:  BCF    FD8.0
4178:  RRCF   xAB,F
417A:  RRCF   xAA,F
.................... 			} 
.................... 		}	 
417C:  INCF   xA9,F
417E:  BRA    414E
.................... 	} 
4180:  BRA    412E
.................... 	 
.................... 	return reg_crc; 
4182:  MOVFF  5AA,01
4186:  MOVFF  5AB,02
.................... } 
418A:  MOVLB  0
418C:  RETURN 0
....................  
....................  
.................... int16 read_eeprom_int16(int16 address) { 
.................... 	return make16(read_eeprom(address),read_eeprom(address+1)); 
*
1D54:  MOVFF  FF2,47D
1D58:  BCF    FF2.6
1D5A:  BCF    FF2.7
1D5C:  MOVFF  47C,FAA
1D60:  MOVFF  47B,FA9
1D64:  BCF    FA6.6
1D66:  BCF    FA6.7
1D68:  BSF    FA6.0
1D6A:  MOVF   FA8,W
1D6C:  MOVLB  4
1D6E:  BTFSC  x7D.6
1D70:  BSF    FF2.6
1D72:  BTFSC  x7D.7
1D74:  BSF    FF2.7
1D76:  MOVWF  x7E
1D78:  MOVLW  01
1D7A:  ADDWF  x7B,W
1D7C:  MOVWF  x7F
1D7E:  MOVLW  00
1D80:  ADDWFC x7C,W
1D82:  MOVWF  x80
1D84:  MOVFF  FF2,481
1D88:  BCF    FF2.6
1D8A:  BCF    FF2.7
1D8C:  MOVFF  480,FAA
1D90:  MOVFF  47F,FA9
1D94:  BCF    FA6.6
1D96:  BCF    FA6.7
1D98:  BSF    FA6.0
1D9A:  MOVF   FA8,W
1D9C:  BTFSC  x81.6
1D9E:  BSF    FF2.6
1DA0:  BTFSC  x81.7
1DA2:  BSF    FF2.7
1DA4:  MOVWF  x7F
1DA6:  MOVFF  47E,03
1DAA:  MOVF   x7F,W
1DAC:  MOVWF  01
1DAE:  MOVF   03,W
1DB0:  MOVWF  02
.................... } 
1DB2:  MOVLB  0
1DB4:  GOTO   23B0 (RETURN)
.................... void write_eeprom_int16(int16 address, int16 val) { 
.................... 	write_eeprom(address,make8(val,1)); 
1DB8:  MOVFF  47E,47F
1DBC:  MOVF   FF2,W
1DBE:  MOVWF  00
1DC0:  BCF    FF2.6
1DC2:  BCF    FF2.7
1DC4:  MOVFF  47C,FAA
1DC8:  MOVFF  47B,FA9
1DCC:  MOVFF  47F,FA8
1DD0:  BCF    FA6.6
1DD2:  BCF    FA6.7
1DD4:  BSF    FA6.2
1DD6:  MOVLB  F
1DD8:  MOVLW  55
1DDA:  MOVWF  FA7
1DDC:  MOVLW  AA
1DDE:  MOVWF  FA7
1DE0:  BSF    FA6.1
1DE2:  BTFSC  FA6.1
1DE4:  BRA    1DE2
1DE6:  BCF    FA6.2
1DE8:  MOVF   00,W
1DEA:  IORWF  FF2,F
.................... 	write_eeprom(address+1,make8(val,0)); 
1DEC:  MOVLW  01
1DEE:  MOVLB  4
1DF0:  ADDWF  x7B,W
1DF2:  MOVWF  x7F
1DF4:  MOVLW  00
1DF6:  ADDWFC x7C,W
1DF8:  MOVWF  x80
1DFA:  MOVFF  47D,481
1DFE:  MOVF   FF2,W
1E00:  MOVWF  00
1E02:  BCF    FF2.6
1E04:  BCF    FF2.7
1E06:  MOVFF  480,FAA
1E0A:  MOVFF  47F,FA9
1E0E:  MOVFF  481,FA8
1E12:  BCF    FA6.6
1E14:  BCF    FA6.7
1E16:  BSF    FA6.2
1E18:  MOVLB  F
1E1A:  MOVLW  55
1E1C:  MOVWF  FA7
1E1E:  MOVLW  AA
1E20:  MOVWF  FA7
1E22:  BSF    FA6.1
1E24:  BTFSC  FA6.1
1E26:  BRA    1E24
1E28:  BCF    FA6.2
1E2A:  MOVF   00,W
1E2C:  IORWF  FF2,F
.................... } 
1E2E:  MOVLB  0
1E30:  RETURN 0
....................  
....................  
.................... /* declare routine called by timer0 ISR */ 
.................... void task_10millisecond(void); 
....................  
.................... #include "anemometer_thies.c" 
....................  
.................... #define HZ_TO_40HC_OTA_MAX 1200 
.................... const int16 hz_to_40hc_OTA[] = { 
.................... 	    0, /* inHz=   0, windSpeed=0.2, outHz=-0.1 */ 
.................... 	    0, /* inHz=   1, windSpeed=0.3, outHz=-0.1 */ 
.................... 	    0, /* inHz=   2, windSpeed=0.3, outHz=-0.0 */ 
.................... 	    0, /* inHz=   3, windSpeed=0.4, outHz= 0.0 */ 
.................... 	    0, /* inHz=   4, windSpeed=0.4, outHz= 0.1 */ 
.................... 	59878, /* inHz=   5, windSpeed=0.5, outHz= 0.2 */ 
.................... 	44031, /* inHz=   6, windSpeed=0.5, outHz= 0.2 */ 
.................... 	34817, /* inHz=   7, windSpeed=0.6, outHz= 0.3 */ 
.................... 	28792, /* inHz=   8, windSpeed=0.6, outHz= 0.3 */ 
.................... 	24544, /* inHz=   9, windSpeed=0.7, outHz= 0.4 */ 
.................... 	21389, /* inHz=  10, windSpeed=0.7, outHz= 0.5 */ 
.................... 	18953, /* inHz=  11, windSpeed=0.8, outHz= 0.5 */ 
.................... 	17014, /* inHz=  12, windSpeed=0.8, outHz= 0.6 */ 
.................... 	15436, /* inHz=  13, windSpeed=0.8, outHz= 0.6 */ 
.................... 	14125, /* inHz=  14, windSpeed=0.9, outHz= 0.7 */ 
.................... 	13020, /* inHz=  15, windSpeed=0.9, outHz= 0.8 */ 
.................... 	12075, /* inHz=  16, windSpeed=1.0, outHz= 0.8 */ 
.................... 	11258, /* inHz=  17, windSpeed=1.0, outHz= 0.9 */ 
.................... 	10544, /* inHz=  18, windSpeed=1.1, outHz= 0.9 */ 
.................... 	 9916, /* inHz=  19, windSpeed=1.1, outHz= 1.0 */ 
.................... 	 9358, /* inHz=  20, windSpeed=1.2, outHz= 1.1 */ 
.................... 	 8860, /* inHz=  21, windSpeed=1.2, outHz= 1.1 */ 
.................... 	 8412, /* inHz=  22, windSpeed=1.3, outHz= 1.2 */ 
.................... 	 8007, /* inHz=  23, windSpeed=1.3, outHz= 1.2 */ 
.................... 	 7639, /* inHz=  24, windSpeed=1.4, outHz= 1.3 */ 
.................... 	 7304, /* inHz=  25, windSpeed=1.4, outHz= 1.4 */ 
.................... 	 6997, /* inHz=  26, windSpeed=1.4, outHz= 1.4 */ 
.................... 	 6715, /* inHz=  27, windSpeed=1.5, outHz= 1.5 */ 
.................... 	 6454, /* inHz=  28, windSpeed=1.5, outHz= 1.5 */ 
.................... 	 6213, /* inHz=  29, windSpeed=1.6, outHz= 1.6 */ 
.................... 	 5989, /* inHz=  30, windSpeed=1.6, outHz= 1.7 */ 
.................... 	 5781, /* inHz=  31, windSpeed=1.7, outHz= 1.7 */ 
.................... 	 5587, /* inHz=  32, windSpeed=1.7, outHz= 1.8 */ 
.................... 	 5406, /* inHz=  33, windSpeed=1.8, outHz= 1.8 */ 
.................... 	 5235, /* inHz=  34, windSpeed=1.8, outHz= 1.9 */ 
.................... 	 5076, /* inHz=  35, windSpeed=1.9, outHz= 2.0 */ 
.................... 	 4926, /* inHz=  36, windSpeed=1.9, outHz= 2.0 */ 
.................... 	 4784, /* inHz=  37, windSpeed=1.9, outHz= 2.1 */ 
.................... 	 4650, /* inHz=  38, windSpeed=2.0, outHz= 2.2 */ 
.................... 	 4524, /* inHz=  39, windSpeed=2.0, outHz= 2.2 */ 
.................... 	 4404, /* inHz=  40, windSpeed=2.1, outHz= 2.3 */ 
.................... 	 4290, /* inHz=  41, windSpeed=2.1, outHz= 2.3 */ 
.................... 	 4183, /* inHz=  42, windSpeed=2.2, outHz= 2.4 */ 
.................... 	 4080, /* inHz=  43, windSpeed=2.2, outHz= 2.5 */ 
.................... 	 3982, /* inHz=  44, windSpeed=2.3, outHz= 2.5 */ 
.................... 	 3889, /* inHz=  45, windSpeed=2.3, outHz= 2.6 */ 
.................... 	 3800, /* inHz=  46, windSpeed=2.4, outHz= 2.6 */ 
.................... 	 3716, /* inHz=  47, windSpeed=2.4, outHz= 2.7 */ 
.................... 	 3634, /* inHz=  48, windSpeed=2.5, outHz= 2.8 */ 
.................... 	 3557, /* inHz=  49, windSpeed=2.5, outHz= 2.8 */ 
.................... 	 3482, /* inHz=  50, windSpeed=2.5, outHz= 2.9 */ 
.................... 	 3411, /* inHz=  51, windSpeed=2.6, outHz= 2.9 */ 
.................... 	 3342, /* inHz=  52, windSpeed=2.6, outHz= 3.0 */ 
.................... 	 3277, /* inHz=  53, windSpeed=2.7, outHz= 3.1 */ 
.................... 	 3213, /* inHz=  54, windSpeed=2.7, outHz= 3.1 */ 
.................... 	 3152, /* inHz=  55, windSpeed=2.8, outHz= 3.2 */ 
.................... 	 3094, /* inHz=  56, windSpeed=2.8, outHz= 3.2 */ 
.................... 	 3037, /* inHz=  57, windSpeed=2.9, outHz= 3.3 */ 
.................... 	 2983, /* inHz=  58, windSpeed=2.9, outHz= 3.4 */ 
.................... 	 2930, /* inHz=  59, windSpeed=3.0, outHz= 3.4 */ 
.................... 	 2880, /* inHz=  60, windSpeed=3.0, outHz= 3.5 */ 
.................... 	 2831, /* inHz=  61, windSpeed=3.1, outHz= 3.5 */ 
.................... 	 2783, /* inHz=  62, windSpeed=3.1, outHz= 3.6 */ 
.................... 	 2737, /* inHz=  63, windSpeed=3.1, outHz= 3.7 */ 
.................... 	 2693, /* inHz=  64, windSpeed=3.2, outHz= 3.7 */ 
.................... 	 2650, /* inHz=  65, windSpeed=3.2, outHz= 3.8 */ 
.................... 	 2609, /* inHz=  66, windSpeed=3.3, outHz= 3.8 */ 
.................... 	 2568, /* inHz=  67, windSpeed=3.3, outHz= 3.9 */ 
.................... 	 2529, /* inHz=  68, windSpeed=3.4, outHz= 4.0 */ 
.................... 	 2491, /* inHz=  69, windSpeed=3.4, outHz= 4.0 */ 
.................... 	 2455, /* inHz=  70, windSpeed=3.5, outHz= 4.1 */ 
.................... 	 2419, /* inHz=  71, windSpeed=3.5, outHz= 4.1 */ 
.................... 	 2384, /* inHz=  72, windSpeed=3.6, outHz= 4.2 */ 
.................... 	 2351, /* inHz=  73, windSpeed=3.6, outHz= 4.3 */ 
.................... 	 2318, /* inHz=  74, windSpeed=3.7, outHz= 4.3 */ 
.................... 	 2286, /* inHz=  75, windSpeed=3.7, outHz= 4.4 */ 
.................... 	 2255, /* inHz=  76, windSpeed=3.7, outHz= 4.4 */ 
.................... 	 2225, /* inHz=  77, windSpeed=3.8, outHz= 4.5 */ 
.................... 	 2196, /* inHz=  78, windSpeed=3.8, outHz= 4.6 */ 
.................... 	 2167, /* inHz=  79, windSpeed=3.9, outHz= 4.6 */ 
.................... 	 2139, /* inHz=  80, windSpeed=3.9, outHz= 4.7 */ 
.................... 	 2112, /* inHz=  81, windSpeed=4.0, outHz= 4.7 */ 
.................... 	 2085, /* inHz=  82, windSpeed=4.0, outHz= 4.8 */ 
.................... 	 2060, /* inHz=  83, windSpeed=4.1, outHz= 4.9 */ 
.................... 	 2034, /* inHz=  84, windSpeed=4.1, outHz= 4.9 */ 
.................... 	 2010, /* inHz=  85, windSpeed=4.2, outHz= 5.0 */ 
.................... 	 1986, /* inHz=  86, windSpeed=4.2, outHz= 5.0 */ 
.................... 	 1962, /* inHz=  87, windSpeed=4.2, outHz= 5.1 */ 
.................... 	 1940, /* inHz=  88, windSpeed=4.3, outHz= 5.2 */ 
.................... 	 1917, /* inHz=  89, windSpeed=4.3, outHz= 5.2 */ 
.................... 	 1895, /* inHz=  90, windSpeed=4.4, outHz= 5.3 */ 
.................... 	 1874, /* inHz=  91, windSpeed=4.4, outHz= 5.3 */ 
.................... 	 1853, /* inHz=  92, windSpeed=4.5, outHz= 5.4 */ 
.................... 	 1833, /* inHz=  93, windSpeed=4.5, outHz= 5.5 */ 
.................... 	 1813, /* inHz=  94, windSpeed=4.6, outHz= 5.5 */ 
.................... 	 1793, /* inHz=  95, windSpeed=4.6, outHz= 5.6 */ 
.................... 	 1774, /* inHz=  96, windSpeed=4.7, outHz= 5.6 */ 
.................... 	 1755, /* inHz=  97, windSpeed=4.7, outHz= 5.7 */ 
.................... 	 1737, /* inHz=  98, windSpeed=4.8, outHz= 5.8 */ 
.................... 	 1719, /* inHz=  99, windSpeed=4.8, outHz= 5.8 */ 
.................... 	 1702, /* inHz= 100, windSpeed=4.8, outHz= 5.9 */ 
.................... 	 1684, /* inHz= 101, windSpeed=4.9, outHz= 5.9 */ 
.................... 	 1667, /* inHz= 102, windSpeed=4.9, outHz= 6.0 */ 
.................... 	 1651, /* inHz= 103, windSpeed=5.0, outHz= 6.1 */ 
.................... 	 1635, /* inHz= 104, windSpeed=5.0, outHz= 6.1 */ 
.................... 	 1619, /* inHz= 105, windSpeed=5.1, outHz= 6.2 */ 
.................... 	 1603, /* inHz= 106, windSpeed=5.1, outHz= 6.2 */ 
.................... 	 1588, /* inHz= 107, windSpeed=5.2, outHz= 6.3 */ 
.................... 	 1573, /* inHz= 108, windSpeed=5.2, outHz= 6.4 */ 
.................... 	 1558, /* inHz= 109, windSpeed=5.3, outHz= 6.4 */ 
.................... 	 1544, /* inHz= 110, windSpeed=5.3, outHz= 6.5 */ 
.................... 	 1529, /* inHz= 111, windSpeed=5.4, outHz= 6.5 */ 
.................... 	 1516, /* inHz= 112, windSpeed=5.4, outHz= 6.6 */ 
.................... 	 1502, /* inHz= 113, windSpeed=5.4, outHz= 6.7 */ 
.................... 	 1488, /* inHz= 114, windSpeed=5.5, outHz= 6.7 */ 
.................... 	 1475, /* inHz= 115, windSpeed=5.5, outHz= 6.8 */ 
.................... 	 1462, /* inHz= 116, windSpeed=5.6, outHz= 6.8 */ 
.................... 	 1450, /* inHz= 117, windSpeed=5.6, outHz= 6.9 */ 
.................... 	 1437, /* inHz= 118, windSpeed=5.7, outHz= 7.0 */ 
.................... 	 1425, /* inHz= 119, windSpeed=5.7, outHz= 7.0 */ 
.................... 	 1413, /* inHz= 120, windSpeed=5.8, outHz= 7.1 */ 
.................... 	 1401, /* inHz= 121, windSpeed=5.8, outHz= 7.1 */ 
.................... 	 1389, /* inHz= 122, windSpeed=5.9, outHz= 7.2 */ 
.................... 	 1378, /* inHz= 123, windSpeed=5.9, outHz= 7.3 */ 
.................... 	 1366, /* inHz= 124, windSpeed=5.9, outHz= 7.3 */ 
.................... 	 1355, /* inHz= 125, windSpeed=6.0, outHz= 7.4 */ 
.................... 	 1344, /* inHz= 126, windSpeed=6.0, outHz= 7.4 */ 
.................... 	 1333, /* inHz= 127, windSpeed=6.1, outHz= 7.5 */ 
.................... 	 1323, /* inHz= 128, windSpeed=6.1, outHz= 7.6 */ 
.................... 	 1312, /* inHz= 129, windSpeed=6.2, outHz= 7.6 */ 
.................... 	 1302, /* inHz= 130, windSpeed=6.2, outHz= 7.7 */ 
.................... 	 1292, /* inHz= 131, windSpeed=6.3, outHz= 7.7 */ 
.................... 	 1282, /* inHz= 132, windSpeed=6.3, outHz= 7.8 */ 
.................... 	 1272, /* inHz= 133, windSpeed=6.4, outHz= 7.9 */ 
.................... 	 1263, /* inHz= 134, windSpeed=6.4, outHz= 7.9 */ 
.................... 	 1253, /* inHz= 135, windSpeed=6.5, outHz= 8.0 */ 
.................... 	 1244, /* inHz= 136, windSpeed=6.5, outHz= 8.0 */ 
.................... 	 1234, /* inHz= 137, windSpeed=6.5, outHz= 8.1 */ 
.................... 	 1225, /* inHz= 138, windSpeed=6.6, outHz= 8.2 */ 
.................... 	 1216, /* inHz= 139, windSpeed=6.6, outHz= 8.2 */ 
.................... 	 1208, /* inHz= 140, windSpeed=6.7, outHz= 8.3 */ 
.................... 	 1199, /* inHz= 141, windSpeed=6.7, outHz= 8.3 */ 
.................... 	 1190, /* inHz= 142, windSpeed=6.8, outHz= 8.4 */ 
.................... 	 1182, /* inHz= 143, windSpeed=6.8, outHz= 8.5 */ 
.................... 	 1173, /* inHz= 144, windSpeed=6.9, outHz= 8.5 */ 
.................... 	 1165, /* inHz= 145, windSpeed=6.9, outHz= 8.6 */ 
.................... 	 1157, /* inHz= 146, windSpeed=7.0, outHz= 8.6 */ 
.................... 	 1149, /* inHz= 147, windSpeed=7.0, outHz= 8.7 */ 
.................... 	 1141, /* inHz= 148, windSpeed=7.1, outHz= 8.8 */ 
.................... 	 1134, /* inHz= 149, windSpeed=7.1, outHz= 8.8 */ 
.................... 	 1126, /* inHz= 150, windSpeed=7.1, outHz= 8.9 */ 
.................... 	 1118, /* inHz= 151, windSpeed=7.2, outHz= 8.9 */ 
.................... 	 1111, /* inHz= 152, windSpeed=7.2, outHz= 9.0 */ 
.................... 	 1103, /* inHz= 153, windSpeed=7.3, outHz= 9.1 */ 
.................... 	 1096, /* inHz= 154, windSpeed=7.3, outHz= 9.1 */ 
.................... 	 1089, /* inHz= 155, windSpeed=7.4, outHz= 9.2 */ 
.................... 	 1082, /* inHz= 156, windSpeed=7.4, outHz= 9.2 */ 
.................... 	 1075, /* inHz= 157, windSpeed=7.5, outHz= 9.3 */ 
.................... 	 1068, /* inHz= 158, windSpeed=7.5, outHz= 9.4 */ 
.................... 	 1061, /* inHz= 159, windSpeed=7.6, outHz= 9.4 */ 
.................... 	 1054, /* inHz= 160, windSpeed=7.6, outHz= 9.5 */ 
.................... 	 1048, /* inHz= 161, windSpeed=7.7, outHz= 9.5 */ 
.................... 	 1041, /* inHz= 162, windSpeed=7.7, outHz= 9.6 */ 
.................... 	 1035, /* inHz= 163, windSpeed=7.7, outHz= 9.7 */ 
.................... 	 1028, /* inHz= 164, windSpeed=7.8, outHz= 9.7 */ 
.................... 	 1022, /* inHz= 165, windSpeed=7.8, outHz= 9.8 */ 
.................... 	 1016, /* inHz= 166, windSpeed=7.9, outHz= 9.8 */ 
.................... 	 1010, /* inHz= 167, windSpeed=7.9, outHz= 9.9 */ 
.................... 	 1004, /* inHz= 168, windSpeed=8.0, outHz=10.0 */ 
.................... 	  998, /* inHz= 169, windSpeed=8.0, outHz=10.0 */ 
.................... 	  992, /* inHz= 170, windSpeed=8.1, outHz=10.1 */ 
.................... 	  986, /* inHz= 171, windSpeed=8.1, outHz=10.1 */ 
.................... 	  980, /* inHz= 172, windSpeed=8.2, outHz=10.2 */ 
.................... 	  974, /* inHz= 173, windSpeed=8.2, outHz=10.3 */ 
.................... 	  969, /* inHz= 174, windSpeed=8.2, outHz=10.3 */ 
.................... 	  963, /* inHz= 175, windSpeed=8.3, outHz=10.4 */ 
.................... 	  957, /* inHz= 176, windSpeed=8.3, outHz=10.4 */ 
.................... 	  952, /* inHz= 177, windSpeed=8.4, outHz=10.5 */ 
.................... 	  947, /* inHz= 178, windSpeed=8.4, outHz=10.6 */ 
.................... 	  941, /* inHz= 179, windSpeed=8.5, outHz=10.6 */ 
.................... 	  936, /* inHz= 180, windSpeed=8.5, outHz=10.7 */ 
.................... 	  931, /* inHz= 181, windSpeed=8.6, outHz=10.7 */ 
.................... 	  925, /* inHz= 182, windSpeed=8.6, outHz=10.8 */ 
.................... 	  920, /* inHz= 183, windSpeed=8.7, outHz=10.9 */ 
.................... 	  915, /* inHz= 184, windSpeed=8.7, outHz=10.9 */ 
.................... 	  910, /* inHz= 185, windSpeed=8.8, outHz=11.0 */ 
.................... 	  905, /* inHz= 186, windSpeed=8.8, outHz=11.0 */ 
.................... 	  900, /* inHz= 187, windSpeed=8.8, outHz=11.1 */ 
.................... 	  896, /* inHz= 188, windSpeed=8.9, outHz=11.2 */ 
.................... 	  891, /* inHz= 189, windSpeed=8.9, outHz=11.2 */ 
.................... 	  886, /* inHz= 190, windSpeed=9.0, outHz=11.3 */ 
.................... 	  881, /* inHz= 191, windSpeed=9.0, outHz=11.3 */ 
.................... 	  877, /* inHz= 192, windSpeed=9.1, outHz=11.4 */ 
.................... 	  872, /* inHz= 193, windSpeed=9.1, outHz=11.5 */ 
.................... 	  868, /* inHz= 194, windSpeed=9.2, outHz=11.5 */ 
.................... 	  863, /* inHz= 195, windSpeed=9.2, outHz=11.6 */ 
.................... 	  859, /* inHz= 196, windSpeed=9.3, outHz=11.6 */ 
.................... 	  854, /* inHz= 197, windSpeed=9.3, outHz=11.7 */ 
.................... 	  850, /* inHz= 198, windSpeed=9.4, outHz=11.8 */ 
.................... 	  846, /* inHz= 199, windSpeed=9.4, outHz=11.8 */ 
.................... 	  841, /* inHz= 200, windSpeed=9.4, outHz=11.9 */ 
.................... 	  837, /* inHz= 201, windSpeed=9.5, outHz=11.9 */ 
.................... 	  833, /* inHz= 202, windSpeed=9.5, outHz=12.0 */ 
.................... 	  829, /* inHz= 203, windSpeed=9.6, outHz=12.1 */ 
.................... 	  825, /* inHz= 204, windSpeed=9.6, outHz=12.1 */ 
.................... 	  820, /* inHz= 205, windSpeed=9.7, outHz=12.2 */ 
.................... 	  816, /* inHz= 206, windSpeed=9.7, outHz=12.2 */ 
.................... 	  812, /* inHz= 207, windSpeed=9.8, outHz=12.3 */ 
.................... 	  809, /* inHz= 208, windSpeed=9.8, outHz=12.4 */ 
.................... 	  805, /* inHz= 209, windSpeed=9.9, outHz=12.4 */ 
.................... 	  801, /* inHz= 210, windSpeed=9.9, outHz=12.5 */ 
.................... 	  797, /* inHz= 211, windSpeed=9.9, outHz=12.5 */ 
.................... 	  793, /* inHz= 212, windSpeed=10.0, outHz=12.6 */ 
.................... 	  789, /* inHz= 213, windSpeed=10.0, outHz=12.7 */ 
.................... 	  786, /* inHz= 214, windSpeed=10.1, outHz=12.7 */ 
.................... 	  782, /* inHz= 215, windSpeed=10.1, outHz=12.8 */ 
.................... 	  778, /* inHz= 216, windSpeed=10.2, outHz=12.8 */ 
.................... 	  775, /* inHz= 217, windSpeed=10.2, outHz=12.9 */ 
.................... 	  771, /* inHz= 218, windSpeed=10.3, outHz=13.0 */ 
.................... 	  767, /* inHz= 219, windSpeed=10.3, outHz=13.0 */ 
.................... 	  764, /* inHz= 220, windSpeed=10.4, outHz=13.1 */ 
.................... 	  760, /* inHz= 221, windSpeed=10.4, outHz=13.1 */ 
.................... 	  757, /* inHz= 222, windSpeed=10.5, outHz=13.2 */ 
.................... 	  754, /* inHz= 223, windSpeed=10.5, outHz=13.3 */ 
.................... 	  750, /* inHz= 224, windSpeed=10.5, outHz=13.3 */ 
.................... 	  747, /* inHz= 225, windSpeed=10.6, outHz=13.4 */ 
.................... 	  743, /* inHz= 226, windSpeed=10.6, outHz=13.5 */ 
.................... 	  740, /* inHz= 227, windSpeed=10.7, outHz=13.5 */ 
.................... 	  737, /* inHz= 228, windSpeed=10.7, outHz=13.6 */ 
.................... 	  734, /* inHz= 229, windSpeed=10.8, outHz=13.6 */ 
.................... 	  730, /* inHz= 230, windSpeed=10.8, outHz=13.7 */ 
.................... 	  727, /* inHz= 231, windSpeed=10.9, outHz=13.8 */ 
.................... 	  724, /* inHz= 232, windSpeed=10.9, outHz=13.8 */ 
.................... 	  721, /* inHz= 233, windSpeed=11.0, outHz=13.9 */ 
.................... 	  718, /* inHz= 234, windSpeed=11.0, outHz=13.9 */ 
.................... 	  715, /* inHz= 235, windSpeed=11.1, outHz=14.0 */ 
.................... 	  712, /* inHz= 236, windSpeed=11.1, outHz=14.1 */ 
.................... 	  709, /* inHz= 237, windSpeed=11.1, outHz=14.1 */ 
.................... 	  706, /* inHz= 238, windSpeed=11.2, outHz=14.2 */ 
.................... 	  703, /* inHz= 239, windSpeed=11.2, outHz=14.2 */ 
.................... 	  700, /* inHz= 240, windSpeed=11.3, outHz=14.3 */ 
.................... 	  697, /* inHz= 241, windSpeed=11.3, outHz=14.4 */ 
.................... 	  694, /* inHz= 242, windSpeed=11.4, outHz=14.4 */ 
.................... 	  691, /* inHz= 243, windSpeed=11.4, outHz=14.5 */ 
.................... 	  688, /* inHz= 244, windSpeed=11.5, outHz=14.5 */ 
.................... 	  685, /* inHz= 245, windSpeed=11.5, outHz=14.6 */ 
.................... 	  682, /* inHz= 246, windSpeed=11.6, outHz=14.7 */ 
.................... 	  680, /* inHz= 247, windSpeed=11.6, outHz=14.7 */ 
.................... 	  677, /* inHz= 248, windSpeed=11.7, outHz=14.8 */ 
.................... 	  674, /* inHz= 249, windSpeed=11.7, outHz=14.8 */ 
.................... 	  671, /* inHz= 250, windSpeed=11.7, outHz=14.9 */ 
.................... 	  669, /* inHz= 251, windSpeed=11.8, outHz=15.0 */ 
.................... 	  666, /* inHz= 252, windSpeed=11.8, outHz=15.0 */ 
.................... 	  663, /* inHz= 253, windSpeed=11.9, outHz=15.1 */ 
.................... 	  661, /* inHz= 254, windSpeed=11.9, outHz=15.1 */ 
.................... 	  658, /* inHz= 255, windSpeed=12.0, outHz=15.2 */ 
.................... 	  656, /* inHz= 256, windSpeed=12.0, outHz=15.3 */ 
.................... 	  653, /* inHz= 257, windSpeed=12.1, outHz=15.3 */ 
.................... 	  650, /* inHz= 258, windSpeed=12.1, outHz=15.4 */ 
.................... 	  648, /* inHz= 259, windSpeed=12.2, outHz=15.4 */ 
.................... 	  645, /* inHz= 260, windSpeed=12.2, outHz=15.5 */ 
.................... 	  643, /* inHz= 261, windSpeed=12.2, outHz=15.6 */ 
.................... 	  640, /* inHz= 262, windSpeed=12.3, outHz=15.6 */ 
.................... 	  638, /* inHz= 263, windSpeed=12.3, outHz=15.7 */ 
.................... 	  636, /* inHz= 264, windSpeed=12.4, outHz=15.7 */ 
.................... 	  633, /* inHz= 265, windSpeed=12.4, outHz=15.8 */ 
.................... 	  631, /* inHz= 266, windSpeed=12.5, outHz=15.9 */ 
.................... 	  628, /* inHz= 267, windSpeed=12.5, outHz=15.9 */ 
.................... 	  626, /* inHz= 268, windSpeed=12.6, outHz=16.0 */ 
.................... 	  624, /* inHz= 269, windSpeed=12.6, outHz=16.0 */ 
.................... 	  621, /* inHz= 270, windSpeed=12.7, outHz=16.1 */ 
.................... 	  619, /* inHz= 271, windSpeed=12.7, outHz=16.2 */ 
.................... 	  617, /* inHz= 272, windSpeed=12.8, outHz=16.2 */ 
.................... 	  614, /* inHz= 273, windSpeed=12.8, outHz=16.3 */ 
.................... 	  612, /* inHz= 274, windSpeed=12.8, outHz=16.3 */ 
.................... 	  610, /* inHz= 275, windSpeed=12.9, outHz=16.4 */ 
.................... 	  608, /* inHz= 276, windSpeed=12.9, outHz=16.5 */ 
.................... 	  605, /* inHz= 277, windSpeed=13.0, outHz=16.5 */ 
.................... 	  603, /* inHz= 278, windSpeed=13.0, outHz=16.6 */ 
.................... 	  601, /* inHz= 279, windSpeed=13.1, outHz=16.6 */ 
.................... 	  599, /* inHz= 280, windSpeed=13.1, outHz=16.7 */ 
.................... 	  597, /* inHz= 281, windSpeed=13.2, outHz=16.8 */ 
.................... 	  595, /* inHz= 282, windSpeed=13.2, outHz=16.8 */ 
.................... 	  593, /* inHz= 283, windSpeed=13.3, outHz=16.9 */ 
.................... 	  590, /* inHz= 284, windSpeed=13.3, outHz=16.9 */ 
.................... 	  588, /* inHz= 285, windSpeed=13.4, outHz=17.0 */ 
.................... 	  586, /* inHz= 286, windSpeed=13.4, outHz=17.1 */ 
.................... 	  584, /* inHz= 287, windSpeed=13.4, outHz=17.1 */ 
.................... 	  582, /* inHz= 288, windSpeed=13.5, outHz=17.2 */ 
.................... 	  580, /* inHz= 289, windSpeed=13.5, outHz=17.2 */ 
.................... 	  578, /* inHz= 290, windSpeed=13.6, outHz=17.3 */ 
.................... 	  576, /* inHz= 291, windSpeed=13.6, outHz=17.4 */ 
.................... 	  574, /* inHz= 292, windSpeed=13.7, outHz=17.4 */ 
.................... 	  572, /* inHz= 293, windSpeed=13.7, outHz=17.5 */ 
.................... 	  570, /* inHz= 294, windSpeed=13.8, outHz=17.5 */ 
.................... 	  568, /* inHz= 295, windSpeed=13.8, outHz=17.6 */ 
.................... 	  566, /* inHz= 296, windSpeed=13.9, outHz=17.7 */ 
.................... 	  564, /* inHz= 297, windSpeed=13.9, outHz=17.7 */ 
.................... 	  563, /* inHz= 298, windSpeed=13.9, outHz=17.8 */ 
.................... 	  561, /* inHz= 299, windSpeed=14.0, outHz=17.8 */ 
.................... 	  559, /* inHz= 300, windSpeed=14.0, outHz=17.9 */ 
.................... 	  557, /* inHz= 301, windSpeed=14.1, outHz=18.0 */ 
.................... 	  555, /* inHz= 302, windSpeed=14.1, outHz=18.0 */ 
.................... 	  553, /* inHz= 303, windSpeed=14.2, outHz=18.1 */ 
.................... 	  551, /* inHz= 304, windSpeed=14.2, outHz=18.1 */ 
.................... 	  549, /* inHz= 305, windSpeed=14.3, outHz=18.2 */ 
.................... 	  548, /* inHz= 306, windSpeed=14.3, outHz=18.3 */ 
.................... 	  546, /* inHz= 307, windSpeed=14.4, outHz=18.3 */ 
.................... 	  544, /* inHz= 308, windSpeed=14.4, outHz=18.4 */ 
.................... 	  542, /* inHz= 309, windSpeed=14.5, outHz=18.4 */ 
.................... 	  541, /* inHz= 310, windSpeed=14.5, outHz=18.5 */ 
.................... 	  539, /* inHz= 311, windSpeed=14.5, outHz=18.6 */ 
.................... 	  537, /* inHz= 312, windSpeed=14.6, outHz=18.6 */ 
.................... 	  535, /* inHz= 313, windSpeed=14.6, outHz=18.7 */ 
.................... 	  534, /* inHz= 314, windSpeed=14.7, outHz=18.7 */ 
.................... 	  532, /* inHz= 315, windSpeed=14.7, outHz=18.8 */ 
.................... 	  530, /* inHz= 316, windSpeed=14.8, outHz=18.9 */ 
.................... 	  529, /* inHz= 317, windSpeed=14.8, outHz=18.9 */ 
.................... 	  527, /* inHz= 318, windSpeed=14.9, outHz=19.0 */ 
.................... 	  525, /* inHz= 319, windSpeed=14.9, outHz=19.0 */ 
.................... 	  524, /* inHz= 320, windSpeed=15.0, outHz=19.1 */ 
.................... 	  522, /* inHz= 321, windSpeed=15.0, outHz=19.2 */ 
.................... 	  520, /* inHz= 322, windSpeed=15.1, outHz=19.2 */ 
.................... 	  519, /* inHz= 323, windSpeed=15.1, outHz=19.3 */ 
.................... 	  517, /* inHz= 324, windSpeed=15.1, outHz=19.3 */ 
.................... 	  515, /* inHz= 325, windSpeed=15.2, outHz=19.4 */ 
.................... 	  514, /* inHz= 326, windSpeed=15.2, outHz=19.5 */ 
.................... 	  512, /* inHz= 327, windSpeed=15.3, outHz=19.5 */ 
.................... 	  511, /* inHz= 328, windSpeed=15.3, outHz=19.6 */ 
.................... 	  509, /* inHz= 329, windSpeed=15.4, outHz=19.6 */ 
.................... 	  508, /* inHz= 330, windSpeed=15.4, outHz=19.7 */ 
.................... 	  506, /* inHz= 331, windSpeed=15.5, outHz=19.8 */ 
.................... 	  505, /* inHz= 332, windSpeed=15.5, outHz=19.8 */ 
.................... 	  503, /* inHz= 333, windSpeed=15.6, outHz=19.9 */ 
.................... 	  501, /* inHz= 334, windSpeed=15.6, outHz=19.9 */ 
.................... 	  500, /* inHz= 335, windSpeed=15.7, outHz=20.0 */ 
.................... 	  498, /* inHz= 336, windSpeed=15.7, outHz=20.1 */ 
.................... 	  497, /* inHz= 337, windSpeed=15.7, outHz=20.1 */ 
.................... 	  495, /* inHz= 338, windSpeed=15.8, outHz=20.2 */ 
.................... 	  494, /* inHz= 339, windSpeed=15.8, outHz=20.2 */ 
.................... 	  493, /* inHz= 340, windSpeed=15.9, outHz=20.3 */ 
.................... 	  491, /* inHz= 341, windSpeed=15.9, outHz=20.4 */ 
.................... 	  490, /* inHz= 342, windSpeed=16.0, outHz=20.4 */ 
.................... 	  488, /* inHz= 343, windSpeed=16.0, outHz=20.5 */ 
.................... 	  487, /* inHz= 344, windSpeed=16.1, outHz=20.5 */ 
.................... 	  485, /* inHz= 345, windSpeed=16.1, outHz=20.6 */ 
.................... 	  484, /* inHz= 346, windSpeed=16.2, outHz=20.7 */ 
.................... 	  483, /* inHz= 347, windSpeed=16.2, outHz=20.7 */ 
.................... 	  481, /* inHz= 348, windSpeed=16.2, outHz=20.8 */ 
.................... 	  480, /* inHz= 349, windSpeed=16.3, outHz=20.8 */ 
.................... 	  478, /* inHz= 350, windSpeed=16.3, outHz=20.9 */ 
.................... 	  477, /* inHz= 351, windSpeed=16.4, outHz=21.0 */ 
.................... 	  476, /* inHz= 352, windSpeed=16.4, outHz=21.0 */ 
.................... 	  474, /* inHz= 353, windSpeed=16.5, outHz=21.1 */ 
.................... 	  473, /* inHz= 354, windSpeed=16.5, outHz=21.1 */ 
.................... 	  472, /* inHz= 355, windSpeed=16.6, outHz=21.2 */ 
.................... 	  470, /* inHz= 356, windSpeed=16.6, outHz=21.3 */ 
.................... 	  469, /* inHz= 357, windSpeed=16.7, outHz=21.3 */ 
.................... 	  468, /* inHz= 358, windSpeed=16.7, outHz=21.4 */ 
.................... 	  466, /* inHz= 359, windSpeed=16.8, outHz=21.4 */ 
.................... 	  465, /* inHz= 360, windSpeed=16.8, outHz=21.5 */ 
.................... 	  464, /* inHz= 361, windSpeed=16.8, outHz=21.6 */ 
.................... 	  462, /* inHz= 362, windSpeed=16.9, outHz=21.6 */ 
.................... 	  461, /* inHz= 363, windSpeed=16.9, outHz=21.7 */ 
.................... 	  460, /* inHz= 364, windSpeed=17.0, outHz=21.7 */ 
.................... 	  459, /* inHz= 365, windSpeed=17.0, outHz=21.8 */ 
.................... 	  457, /* inHz= 366, windSpeed=17.1, outHz=21.9 */ 
.................... 	  456, /* inHz= 367, windSpeed=17.1, outHz=21.9 */ 
.................... 	  455, /* inHz= 368, windSpeed=17.2, outHz=22.0 */ 
.................... 	  454, /* inHz= 369, windSpeed=17.2, outHz=22.0 */ 
.................... 	  452, /* inHz= 370, windSpeed=17.3, outHz=22.1 */ 
.................... 	  451, /* inHz= 371, windSpeed=17.3, outHz=22.2 */ 
.................... 	  450, /* inHz= 372, windSpeed=17.4, outHz=22.2 */ 
.................... 	  449, /* inHz= 373, windSpeed=17.4, outHz=22.3 */ 
.................... 	  448, /* inHz= 374, windSpeed=17.4, outHz=22.3 */ 
.................... 	  446, /* inHz= 375, windSpeed=17.5, outHz=22.4 */ 
.................... 	  445, /* inHz= 376, windSpeed=17.5, outHz=22.5 */ 
.................... 	  444, /* inHz= 377, windSpeed=17.6, outHz=22.5 */ 
.................... 	  443, /* inHz= 378, windSpeed=17.6, outHz=22.6 */ 
.................... 	  442, /* inHz= 379, windSpeed=17.7, outHz=22.6 */ 
.................... 	  440, /* inHz= 380, windSpeed=17.7, outHz=22.7 */ 
.................... 	  439, /* inHz= 381, windSpeed=17.8, outHz=22.8 */ 
.................... 	  438, /* inHz= 382, windSpeed=17.8, outHz=22.8 */ 
.................... 	  437, /* inHz= 383, windSpeed=17.9, outHz=22.9 */ 
.................... 	  436, /* inHz= 384, windSpeed=17.9, outHz=22.9 */ 
.................... 	  435, /* inHz= 385, windSpeed=18.0, outHz=23.0 */ 
.................... 	  434, /* inHz= 386, windSpeed=18.0, outHz=23.1 */ 
.................... 	  432, /* inHz= 387, windSpeed=18.0, outHz=23.1 */ 
.................... 	  431, /* inHz= 388, windSpeed=18.1, outHz=23.2 */ 
.................... 	  430, /* inHz= 389, windSpeed=18.1, outHz=23.2 */ 
.................... 	  429, /* inHz= 390, windSpeed=18.2, outHz=23.3 */ 
.................... 	  428, /* inHz= 391, windSpeed=18.2, outHz=23.4 */ 
.................... 	  427, /* inHz= 392, windSpeed=18.3, outHz=23.4 */ 
.................... 	  426, /* inHz= 393, windSpeed=18.3, outHz=23.5 */ 
.................... 	  425, /* inHz= 394, windSpeed=18.4, outHz=23.5 */ 
.................... 	  424, /* inHz= 395, windSpeed=18.4, outHz=23.6 */ 
.................... 	  423, /* inHz= 396, windSpeed=18.5, outHz=23.7 */ 
.................... 	  421, /* inHz= 397, windSpeed=18.5, outHz=23.7 */ 
.................... 	  420, /* inHz= 398, windSpeed=18.5, outHz=23.8 */ 
.................... 	  419, /* inHz= 399, windSpeed=18.6, outHz=23.8 */ 
.................... 	  418, /* inHz= 400, windSpeed=18.6, outHz=23.9 */ 
.................... 	  417, /* inHz= 401, windSpeed=18.7, outHz=24.0 */ 
.................... 	  416, /* inHz= 402, windSpeed=18.7, outHz=24.0 */ 
.................... 	  415, /* inHz= 403, windSpeed=18.8, outHz=24.1 */ 
.................... 	  414, /* inHz= 404, windSpeed=18.8, outHz=24.1 */ 
.................... 	  413, /* inHz= 405, windSpeed=18.9, outHz=24.2 */ 
.................... 	  412, /* inHz= 406, windSpeed=18.9, outHz=24.3 */ 
.................... 	  411, /* inHz= 407, windSpeed=19.0, outHz=24.3 */ 
.................... 	  410, /* inHz= 408, windSpeed=19.0, outHz=24.4 */ 
.................... 	  409, /* inHz= 409, windSpeed=19.1, outHz=24.4 */ 
.................... 	  408, /* inHz= 410, windSpeed=19.1, outHz=24.5 */ 
.................... 	  407, /* inHz= 411, windSpeed=19.1, outHz=24.6 */ 
.................... 	  406, /* inHz= 412, windSpeed=19.2, outHz=24.6 */ 
.................... 	  405, /* inHz= 413, windSpeed=19.2, outHz=24.7 */ 
.................... 	  404, /* inHz= 414, windSpeed=19.3, outHz=24.7 */ 
.................... 	  403, /* inHz= 415, windSpeed=19.3, outHz=24.8 */ 
.................... 	  402, /* inHz= 416, windSpeed=19.4, outHz=24.9 */ 
.................... 	  401, /* inHz= 417, windSpeed=19.4, outHz=24.9 */ 
.................... 	  400, /* inHz= 418, windSpeed=19.5, outHz=25.0 */ 
.................... 	  399, /* inHz= 419, windSpeed=19.5, outHz=25.1 */ 
.................... 	  398, /* inHz= 420, windSpeed=19.6, outHz=25.1 */ 
.................... 	  397, /* inHz= 421, windSpeed=19.6, outHz=25.2 */ 
.................... 	  396, /* inHz= 422, windSpeed=19.7, outHz=25.2 */ 
.................... 	  395, /* inHz= 423, windSpeed=19.7, outHz=25.3 */ 
.................... 	  394, /* inHz= 424, windSpeed=19.7, outHz=25.4 */ 
.................... 	  394, /* inHz= 425, windSpeed=19.8, outHz=25.4 */ 
.................... 	  393, /* inHz= 426, windSpeed=19.8, outHz=25.5 */ 
.................... 	  392, /* inHz= 427, windSpeed=19.9, outHz=25.5 */ 
.................... 	  391, /* inHz= 428, windSpeed=19.9, outHz=25.6 */ 
.................... 	  390, /* inHz= 429, windSpeed=20.0, outHz=25.7 */ 
.................... 	  389, /* inHz= 430, windSpeed=20.0, outHz=25.7 */ 
.................... 	  388, /* inHz= 431, windSpeed=20.1, outHz=25.8 */ 
.................... 	  387, /* inHz= 432, windSpeed=20.1, outHz=25.8 */ 
.................... 	  386, /* inHz= 433, windSpeed=20.2, outHz=25.9 */ 
.................... 	  385, /* inHz= 434, windSpeed=20.2, outHz=26.0 */ 
.................... 	  384, /* inHz= 435, windSpeed=20.2, outHz=26.0 */ 
.................... 	  384, /* inHz= 436, windSpeed=20.3, outHz=26.1 */ 
.................... 	  383, /* inHz= 437, windSpeed=20.3, outHz=26.1 */ 
.................... 	  382, /* inHz= 438, windSpeed=20.4, outHz=26.2 */ 
.................... 	  381, /* inHz= 439, windSpeed=20.4, outHz=26.3 */ 
.................... 	  380, /* inHz= 440, windSpeed=20.5, outHz=26.3 */ 
.................... 	  379, /* inHz= 441, windSpeed=20.5, outHz=26.4 */ 
.................... 	  378, /* inHz= 442, windSpeed=20.6, outHz=26.4 */ 
.................... 	  377, /* inHz= 443, windSpeed=20.6, outHz=26.5 */ 
.................... 	  377, /* inHz= 444, windSpeed=20.7, outHz=26.6 */ 
.................... 	  376, /* inHz= 445, windSpeed=20.7, outHz=26.6 */ 
.................... 	  375, /* inHz= 446, windSpeed=20.8, outHz=26.7 */ 
.................... 	  374, /* inHz= 447, windSpeed=20.8, outHz=26.7 */ 
.................... 	  373, /* inHz= 448, windSpeed=20.8, outHz=26.8 */ 
.................... 	  372, /* inHz= 449, windSpeed=20.9, outHz=26.9 */ 
.................... 	  372, /* inHz= 450, windSpeed=20.9, outHz=26.9 */ 
.................... 	  371, /* inHz= 451, windSpeed=21.0, outHz=27.0 */ 
.................... 	  370, /* inHz= 452, windSpeed=21.0, outHz=27.0 */ 
.................... 	  369, /* inHz= 453, windSpeed=21.1, outHz=27.1 */ 
.................... 	  368, /* inHz= 454, windSpeed=21.1, outHz=27.2 */ 
.................... 	  367, /* inHz= 455, windSpeed=21.2, outHz=27.2 */ 
.................... 	  367, /* inHz= 456, windSpeed=21.2, outHz=27.3 */ 
.................... 	  366, /* inHz= 457, windSpeed=21.3, outHz=27.3 */ 
.................... 	  365, /* inHz= 458, windSpeed=21.3, outHz=27.4 */ 
.................... 	  364, /* inHz= 459, windSpeed=21.4, outHz=27.5 */ 
.................... 	  363, /* inHz= 460, windSpeed=21.4, outHz=27.5 */ 
.................... 	  363, /* inHz= 461, windSpeed=21.4, outHz=27.6 */ 
.................... 	  362, /* inHz= 462, windSpeed=21.5, outHz=27.6 */ 
.................... 	  361, /* inHz= 463, windSpeed=21.5, outHz=27.7 */ 
.................... 	  360, /* inHz= 464, windSpeed=21.6, outHz=27.8 */ 
.................... 	  360, /* inHz= 465, windSpeed=21.6, outHz=27.8 */ 
.................... 	  359, /* inHz= 466, windSpeed=21.7, outHz=27.9 */ 
.................... 	  358, /* inHz= 467, windSpeed=21.7, outHz=27.9 */ 
.................... 	  357, /* inHz= 468, windSpeed=21.8, outHz=28.0 */ 
.................... 	  356, /* inHz= 469, windSpeed=21.8, outHz=28.1 */ 
.................... 	  356, /* inHz= 470, windSpeed=21.9, outHz=28.1 */ 
.................... 	  355, /* inHz= 471, windSpeed=21.9, outHz=28.2 */ 
.................... 	  354, /* inHz= 472, windSpeed=22.0, outHz=28.2 */ 
.................... 	  353, /* inHz= 473, windSpeed=22.0, outHz=28.3 */ 
.................... 	  353, /* inHz= 474, windSpeed=22.0, outHz=28.4 */ 
.................... 	  352, /* inHz= 475, windSpeed=22.1, outHz=28.4 */ 
.................... 	  351, /* inHz= 476, windSpeed=22.1, outHz=28.5 */ 
.................... 	  350, /* inHz= 477, windSpeed=22.2, outHz=28.5 */ 
.................... 	  350, /* inHz= 478, windSpeed=22.2, outHz=28.6 */ 
.................... 	  349, /* inHz= 479, windSpeed=22.3, outHz=28.7 */ 
.................... 	  348, /* inHz= 480, windSpeed=22.3, outHz=28.7 */ 
.................... 	  348, /* inHz= 481, windSpeed=22.4, outHz=28.8 */ 
.................... 	  347, /* inHz= 482, windSpeed=22.4, outHz=28.8 */ 
.................... 	  346, /* inHz= 483, windSpeed=22.5, outHz=28.9 */ 
.................... 	  345, /* inHz= 484, windSpeed=22.5, outHz=29.0 */ 
.................... 	  345, /* inHz= 485, windSpeed=22.5, outHz=29.0 */ 
.................... 	  344, /* inHz= 486, windSpeed=22.6, outHz=29.1 */ 
.................... 	  343, /* inHz= 487, windSpeed=22.6, outHz=29.1 */ 
.................... 	  342, /* inHz= 488, windSpeed=22.7, outHz=29.2 */ 
.................... 	  342, /* inHz= 489, windSpeed=22.7, outHz=29.3 */ 
.................... 	  341, /* inHz= 490, windSpeed=22.8, outHz=29.3 */ 
.................... 	  340, /* inHz= 491, windSpeed=22.8, outHz=29.4 */ 
.................... 	  340, /* inHz= 492, windSpeed=22.9, outHz=29.4 */ 
.................... 	  339, /* inHz= 493, windSpeed=22.9, outHz=29.5 */ 
.................... 	  338, /* inHz= 494, windSpeed=23.0, outHz=29.6 */ 
.................... 	  338, /* inHz= 495, windSpeed=23.0, outHz=29.6 */ 
.................... 	  337, /* inHz= 496, windSpeed=23.1, outHz=29.7 */ 
.................... 	  336, /* inHz= 497, windSpeed=23.1, outHz=29.7 */ 
.................... 	  336, /* inHz= 498, windSpeed=23.1, outHz=29.8 */ 
.................... 	  335, /* inHz= 499, windSpeed=23.2, outHz=29.9 */ 
.................... 	  334, /* inHz= 500, windSpeed=23.2, outHz=29.9 */ 
.................... 	  334, /* inHz= 501, windSpeed=23.3, outHz=30.0 */ 
.................... 	  333, /* inHz= 502, windSpeed=23.3, outHz=30.0 */ 
.................... 	  332, /* inHz= 503, windSpeed=23.4, outHz=30.1 */ 
.................... 	  332, /* inHz= 504, windSpeed=23.4, outHz=30.2 */ 
.................... 	  331, /* inHz= 505, windSpeed=23.5, outHz=30.2 */ 
.................... 	  330, /* inHz= 506, windSpeed=23.5, outHz=30.3 */ 
.................... 	  330, /* inHz= 507, windSpeed=23.6, outHz=30.3 */ 
.................... 	  329, /* inHz= 508, windSpeed=23.6, outHz=30.4 */ 
.................... 	  328, /* inHz= 509, windSpeed=23.7, outHz=30.5 */ 
.................... 	  328, /* inHz= 510, windSpeed=23.7, outHz=30.5 */ 
.................... 	  327, /* inHz= 511, windSpeed=23.7, outHz=30.6 */ 
.................... 	  326, /* inHz= 512, windSpeed=23.8, outHz=30.6 */ 
.................... 	  326, /* inHz= 513, windSpeed=23.8, outHz=30.7 */ 
.................... 	  325, /* inHz= 514, windSpeed=23.9, outHz=30.8 */ 
.................... 	  324, /* inHz= 515, windSpeed=23.9, outHz=30.8 */ 
.................... 	  324, /* inHz= 516, windSpeed=24.0, outHz=30.9 */ 
.................... 	  323, /* inHz= 517, windSpeed=24.0, outHz=30.9 */ 
.................... 	  323, /* inHz= 518, windSpeed=24.1, outHz=31.0 */ 
.................... 	  322, /* inHz= 519, windSpeed=24.1, outHz=31.1 */ 
.................... 	  321, /* inHz= 520, windSpeed=24.2, outHz=31.1 */ 
.................... 	  321, /* inHz= 521, windSpeed=24.2, outHz=31.2 */ 
.................... 	  320, /* inHz= 522, windSpeed=24.2, outHz=31.2 */ 
.................... 	  319, /* inHz= 523, windSpeed=24.3, outHz=31.3 */ 
.................... 	  319, /* inHz= 524, windSpeed=24.3, outHz=31.4 */ 
.................... 	  318, /* inHz= 525, windSpeed=24.4, outHz=31.4 */ 
.................... 	  318, /* inHz= 526, windSpeed=24.4, outHz=31.5 */ 
.................... 	  317, /* inHz= 527, windSpeed=24.5, outHz=31.5 */ 
.................... 	  316, /* inHz= 528, windSpeed=24.5, outHz=31.6 */ 
.................... 	  316, /* inHz= 529, windSpeed=24.6, outHz=31.7 */ 
.................... 	  315, /* inHz= 530, windSpeed=24.6, outHz=31.7 */ 
.................... 	  315, /* inHz= 531, windSpeed=24.7, outHz=31.8 */ 
.................... 	  314, /* inHz= 532, windSpeed=24.7, outHz=31.8 */ 
.................... 	  313, /* inHz= 533, windSpeed=24.8, outHz=31.9 */ 
.................... 	  313, /* inHz= 534, windSpeed=24.8, outHz=32.0 */ 
.................... 	  312, /* inHz= 535, windSpeed=24.8, outHz=32.0 */ 
.................... 	  312, /* inHz= 536, windSpeed=24.9, outHz=32.1 */ 
.................... 	  311, /* inHz= 537, windSpeed=24.9, outHz=32.1 */ 
.................... 	  311, /* inHz= 538, windSpeed=25.0, outHz=32.2 */ 
.................... 	  310, /* inHz= 539, windSpeed=25.0, outHz=32.3 */ 
.................... 	  309, /* inHz= 540, windSpeed=25.1, outHz=32.3 */ 
.................... 	  309, /* inHz= 541, windSpeed=25.1, outHz=32.4 */ 
.................... 	  308, /* inHz= 542, windSpeed=25.2, outHz=32.4 */ 
.................... 	  308, /* inHz= 543, windSpeed=25.2, outHz=32.5 */ 
.................... 	  307, /* inHz= 544, windSpeed=25.3, outHz=32.6 */ 
.................... 	  307, /* inHz= 545, windSpeed=25.3, outHz=32.6 */ 
.................... 	  306, /* inHz= 546, windSpeed=25.4, outHz=32.7 */ 
.................... 	  305, /* inHz= 547, windSpeed=25.4, outHz=32.7 */ 
.................... 	  305, /* inHz= 548, windSpeed=25.4, outHz=32.8 */ 
.................... 	  304, /* inHz= 549, windSpeed=25.5, outHz=32.9 */ 
.................... 	  304, /* inHz= 550, windSpeed=25.5, outHz=32.9 */ 
.................... 	  303, /* inHz= 551, windSpeed=25.6, outHz=33.0 */ 
.................... 	  303, /* inHz= 552, windSpeed=25.6, outHz=33.0 */ 
.................... 	  302, /* inHz= 553, windSpeed=25.7, outHz=33.1 */ 
.................... 	  302, /* inHz= 554, windSpeed=25.7, outHz=33.2 */ 
.................... 	  301, /* inHz= 555, windSpeed=25.8, outHz=33.2 */ 
.................... 	  300, /* inHz= 556, windSpeed=25.8, outHz=33.3 */ 
.................... 	  300, /* inHz= 557, windSpeed=25.9, outHz=33.3 */ 
.................... 	  299, /* inHz= 558, windSpeed=25.9, outHz=33.4 */ 
.................... 	  299, /* inHz= 559, windSpeed=26.0, outHz=33.5 */ 
.................... 	  298, /* inHz= 560, windSpeed=26.0, outHz=33.5 */ 
.................... 	  298, /* inHz= 561, windSpeed=26.0, outHz=33.6 */ 
.................... 	  297, /* inHz= 562, windSpeed=26.1, outHz=33.6 */ 
.................... 	  297, /* inHz= 563, windSpeed=26.1, outHz=33.7 */ 
.................... 	  296, /* inHz= 564, windSpeed=26.2, outHz=33.8 */ 
.................... 	  296, /* inHz= 565, windSpeed=26.2, outHz=33.8 */ 
.................... 	  295, /* inHz= 566, windSpeed=26.3, outHz=33.9 */ 
.................... 	  295, /* inHz= 567, windSpeed=26.3, outHz=33.9 */ 
.................... 	  294, /* inHz= 568, windSpeed=26.4, outHz=34.0 */ 
.................... 	  294, /* inHz= 569, windSpeed=26.4, outHz=34.1 */ 
.................... 	  293, /* inHz= 570, windSpeed=26.5, outHz=34.1 */ 
.................... 	  293, /* inHz= 571, windSpeed=26.5, outHz=34.2 */ 
.................... 	  292, /* inHz= 572, windSpeed=26.5, outHz=34.2 */ 
.................... 	  291, /* inHz= 573, windSpeed=26.6, outHz=34.3 */ 
.................... 	  291, /* inHz= 574, windSpeed=26.6, outHz=34.4 */ 
.................... 	  290, /* inHz= 575, windSpeed=26.7, outHz=34.4 */ 
.................... 	  290, /* inHz= 576, windSpeed=26.7, outHz=34.5 */ 
.................... 	  289, /* inHz= 577, windSpeed=26.8, outHz=34.5 */ 
.................... 	  289, /* inHz= 578, windSpeed=26.8, outHz=34.6 */ 
.................... 	  288, /* inHz= 579, windSpeed=26.9, outHz=34.7 */ 
.................... 	  288, /* inHz= 580, windSpeed=26.9, outHz=34.7 */ 
.................... 	  287, /* inHz= 581, windSpeed=27.0, outHz=34.8 */ 
.................... 	  287, /* inHz= 582, windSpeed=27.0, outHz=34.8 */ 
.................... 	  286, /* inHz= 583, windSpeed=27.1, outHz=34.9 */ 
.................... 	  286, /* inHz= 584, windSpeed=27.1, outHz=35.0 */ 
.................... 	  285, /* inHz= 585, windSpeed=27.1, outHz=35.0 */ 
.................... 	  285, /* inHz= 586, windSpeed=27.2, outHz=35.1 */ 
.................... 	  285, /* inHz= 587, windSpeed=27.2, outHz=35.1 */ 
.................... 	  284, /* inHz= 588, windSpeed=27.3, outHz=35.2 */ 
.................... 	  284, /* inHz= 589, windSpeed=27.3, outHz=35.3 */ 
.................... 	  283, /* inHz= 590, windSpeed=27.4, outHz=35.3 */ 
.................... 	  283, /* inHz= 591, windSpeed=27.4, outHz=35.4 */ 
.................... 	  282, /* inHz= 592, windSpeed=27.5, outHz=35.4 */ 
.................... 	  282, /* inHz= 593, windSpeed=27.5, outHz=35.5 */ 
.................... 	  281, /* inHz= 594, windSpeed=27.6, outHz=35.6 */ 
.................... 	  281, /* inHz= 595, windSpeed=27.6, outHz=35.6 */ 
.................... 	  280, /* inHz= 596, windSpeed=27.7, outHz=35.7 */ 
.................... 	  280, /* inHz= 597, windSpeed=27.7, outHz=35.7 */ 
.................... 	  279, /* inHz= 598, windSpeed=27.7, outHz=35.8 */ 
.................... 	  279, /* inHz= 599, windSpeed=27.8, outHz=35.9 */ 
.................... 	  278, /* inHz= 600, windSpeed=27.8, outHz=35.9 */ 
.................... 	  278, /* inHz= 601, windSpeed=27.9, outHz=36.0 */ 
.................... 	  277, /* inHz= 602, windSpeed=27.9, outHz=36.0 */ 
.................... 	  277, /* inHz= 603, windSpeed=28.0, outHz=36.1 */ 
.................... 	  276, /* inHz= 604, windSpeed=28.0, outHz=36.2 */ 
.................... 	  276, /* inHz= 605, windSpeed=28.1, outHz=36.2 */ 
.................... 	  276, /* inHz= 606, windSpeed=28.1, outHz=36.3 */ 
.................... 	  275, /* inHz= 607, windSpeed=28.2, outHz=36.3 */ 
.................... 	  275, /* inHz= 608, windSpeed=28.2, outHz=36.4 */ 
.................... 	  274, /* inHz= 609, windSpeed=28.2, outHz=36.5 */ 
.................... 	  274, /* inHz= 610, windSpeed=28.3, outHz=36.5 */ 
.................... 	  273, /* inHz= 611, windSpeed=28.3, outHz=36.6 */ 
.................... 	  273, /* inHz= 612, windSpeed=28.4, outHz=36.7 */ 
.................... 	  272, /* inHz= 613, windSpeed=28.4, outHz=36.7 */ 
.................... 	  272, /* inHz= 614, windSpeed=28.5, outHz=36.8 */ 
.................... 	  272, /* inHz= 615, windSpeed=28.5, outHz=36.8 */ 
.................... 	  271, /* inHz= 616, windSpeed=28.6, outHz=36.9 */ 
.................... 	  271, /* inHz= 617, windSpeed=28.6, outHz=37.0 */ 
.................... 	  270, /* inHz= 618, windSpeed=28.7, outHz=37.0 */ 
.................... 	  270, /* inHz= 619, windSpeed=28.7, outHz=37.1 */ 
.................... 	  269, /* inHz= 620, windSpeed=28.8, outHz=37.1 */ 
.................... 	  269, /* inHz= 621, windSpeed=28.8, outHz=37.2 */ 
.................... 	  268, /* inHz= 622, windSpeed=28.8, outHz=37.3 */ 
.................... 	  268, /* inHz= 623, windSpeed=28.9, outHz=37.3 */ 
.................... 	  268, /* inHz= 624, windSpeed=28.9, outHz=37.4 */ 
.................... 	  267, /* inHz= 625, windSpeed=29.0, outHz=37.4 */ 
.................... 	  267, /* inHz= 626, windSpeed=29.0, outHz=37.5 */ 
.................... 	  266, /* inHz= 627, windSpeed=29.1, outHz=37.6 */ 
.................... 	  266, /* inHz= 628, windSpeed=29.1, outHz=37.6 */ 
.................... 	  265, /* inHz= 629, windSpeed=29.2, outHz=37.7 */ 
.................... 	  265, /* inHz= 630, windSpeed=29.2, outHz=37.7 */ 
.................... 	  265, /* inHz= 631, windSpeed=29.3, outHz=37.8 */ 
.................... 	  264, /* inHz= 632, windSpeed=29.3, outHz=37.9 */ 
.................... 	  264, /* inHz= 633, windSpeed=29.4, outHz=37.9 */ 
.................... 	  263, /* inHz= 634, windSpeed=29.4, outHz=38.0 */ 
.................... 	  263, /* inHz= 635, windSpeed=29.4, outHz=38.0 */ 
.................... 	  263, /* inHz= 636, windSpeed=29.5, outHz=38.1 */ 
.................... 	  262, /* inHz= 637, windSpeed=29.5, outHz=38.2 */ 
.................... 	  262, /* inHz= 638, windSpeed=29.6, outHz=38.2 */ 
.................... 	  261, /* inHz= 639, windSpeed=29.6, outHz=38.3 */ 
.................... 	  261, /* inHz= 640, windSpeed=29.7, outHz=38.3 */ 
.................... 	  260, /* inHz= 641, windSpeed=29.7, outHz=38.4 */ 
.................... 	  260, /* inHz= 642, windSpeed=29.8, outHz=38.5 */ 
.................... 	  260, /* inHz= 643, windSpeed=29.8, outHz=38.5 */ 
.................... 	  259, /* inHz= 644, windSpeed=29.9, outHz=38.6 */ 
.................... 	  259, /* inHz= 645, windSpeed=29.9, outHz=38.6 */ 
.................... 	  258, /* inHz= 646, windSpeed=30.0, outHz=38.7 */ 
.................... 	  258, /* inHz= 647, windSpeed=30.0, outHz=38.8 */ 
.................... 	  258, /* inHz= 648, windSpeed=30.0, outHz=38.8 */ 
.................... 	  257, /* inHz= 649, windSpeed=30.1, outHz=38.9 */ 
.................... 	  257, /* inHz= 650, windSpeed=30.1, outHz=38.9 */ 
.................... 	  256, /* inHz= 651, windSpeed=30.2, outHz=39.0 */ 
.................... 	  256, /* inHz= 652, windSpeed=30.2, outHz=39.1 */ 
.................... 	  256, /* inHz= 653, windSpeed=30.3, outHz=39.1 */ 
.................... 	  255, /* inHz= 654, windSpeed=30.3, outHz=39.2 */ 
.................... 	  255, /* inHz= 655, windSpeed=30.4, outHz=39.2 */ 
.................... 	  254, /* inHz= 656, windSpeed=30.4, outHz=39.3 */ 
.................... 	  254, /* inHz= 657, windSpeed=30.5, outHz=39.4 */ 
.................... 	  254, /* inHz= 658, windSpeed=30.5, outHz=39.4 */ 
.................... 	  253, /* inHz= 659, windSpeed=30.5, outHz=39.5 */ 
.................... 	  253, /* inHz= 660, windSpeed=30.6, outHz=39.5 */ 
.................... 	  253, /* inHz= 661, windSpeed=30.6, outHz=39.6 */ 
.................... 	  252, /* inHz= 662, windSpeed=30.7, outHz=39.7 */ 
.................... 	  252, /* inHz= 663, windSpeed=30.7, outHz=39.7 */ 
.................... 	  251, /* inHz= 664, windSpeed=30.8, outHz=39.8 */ 
.................... 	  251, /* inHz= 665, windSpeed=30.8, outHz=39.8 */ 
.................... 	  251, /* inHz= 666, windSpeed=30.9, outHz=39.9 */ 
.................... 	  250, /* inHz= 667, windSpeed=30.9, outHz=40.0 */ 
.................... 	  250, /* inHz= 668, windSpeed=31.0, outHz=40.0 */ 
.................... 	  250, /* inHz= 669, windSpeed=31.0, outHz=40.1 */ 
.................... 	  249, /* inHz= 670, windSpeed=31.1, outHz=40.1 */ 
.................... 	  249, /* inHz= 671, windSpeed=31.1, outHz=40.2 */ 
.................... 	  248, /* inHz= 672, windSpeed=31.1, outHz=40.3 */ 
.................... 	  248, /* inHz= 673, windSpeed=31.2, outHz=40.3 */ 
.................... 	  248, /* inHz= 674, windSpeed=31.2, outHz=40.4 */ 
.................... 	  247, /* inHz= 675, windSpeed=31.3, outHz=40.4 */ 
.................... 	  247, /* inHz= 676, windSpeed=31.3, outHz=40.5 */ 
.................... 	  247, /* inHz= 677, windSpeed=31.4, outHz=40.6 */ 
.................... 	  246, /* inHz= 678, windSpeed=31.4, outHz=40.6 */ 
.................... 	  246, /* inHz= 679, windSpeed=31.5, outHz=40.7 */ 
.................... 	  245, /* inHz= 680, windSpeed=31.5, outHz=40.7 */ 
.................... 	  245, /* inHz= 681, windSpeed=31.6, outHz=40.8 */ 
.................... 	  245, /* inHz= 682, windSpeed=31.6, outHz=40.9 */ 
.................... 	  244, /* inHz= 683, windSpeed=31.7, outHz=40.9 */ 
.................... 	  244, /* inHz= 684, windSpeed=31.7, outHz=41.0 */ 
.................... 	  244, /* inHz= 685, windSpeed=31.7, outHz=41.0 */ 
.................... 	  243, /* inHz= 686, windSpeed=31.8, outHz=41.1 */ 
.................... 	  243, /* inHz= 687, windSpeed=31.8, outHz=41.2 */ 
.................... 	  243, /* inHz= 688, windSpeed=31.9, outHz=41.2 */ 
.................... 	  242, /* inHz= 689, windSpeed=31.9, outHz=41.3 */ 
.................... 	  242, /* inHz= 690, windSpeed=32.0, outHz=41.3 */ 
.................... 	  242, /* inHz= 691, windSpeed=32.0, outHz=41.4 */ 
.................... 	  241, /* inHz= 692, windSpeed=32.1, outHz=41.5 */ 
.................... 	  241, /* inHz= 693, windSpeed=32.1, outHz=41.5 */ 
.................... 	  241, /* inHz= 694, windSpeed=32.2, outHz=41.6 */ 
.................... 	  240, /* inHz= 695, windSpeed=32.2, outHz=41.6 */ 
.................... 	  240, /* inHz= 696, windSpeed=32.2, outHz=41.7 */ 
.................... 	  239, /* inHz= 697, windSpeed=32.3, outHz=41.8 */ 
.................... 	  239, /* inHz= 698, windSpeed=32.3, outHz=41.8 */ 
.................... 	  239, /* inHz= 699, windSpeed=32.4, outHz=41.9 */ 
.................... 	  238, /* inHz= 700, windSpeed=32.4, outHz=41.9 */ 
.................... 	  238, /* inHz= 701, windSpeed=32.5, outHz=42.0 */ 
.................... 	  238, /* inHz= 702, windSpeed=32.5, outHz=42.1 */ 
.................... 	  237, /* inHz= 703, windSpeed=32.6, outHz=42.1 */ 
.................... 	  237, /* inHz= 704, windSpeed=32.6, outHz=42.2 */ 
.................... 	  237, /* inHz= 705, windSpeed=32.7, outHz=42.2 */ 
.................... 	  236, /* inHz= 706, windSpeed=32.7, outHz=42.3 */ 
.................... 	  236, /* inHz= 707, windSpeed=32.8, outHz=42.4 */ 
.................... 	  236, /* inHz= 708, windSpeed=32.8, outHz=42.4 */ 
.................... 	  235, /* inHz= 709, windSpeed=32.8, outHz=42.5 */ 
.................... 	  235, /* inHz= 710, windSpeed=32.9, outHz=42.5 */ 
.................... 	  235, /* inHz= 711, windSpeed=32.9, outHz=42.6 */ 
.................... 	  234, /* inHz= 712, windSpeed=33.0, outHz=42.7 */ 
.................... 	  234, /* inHz= 713, windSpeed=33.0, outHz=42.7 */ 
.................... 	  234, /* inHz= 714, windSpeed=33.1, outHz=42.8 */ 
.................... 	  233, /* inHz= 715, windSpeed=33.1, outHz=42.8 */ 
.................... 	  233, /* inHz= 716, windSpeed=33.2, outHz=42.9 */ 
.................... 	  233, /* inHz= 717, windSpeed=33.2, outHz=43.0 */ 
.................... 	  232, /* inHz= 718, windSpeed=33.3, outHz=43.0 */ 
.................... 	  232, /* inHz= 719, windSpeed=33.3, outHz=43.1 */ 
.................... 	  232, /* inHz= 720, windSpeed=33.4, outHz=43.1 */ 
.................... 	  231, /* inHz= 721, windSpeed=33.4, outHz=43.2 */ 
.................... 	  231, /* inHz= 722, windSpeed=33.4, outHz=43.3 */ 
.................... 	  231, /* inHz= 723, windSpeed=33.5, outHz=43.3 */ 
.................... 	  231, /* inHz= 724, windSpeed=33.5, outHz=43.4 */ 
.................... 	  230, /* inHz= 725, windSpeed=33.6, outHz=43.4 */ 
.................... 	  230, /* inHz= 726, windSpeed=33.6, outHz=43.5 */ 
.................... 	  230, /* inHz= 727, windSpeed=33.7, outHz=43.6 */ 
.................... 	  229, /* inHz= 728, windSpeed=33.7, outHz=43.6 */ 
.................... 	  229, /* inHz= 729, windSpeed=33.8, outHz=43.7 */ 
.................... 	  229, /* inHz= 730, windSpeed=33.8, outHz=43.7 */ 
.................... 	  228, /* inHz= 731, windSpeed=33.9, outHz=43.8 */ 
.................... 	  228, /* inHz= 732, windSpeed=33.9, outHz=43.9 */ 
.................... 	  228, /* inHz= 733, windSpeed=34.0, outHz=43.9 */ 
.................... 	  227, /* inHz= 734, windSpeed=34.0, outHz=44.0 */ 
.................... 	  227, /* inHz= 735, windSpeed=34.0, outHz=44.0 */ 
.................... 	  227, /* inHz= 736, windSpeed=34.1, outHz=44.1 */ 
.................... 	  226, /* inHz= 737, windSpeed=34.1, outHz=44.2 */ 
.................... 	  226, /* inHz= 738, windSpeed=34.2, outHz=44.2 */ 
.................... 	  226, /* inHz= 739, windSpeed=34.2, outHz=44.3 */ 
.................... 	  226, /* inHz= 740, windSpeed=34.3, outHz=44.3 */ 
.................... 	  225, /* inHz= 741, windSpeed=34.3, outHz=44.4 */ 
.................... 	  225, /* inHz= 742, windSpeed=34.4, outHz=44.5 */ 
.................... 	  225, /* inHz= 743, windSpeed=34.4, outHz=44.5 */ 
.................... 	  224, /* inHz= 744, windSpeed=34.5, outHz=44.6 */ 
.................... 	  224, /* inHz= 745, windSpeed=34.5, outHz=44.6 */ 
.................... 	  224, /* inHz= 746, windSpeed=34.5, outHz=44.7 */ 
.................... 	  223, /* inHz= 747, windSpeed=34.6, outHz=44.8 */ 
.................... 	  223, /* inHz= 748, windSpeed=34.6, outHz=44.8 */ 
.................... 	  223, /* inHz= 749, windSpeed=34.7, outHz=44.9 */ 
.................... 	  222, /* inHz= 750, windSpeed=34.7, outHz=44.9 */ 
.................... 	  222, /* inHz= 751, windSpeed=34.8, outHz=45.0 */ 
.................... 	  222, /* inHz= 752, windSpeed=34.8, outHz=45.1 */ 
.................... 	  222, /* inHz= 753, windSpeed=34.9, outHz=45.1 */ 
.................... 	  221, /* inHz= 754, windSpeed=34.9, outHz=45.2 */ 
.................... 	  221, /* inHz= 755, windSpeed=35.0, outHz=45.2 */ 
.................... 	  221, /* inHz= 756, windSpeed=35.0, outHz=45.3 */ 
.................... 	  220, /* inHz= 757, windSpeed=35.1, outHz=45.4 */ 
.................... 	  220, /* inHz= 758, windSpeed=35.1, outHz=45.4 */ 
.................... 	  220, /* inHz= 759, windSpeed=35.1, outHz=45.5 */ 
.................... 	  220, /* inHz= 760, windSpeed=35.2, outHz=45.5 */ 
.................... 	  219, /* inHz= 761, windSpeed=35.2, outHz=45.6 */ 
.................... 	  219, /* inHz= 762, windSpeed=35.3, outHz=45.7 */ 
.................... 	  219, /* inHz= 763, windSpeed=35.3, outHz=45.7 */ 
.................... 	  218, /* inHz= 764, windSpeed=35.4, outHz=45.8 */ 
.................... 	  218, /* inHz= 765, windSpeed=35.4, outHz=45.8 */ 
.................... 	  218, /* inHz= 766, windSpeed=35.5, outHz=45.9 */ 
.................... 	  218, /* inHz= 767, windSpeed=35.5, outHz=46.0 */ 
.................... 	  217, /* inHz= 768, windSpeed=35.6, outHz=46.0 */ 
.................... 	  217, /* inHz= 769, windSpeed=35.6, outHz=46.1 */ 
.................... 	  217, /* inHz= 770, windSpeed=35.7, outHz=46.1 */ 
.................... 	  216, /* inHz= 771, windSpeed=35.7, outHz=46.2 */ 
.................... 	  216, /* inHz= 772, windSpeed=35.7, outHz=46.3 */ 
.................... 	  216, /* inHz= 773, windSpeed=35.8, outHz=46.3 */ 
.................... 	  216, /* inHz= 774, windSpeed=35.8, outHz=46.4 */ 
.................... 	  215, /* inHz= 775, windSpeed=35.9, outHz=46.4 */ 
.................... 	  215, /* inHz= 776, windSpeed=35.9, outHz=46.5 */ 
.................... 	  215, /* inHz= 777, windSpeed=36.0, outHz=46.6 */ 
.................... 	  214, /* inHz= 778, windSpeed=36.0, outHz=46.6 */ 
.................... 	  214, /* inHz= 779, windSpeed=36.1, outHz=46.7 */ 
.................... 	  214, /* inHz= 780, windSpeed=36.1, outHz=46.7 */ 
.................... 	  214, /* inHz= 781, windSpeed=36.2, outHz=46.8 */ 
.................... 	  213, /* inHz= 782, windSpeed=36.2, outHz=46.9 */ 
.................... 	  213, /* inHz= 783, windSpeed=36.3, outHz=46.9 */ 
.................... 	  213, /* inHz= 784, windSpeed=36.3, outHz=47.0 */ 
.................... 	  213, /* inHz= 785, windSpeed=36.3, outHz=47.0 */ 
.................... 	  212, /* inHz= 786, windSpeed=36.4, outHz=47.1 */ 
.................... 	  212, /* inHz= 787, windSpeed=36.4, outHz=47.2 */ 
.................... 	  212, /* inHz= 788, windSpeed=36.5, outHz=47.2 */ 
.................... 	  211, /* inHz= 789, windSpeed=36.5, outHz=47.3 */ 
.................... 	  211, /* inHz= 790, windSpeed=36.6, outHz=47.3 */ 
.................... 	  211, /* inHz= 791, windSpeed=36.6, outHz=47.4 */ 
.................... 	  211, /* inHz= 792, windSpeed=36.7, outHz=47.5 */ 
.................... 	  210, /* inHz= 793, windSpeed=36.7, outHz=47.5 */ 
.................... 	  210, /* inHz= 794, windSpeed=36.8, outHz=47.6 */ 
.................... 	  210, /* inHz= 795, windSpeed=36.8, outHz=47.6 */ 
.................... 	  210, /* inHz= 796, windSpeed=36.8, outHz=47.7 */ 
.................... 	  209, /* inHz= 797, windSpeed=36.9, outHz=47.8 */ 
.................... 	  209, /* inHz= 798, windSpeed=36.9, outHz=47.8 */ 
.................... 	  209, /* inHz= 799, windSpeed=37.0, outHz=47.9 */ 
.................... 	  209, /* inHz= 800, windSpeed=37.0, outHz=48.0 */ 
.................... 	  208, /* inHz= 801, windSpeed=37.1, outHz=48.0 */ 
.................... 	  208, /* inHz= 802, windSpeed=37.1, outHz=48.1 */ 
.................... 	  208, /* inHz= 803, windSpeed=37.2, outHz=48.1 */ 
.................... 	  208, /* inHz= 804, windSpeed=37.2, outHz=48.2 */ 
.................... 	  207, /* inHz= 805, windSpeed=37.3, outHz=48.3 */ 
.................... 	  207, /* inHz= 806, windSpeed=37.3, outHz=48.3 */ 
.................... 	  207, /* inHz= 807, windSpeed=37.4, outHz=48.4 */ 
.................... 	  206, /* inHz= 808, windSpeed=37.4, outHz=48.4 */ 
.................... 	  206, /* inHz= 809, windSpeed=37.4, outHz=48.5 */ 
.................... 	  206, /* inHz= 810, windSpeed=37.5, outHz=48.6 */ 
.................... 	  206, /* inHz= 811, windSpeed=37.5, outHz=48.6 */ 
.................... 	  205, /* inHz= 812, windSpeed=37.6, outHz=48.7 */ 
.................... 	  205, /* inHz= 813, windSpeed=37.6, outHz=48.7 */ 
.................... 	  205, /* inHz= 814, windSpeed=37.7, outHz=48.8 */ 
.................... 	  205, /* inHz= 815, windSpeed=37.7, outHz=48.9 */ 
.................... 	  204, /* inHz= 816, windSpeed=37.8, outHz=48.9 */ 
.................... 	  204, /* inHz= 817, windSpeed=37.8, outHz=49.0 */ 
.................... 	  204, /* inHz= 818, windSpeed=37.9, outHz=49.0 */ 
.................... 	  204, /* inHz= 819, windSpeed=37.9, outHz=49.1 */ 
.................... 	  203, /* inHz= 820, windSpeed=38.0, outHz=49.2 */ 
.................... 	  203, /* inHz= 821, windSpeed=38.0, outHz=49.2 */ 
.................... 	  203, /* inHz= 822, windSpeed=38.0, outHz=49.3 */ 
.................... 	  203, /* inHz= 823, windSpeed=38.1, outHz=49.3 */ 
.................... 	  202, /* inHz= 824, windSpeed=38.1, outHz=49.4 */ 
.................... 	  202, /* inHz= 825, windSpeed=38.2, outHz=49.5 */ 
.................... 	  202, /* inHz= 826, windSpeed=38.2, outHz=49.5 */ 
.................... 	  202, /* inHz= 827, windSpeed=38.3, outHz=49.6 */ 
.................... 	  201, /* inHz= 828, windSpeed=38.3, outHz=49.6 */ 
.................... 	  201, /* inHz= 829, windSpeed=38.4, outHz=49.7 */ 
.................... 	  201, /* inHz= 830, windSpeed=38.4, outHz=49.8 */ 
.................... 	  201, /* inHz= 831, windSpeed=38.5, outHz=49.8 */ 
.................... 	  201, /* inHz= 832, windSpeed=38.5, outHz=49.9 */ 
.................... 	  200, /* inHz= 833, windSpeed=38.5, outHz=49.9 */ 
.................... 	  200, /* inHz= 834, windSpeed=38.6, outHz=50.0 */ 
.................... 	  200, /* inHz= 835, windSpeed=38.6, outHz=50.1 */ 
.................... 	  200, /* inHz= 836, windSpeed=38.7, outHz=50.1 */ 
.................... 	  199, /* inHz= 837, windSpeed=38.7, outHz=50.2 */ 
.................... 	  199, /* inHz= 838, windSpeed=38.8, outHz=50.2 */ 
.................... 	  199, /* inHz= 839, windSpeed=38.8, outHz=50.3 */ 
.................... 	  199, /* inHz= 840, windSpeed=38.9, outHz=50.4 */ 
.................... 	  198, /* inHz= 841, windSpeed=38.9, outHz=50.4 */ 
.................... 	  198, /* inHz= 842, windSpeed=39.0, outHz=50.5 */ 
.................... 	  198, /* inHz= 843, windSpeed=39.0, outHz=50.5 */ 
.................... 	  198, /* inHz= 844, windSpeed=39.1, outHz=50.6 */ 
.................... 	  197, /* inHz= 845, windSpeed=39.1, outHz=50.7 */ 
.................... 	  197, /* inHz= 846, windSpeed=39.1, outHz=50.7 */ 
.................... 	  197, /* inHz= 847, windSpeed=39.2, outHz=50.8 */ 
.................... 	  197, /* inHz= 848, windSpeed=39.2, outHz=50.8 */ 
.................... 	  196, /* inHz= 849, windSpeed=39.3, outHz=50.9 */ 
.................... 	  196, /* inHz= 850, windSpeed=39.3, outHz=51.0 */ 
.................... 	  196, /* inHz= 851, windSpeed=39.4, outHz=51.0 */ 
.................... 	  196, /* inHz= 852, windSpeed=39.4, outHz=51.1 */ 
.................... 	  196, /* inHz= 853, windSpeed=39.5, outHz=51.1 */ 
.................... 	  195, /* inHz= 854, windSpeed=39.5, outHz=51.2 */ 
.................... 	  195, /* inHz= 855, windSpeed=39.6, outHz=51.3 */ 
.................... 	  195, /* inHz= 856, windSpeed=39.6, outHz=51.3 */ 
.................... 	  195, /* inHz= 857, windSpeed=39.7, outHz=51.4 */ 
.................... 	  194, /* inHz= 858, windSpeed=39.7, outHz=51.4 */ 
.................... 	  194, /* inHz= 859, windSpeed=39.7, outHz=51.5 */ 
.................... 	  194, /* inHz= 860, windSpeed=39.8, outHz=51.6 */ 
.................... 	  194, /* inHz= 861, windSpeed=39.8, outHz=51.6 */ 
.................... 	  194, /* inHz= 862, windSpeed=39.9, outHz=51.7 */ 
.................... 	  193, /* inHz= 863, windSpeed=39.9, outHz=51.7 */ 
.................... 	  193, /* inHz= 864, windSpeed=40.0, outHz=51.8 */ 
.................... 	  193, /* inHz= 865, windSpeed=40.0, outHz=51.9 */ 
.................... 	  193, /* inHz= 866, windSpeed=40.1, outHz=51.9 */ 
.................... 	  192, /* inHz= 867, windSpeed=40.1, outHz=52.0 */ 
.................... 	  192, /* inHz= 868, windSpeed=40.2, outHz=52.0 */ 
.................... 	  192, /* inHz= 869, windSpeed=40.2, outHz=52.1 */ 
.................... 	  192, /* inHz= 870, windSpeed=40.3, outHz=52.2 */ 
.................... 	  192, /* inHz= 871, windSpeed=40.3, outHz=52.2 */ 
.................... 	  191, /* inHz= 872, windSpeed=40.3, outHz=52.3 */ 
.................... 	  191, /* inHz= 873, windSpeed=40.4, outHz=52.3 */ 
.................... 	  191, /* inHz= 874, windSpeed=40.4, outHz=52.4 */ 
.................... 	  191, /* inHz= 875, windSpeed=40.5, outHz=52.5 */ 
.................... 	  190, /* inHz= 876, windSpeed=40.5, outHz=52.5 */ 
.................... 	  190, /* inHz= 877, windSpeed=40.6, outHz=52.6 */ 
.................... 	  190, /* inHz= 878, windSpeed=40.6, outHz=52.6 */ 
.................... 	  190, /* inHz= 879, windSpeed=40.7, outHz=52.7 */ 
.................... 	  190, /* inHz= 880, windSpeed=40.7, outHz=52.8 */ 
.................... 	  189, /* inHz= 881, windSpeed=40.8, outHz=52.8 */ 
.................... 	  189, /* inHz= 882, windSpeed=40.8, outHz=52.9 */ 
.................... 	  189, /* inHz= 883, windSpeed=40.8, outHz=52.9 */ 
.................... 	  189, /* inHz= 884, windSpeed=40.9, outHz=53.0 */ 
.................... 	  188, /* inHz= 885, windSpeed=40.9, outHz=53.1 */ 
.................... 	  188, /* inHz= 886, windSpeed=41.0, outHz=53.1 */ 
.................... 	  188, /* inHz= 887, windSpeed=41.0, outHz=53.2 */ 
.................... 	  188, /* inHz= 888, windSpeed=41.1, outHz=53.2 */ 
.................... 	  188, /* inHz= 889, windSpeed=41.1, outHz=53.3 */ 
.................... 	  187, /* inHz= 890, windSpeed=41.2, outHz=53.4 */ 
.................... 	  187, /* inHz= 891, windSpeed=41.2, outHz=53.4 */ 
.................... 	  187, /* inHz= 892, windSpeed=41.3, outHz=53.5 */ 
.................... 	  187, /* inHz= 893, windSpeed=41.3, outHz=53.5 */ 
.................... 	  187, /* inHz= 894, windSpeed=41.4, outHz=53.6 */ 
.................... 	  186, /* inHz= 895, windSpeed=41.4, outHz=53.7 */ 
.................... 	  186, /* inHz= 896, windSpeed=41.4, outHz=53.7 */ 
.................... 	  186, /* inHz= 897, windSpeed=41.5, outHz=53.8 */ 
.................... 	  186, /* inHz= 898, windSpeed=41.5, outHz=53.8 */ 
.................... 	  186, /* inHz= 899, windSpeed=41.6, outHz=53.9 */ 
.................... 	  185, /* inHz= 900, windSpeed=41.6, outHz=54.0 */ 
.................... 	  185, /* inHz= 901, windSpeed=41.7, outHz=54.0 */ 
.................... 	  185, /* inHz= 902, windSpeed=41.7, outHz=54.1 */ 
.................... 	  185, /* inHz= 903, windSpeed=41.8, outHz=54.1 */ 
.................... 	  184, /* inHz= 904, windSpeed=41.8, outHz=54.2 */ 
.................... 	  184, /* inHz= 905, windSpeed=41.9, outHz=54.3 */ 
.................... 	  184, /* inHz= 906, windSpeed=41.9, outHz=54.3 */ 
.................... 	  184, /* inHz= 907, windSpeed=42.0, outHz=54.4 */ 
.................... 	  184, /* inHz= 908, windSpeed=42.0, outHz=54.4 */ 
.................... 	  183, /* inHz= 909, windSpeed=42.0, outHz=54.5 */ 
.................... 	  183, /* inHz= 910, windSpeed=42.1, outHz=54.6 */ 
.................... 	  183, /* inHz= 911, windSpeed=42.1, outHz=54.6 */ 
.................... 	  183, /* inHz= 912, windSpeed=42.2, outHz=54.7 */ 
.................... 	  183, /* inHz= 913, windSpeed=42.2, outHz=54.7 */ 
.................... 	  182, /* inHz= 914, windSpeed=42.3, outHz=54.8 */ 
.................... 	  182, /* inHz= 915, windSpeed=42.3, outHz=54.9 */ 
.................... 	  182, /* inHz= 916, windSpeed=42.4, outHz=54.9 */ 
.................... 	  182, /* inHz= 917, windSpeed=42.4, outHz=55.0 */ 
.................... 	  182, /* inHz= 918, windSpeed=42.5, outHz=55.0 */ 
.................... 	  181, /* inHz= 919, windSpeed=42.5, outHz=55.1 */ 
.................... 	  181, /* inHz= 920, windSpeed=42.5, outHz=55.2 */ 
.................... 	  181, /* inHz= 921, windSpeed=42.6, outHz=55.2 */ 
.................... 	  181, /* inHz= 922, windSpeed=42.6, outHz=55.3 */ 
.................... 	  181, /* inHz= 923, windSpeed=42.7, outHz=55.3 */ 
.................... 	  180, /* inHz= 924, windSpeed=42.7, outHz=55.4 */ 
.................... 	  180, /* inHz= 925, windSpeed=42.8, outHz=55.5 */ 
.................... 	  180, /* inHz= 926, windSpeed=42.8, outHz=55.5 */ 
.................... 	  180, /* inHz= 927, windSpeed=42.9, outHz=55.6 */ 
.................... 	  180, /* inHz= 928, windSpeed=42.9, outHz=55.6 */ 
.................... 	  180, /* inHz= 929, windSpeed=43.0, outHz=55.7 */ 
.................... 	  179, /* inHz= 930, windSpeed=43.0, outHz=55.8 */ 
.................... 	  179, /* inHz= 931, windSpeed=43.1, outHz=55.8 */ 
.................... 	  179, /* inHz= 932, windSpeed=43.1, outHz=55.9 */ 
.................... 	  179, /* inHz= 933, windSpeed=43.1, outHz=55.9 */ 
.................... 	  179, /* inHz= 934, windSpeed=43.2, outHz=56.0 */ 
.................... 	  178, /* inHz= 935, windSpeed=43.2, outHz=56.1 */ 
.................... 	  178, /* inHz= 936, windSpeed=43.3, outHz=56.1 */ 
.................... 	  178, /* inHz= 937, windSpeed=43.3, outHz=56.2 */ 
.................... 	  178, /* inHz= 938, windSpeed=43.4, outHz=56.2 */ 
.................... 	  178, /* inHz= 939, windSpeed=43.4, outHz=56.3 */ 
.................... 	  177, /* inHz= 940, windSpeed=43.5, outHz=56.4 */ 
.................... 	  177, /* inHz= 941, windSpeed=43.5, outHz=56.4 */ 
.................... 	  177, /* inHz= 942, windSpeed=43.6, outHz=56.5 */ 
.................... 	  177, /* inHz= 943, windSpeed=43.6, outHz=56.5 */ 
.................... 	  177, /* inHz= 944, windSpeed=43.7, outHz=56.6 */ 
.................... 	  176, /* inHz= 945, windSpeed=43.7, outHz=56.7 */ 
.................... 	  176, /* inHz= 946, windSpeed=43.7, outHz=56.7 */ 
.................... 	  176, /* inHz= 947, windSpeed=43.8, outHz=56.8 */ 
.................... 	  176, /* inHz= 948, windSpeed=43.8, outHz=56.8 */ 
.................... 	  176, /* inHz= 949, windSpeed=43.9, outHz=56.9 */ 
.................... 	  176, /* inHz= 950, windSpeed=43.9, outHz=57.0 */ 
.................... 	  175, /* inHz= 951, windSpeed=44.0, outHz=57.0 */ 
.................... 	  175, /* inHz= 952, windSpeed=44.0, outHz=57.1 */ 
.................... 	  175, /* inHz= 953, windSpeed=44.1, outHz=57.1 */ 
.................... 	  175, /* inHz= 954, windSpeed=44.1, outHz=57.2 */ 
.................... 	  175, /* inHz= 955, windSpeed=44.2, outHz=57.3 */ 
.................... 	  174, /* inHz= 956, windSpeed=44.2, outHz=57.3 */ 
.................... 	  174, /* inHz= 957, windSpeed=44.3, outHz=57.4 */ 
.................... 	  174, /* inHz= 958, windSpeed=44.3, outHz=57.4 */ 
.................... 	  174, /* inHz= 959, windSpeed=44.3, outHz=57.5 */ 
.................... 	  174, /* inHz= 960, windSpeed=44.4, outHz=57.6 */ 
.................... 	  174, /* inHz= 961, windSpeed=44.4, outHz=57.6 */ 
.................... 	  173, /* inHz= 962, windSpeed=44.5, outHz=57.7 */ 
.................... 	  173, /* inHz= 963, windSpeed=44.5, outHz=57.7 */ 
.................... 	  173, /* inHz= 964, windSpeed=44.6, outHz=57.8 */ 
.................... 	  173, /* inHz= 965, windSpeed=44.6, outHz=57.9 */ 
.................... 	  173, /* inHz= 966, windSpeed=44.7, outHz=57.9 */ 
.................... 	  172, /* inHz= 967, windSpeed=44.7, outHz=58.0 */ 
.................... 	  172, /* inHz= 968, windSpeed=44.8, outHz=58.0 */ 
.................... 	  172, /* inHz= 969, windSpeed=44.8, outHz=58.1 */ 
.................... 	  172, /* inHz= 970, windSpeed=44.8, outHz=58.2 */ 
.................... 	  172, /* inHz= 971, windSpeed=44.9, outHz=58.2 */ 
.................... 	  172, /* inHz= 972, windSpeed=44.9, outHz=58.3 */ 
.................... 	  171, /* inHz= 973, windSpeed=45.0, outHz=58.3 */ 
.................... 	  171, /* inHz= 974, windSpeed=45.0, outHz=58.4 */ 
.................... 	  171, /* inHz= 975, windSpeed=45.1, outHz=58.5 */ 
.................... 	  171, /* inHz= 976, windSpeed=45.1, outHz=58.5 */ 
.................... 	  171, /* inHz= 977, windSpeed=45.2, outHz=58.6 */ 
.................... 	  171, /* inHz= 978, windSpeed=45.2, outHz=58.6 */ 
.................... 	  170, /* inHz= 979, windSpeed=45.3, outHz=58.7 */ 
.................... 	  170, /* inHz= 980, windSpeed=45.3, outHz=58.8 */ 
.................... 	  170, /* inHz= 981, windSpeed=45.4, outHz=58.8 */ 
.................... 	  170, /* inHz= 982, windSpeed=45.4, outHz=58.9 */ 
.................... 	  170, /* inHz= 983, windSpeed=45.4, outHz=58.9 */ 
.................... 	  169, /* inHz= 984, windSpeed=45.5, outHz=59.0 */ 
.................... 	  169, /* inHz= 985, windSpeed=45.5, outHz=59.1 */ 
.................... 	  169, /* inHz= 986, windSpeed=45.6, outHz=59.1 */ 
.................... 	  169, /* inHz= 987, windSpeed=45.6, outHz=59.2 */ 
.................... 	  169, /* inHz= 988, windSpeed=45.7, outHz=59.2 */ 
.................... 	  169, /* inHz= 989, windSpeed=45.7, outHz=59.3 */ 
.................... 	  168, /* inHz= 990, windSpeed=45.8, outHz=59.4 */ 
.................... 	  168, /* inHz= 991, windSpeed=45.8, outHz=59.4 */ 
.................... 	  168, /* inHz= 992, windSpeed=45.9, outHz=59.5 */ 
.................... 	  168, /* inHz= 993, windSpeed=45.9, outHz=59.6 */ 
.................... 	  168, /* inHz= 994, windSpeed=46.0, outHz=59.6 */ 
.................... 	  168, /* inHz= 995, windSpeed=46.0, outHz=59.7 */ 
.................... 	  167, /* inHz= 996, windSpeed=46.0, outHz=59.7 */ 
.................... 	  167, /* inHz= 997, windSpeed=46.1, outHz=59.8 */ 
.................... 	  167, /* inHz= 998, windSpeed=46.1, outHz=59.9 */ 
.................... 	  167, /* inHz= 999, windSpeed=46.2, outHz=59.9 */ 
.................... 	  167, /* inHz=1000, windSpeed=46.2, outHz=60.0 */ 
.................... 	  167, /* inHz=1001, windSpeed=46.3, outHz=60.0 */ 
.................... 	  166, /* inHz=1002, windSpeed=46.3, outHz=60.1 */ 
.................... 	  166, /* inHz=1003, windSpeed=46.4, outHz=60.2 */ 
.................... 	  166, /* inHz=1004, windSpeed=46.4, outHz=60.2 */ 
.................... 	  166, /* inHz=1005, windSpeed=46.5, outHz=60.3 */ 
.................... 	  166, /* inHz=1006, windSpeed=46.5, outHz=60.3 */ 
.................... 	  166, /* inHz=1007, windSpeed=46.5, outHz=60.4 */ 
.................... 	  165, /* inHz=1008, windSpeed=46.6, outHz=60.5 */ 
.................... 	  165, /* inHz=1009, windSpeed=46.6, outHz=60.5 */ 
.................... 	  165, /* inHz=1010, windSpeed=46.7, outHz=60.6 */ 
.................... 	  165, /* inHz=1011, windSpeed=46.7, outHz=60.6 */ 
.................... 	  165, /* inHz=1012, windSpeed=46.8, outHz=60.7 */ 
.................... 	  165, /* inHz=1013, windSpeed=46.8, outHz=60.8 */ 
.................... 	  164, /* inHz=1014, windSpeed=46.9, outHz=60.8 */ 
.................... 	  164, /* inHz=1015, windSpeed=46.9, outHz=60.9 */ 
.................... 	  164, /* inHz=1016, windSpeed=47.0, outHz=60.9 */ 
.................... 	  164, /* inHz=1017, windSpeed=47.0, outHz=61.0 */ 
.................... 	  164, /* inHz=1018, windSpeed=47.1, outHz=61.1 */ 
.................... 	  164, /* inHz=1019, windSpeed=47.1, outHz=61.1 */ 
.................... 	  163, /* inHz=1020, windSpeed=47.1, outHz=61.2 */ 
.................... 	  163, /* inHz=1021, windSpeed=47.2, outHz=61.2 */ 
.................... 	  163, /* inHz=1022, windSpeed=47.2, outHz=61.3 */ 
.................... 	  163, /* inHz=1023, windSpeed=47.3, outHz=61.4 */ 
.................... 	  163, /* inHz=1024, windSpeed=47.3, outHz=61.4 */ 
.................... 	  163, /* inHz=1025, windSpeed=47.4, outHz=61.5 */ 
.................... 	  163, /* inHz=1026, windSpeed=47.4, outHz=61.5 */ 
.................... 	  162, /* inHz=1027, windSpeed=47.5, outHz=61.6 */ 
.................... 	  162, /* inHz=1028, windSpeed=47.5, outHz=61.7 */ 
.................... 	  162, /* inHz=1029, windSpeed=47.6, outHz=61.7 */ 
.................... 	  162, /* inHz=1030, windSpeed=47.6, outHz=61.8 */ 
.................... 	  162, /* inHz=1031, windSpeed=47.7, outHz=61.8 */ 
.................... 	  162, /* inHz=1032, windSpeed=47.7, outHz=61.9 */ 
.................... 	  161, /* inHz=1033, windSpeed=47.7, outHz=62.0 */ 
.................... 	  161, /* inHz=1034, windSpeed=47.8, outHz=62.0 */ 
.................... 	  161, /* inHz=1035, windSpeed=47.8, outHz=62.1 */ 
.................... 	  161, /* inHz=1036, windSpeed=47.9, outHz=62.1 */ 
.................... 	  161, /* inHz=1037, windSpeed=47.9, outHz=62.2 */ 
.................... 	  161, /* inHz=1038, windSpeed=48.0, outHz=62.3 */ 
.................... 	  160, /* inHz=1039, windSpeed=48.0, outHz=62.3 */ 
.................... 	  160, /* inHz=1040, windSpeed=48.1, outHz=62.4 */ 
.................... 	  160, /* inHz=1041, windSpeed=48.1, outHz=62.4 */ 
.................... 	  160, /* inHz=1042, windSpeed=48.2, outHz=62.5 */ 
.................... 	  160, /* inHz=1043, windSpeed=48.2, outHz=62.6 */ 
.................... 	  160, /* inHz=1044, windSpeed=48.3, outHz=62.6 */ 
.................... 	  160, /* inHz=1045, windSpeed=48.3, outHz=62.7 */ 
.................... 	  159, /* inHz=1046, windSpeed=48.3, outHz=62.7 */ 
.................... 	  159, /* inHz=1047, windSpeed=48.4, outHz=62.8 */ 
.................... 	  159, /* inHz=1048, windSpeed=48.4, outHz=62.9 */ 
.................... 	  159, /* inHz=1049, windSpeed=48.5, outHz=62.9 */ 
.................... 	  159, /* inHz=1050, windSpeed=48.5, outHz=63.0 */ 
.................... 	  159, /* inHz=1051, windSpeed=48.6, outHz=63.0 */ 
.................... 	  158, /* inHz=1052, windSpeed=48.6, outHz=63.1 */ 
.................... 	  158, /* inHz=1053, windSpeed=48.7, outHz=63.2 */ 
.................... 	  158, /* inHz=1054, windSpeed=48.7, outHz=63.2 */ 
.................... 	  158, /* inHz=1055, windSpeed=48.8, outHz=63.3 */ 
.................... 	  158, /* inHz=1056, windSpeed=48.8, outHz=63.3 */ 
.................... 	  158, /* inHz=1057, windSpeed=48.8, outHz=63.4 */ 
.................... 	  158, /* inHz=1058, windSpeed=48.9, outHz=63.5 */ 
.................... 	  157, /* inHz=1059, windSpeed=48.9, outHz=63.5 */ 
.................... 	  157, /* inHz=1060, windSpeed=49.0, outHz=63.6 */ 
.................... 	  157, /* inHz=1061, windSpeed=49.0, outHz=63.6 */ 
.................... 	  157, /* inHz=1062, windSpeed=49.1, outHz=63.7 */ 
.................... 	  157, /* inHz=1063, windSpeed=49.1, outHz=63.8 */ 
.................... 	  157, /* inHz=1064, windSpeed=49.2, outHz=63.8 */ 
.................... 	  157, /* inHz=1065, windSpeed=49.2, outHz=63.9 */ 
.................... 	  156, /* inHz=1066, windSpeed=49.3, outHz=63.9 */ 
.................... 	  156, /* inHz=1067, windSpeed=49.3, outHz=64.0 */ 
.................... 	  156, /* inHz=1068, windSpeed=49.4, outHz=64.1 */ 
.................... 	  156, /* inHz=1069, windSpeed=49.4, outHz=64.1 */ 
.................... 	  156, /* inHz=1070, windSpeed=49.4, outHz=64.2 */ 
.................... 	  156, /* inHz=1071, windSpeed=49.5, outHz=64.2 */ 
.................... 	  156, /* inHz=1072, windSpeed=49.5, outHz=64.3 */ 
.................... 	  155, /* inHz=1073, windSpeed=49.6, outHz=64.4 */ 
.................... 	  155, /* inHz=1074, windSpeed=49.6, outHz=64.4 */ 
.................... 	  155, /* inHz=1075, windSpeed=49.7, outHz=64.5 */ 
.................... 	  155, /* inHz=1076, windSpeed=49.7, outHz=64.5 */ 
.................... 	  155, /* inHz=1077, windSpeed=49.8, outHz=64.6 */ 
.................... 	  155, /* inHz=1078, windSpeed=49.8, outHz=64.7 */ 
.................... 	  155, /* inHz=1079, windSpeed=49.9, outHz=64.7 */ 
.................... 	  154, /* inHz=1080, windSpeed=49.9, outHz=64.8 */ 
.................... 	  154, /* inHz=1081, windSpeed=50.0, outHz=64.8 */ 
.................... 	  154, /* inHz=1082, windSpeed=50.0, outHz=64.9 */ 
.................... 	  154, /* inHz=1083, windSpeed=50.0, outHz=65.0 */ 
.................... 	  154, /* inHz=1084, windSpeed=50.1, outHz=65.0 */ 
.................... 	  154, /* inHz=1085, windSpeed=50.1, outHz=65.1 */ 
.................... 	  154, /* inHz=1086, windSpeed=50.2, outHz=65.1 */ 
.................... 	  153, /* inHz=1087, windSpeed=50.2, outHz=65.2 */ 
.................... 	  153, /* inHz=1088, windSpeed=50.3, outHz=65.3 */ 
.................... 	  153, /* inHz=1089, windSpeed=50.3, outHz=65.3 */ 
.................... 	  153, /* inHz=1090, windSpeed=50.4, outHz=65.4 */ 
.................... 	  153, /* inHz=1091, windSpeed=50.4, outHz=65.4 */ 
.................... 	  153, /* inHz=1092, windSpeed=50.5, outHz=65.5 */ 
.................... 	  153, /* inHz=1093, windSpeed=50.5, outHz=65.6 */ 
.................... 	  152, /* inHz=1094, windSpeed=50.5, outHz=65.6 */ 
.................... 	  152, /* inHz=1095, windSpeed=50.6, outHz=65.7 */ 
.................... 	  152, /* inHz=1096, windSpeed=50.6, outHz=65.7 */ 
.................... 	  152, /* inHz=1097, windSpeed=50.7, outHz=65.8 */ 
.................... 	  152, /* inHz=1098, windSpeed=50.7, outHz=65.9 */ 
.................... 	  152, /* inHz=1099, windSpeed=50.8, outHz=65.9 */ 
.................... 	  152, /* inHz=1100, windSpeed=50.8, outHz=66.0 */ 
.................... 	  151, /* inHz=1101, windSpeed=50.9, outHz=66.0 */ 
.................... 	  151, /* inHz=1102, windSpeed=50.9, outHz=66.1 */ 
.................... 	  151, /* inHz=1103, windSpeed=51.0, outHz=66.2 */ 
.................... 	  151, /* inHz=1104, windSpeed=51.0, outHz=66.2 */ 
.................... 	  151, /* inHz=1105, windSpeed=51.1, outHz=66.3 */ 
.................... 	  151, /* inHz=1106, windSpeed=51.1, outHz=66.3 */ 
.................... 	  151, /* inHz=1107, windSpeed=51.1, outHz=66.4 */ 
.................... 	  150, /* inHz=1108, windSpeed=51.2, outHz=66.5 */ 
.................... 	  150, /* inHz=1109, windSpeed=51.2, outHz=66.5 */ 
.................... 	  150, /* inHz=1110, windSpeed=51.3, outHz=66.6 */ 
.................... 	  150, /* inHz=1111, windSpeed=51.3, outHz=66.6 */ 
.................... 	  150, /* inHz=1112, windSpeed=51.4, outHz=66.7 */ 
.................... 	  150, /* inHz=1113, windSpeed=51.4, outHz=66.8 */ 
.................... 	  150, /* inHz=1114, windSpeed=51.5, outHz=66.8 */ 
.................... 	  150, /* inHz=1115, windSpeed=51.5, outHz=66.9 */ 
.................... 	  149, /* inHz=1116, windSpeed=51.6, outHz=66.9 */ 
.................... 	  149, /* inHz=1117, windSpeed=51.6, outHz=67.0 */ 
.................... 	  149, /* inHz=1118, windSpeed=51.7, outHz=67.1 */ 
.................... 	  149, /* inHz=1119, windSpeed=51.7, outHz=67.1 */ 
.................... 	  149, /* inHz=1120, windSpeed=51.7, outHz=67.2 */ 
.................... 	  149, /* inHz=1121, windSpeed=51.8, outHz=67.2 */ 
.................... 	  149, /* inHz=1122, windSpeed=51.8, outHz=67.3 */ 
.................... 	  148, /* inHz=1123, windSpeed=51.9, outHz=67.4 */ 
.................... 	  148, /* inHz=1124, windSpeed=51.9, outHz=67.4 */ 
.................... 	  148, /* inHz=1125, windSpeed=52.0, outHz=67.5 */ 
.................... 	  148, /* inHz=1126, windSpeed=52.0, outHz=67.5 */ 
.................... 	  148, /* inHz=1127, windSpeed=52.1, outHz=67.6 */ 
.................... 	  148, /* inHz=1128, windSpeed=52.1, outHz=67.7 */ 
.................... 	  148, /* inHz=1129, windSpeed=52.2, outHz=67.7 */ 
.................... 	  148, /* inHz=1130, windSpeed=52.2, outHz=67.8 */ 
.................... 	  147, /* inHz=1131, windSpeed=52.3, outHz=67.8 */ 
.................... 	  147, /* inHz=1132, windSpeed=52.3, outHz=67.9 */ 
.................... 	  147, /* inHz=1133, windSpeed=52.3, outHz=68.0 */ 
.................... 	  147, /* inHz=1134, windSpeed=52.4, outHz=68.0 */ 
.................... 	  147, /* inHz=1135, windSpeed=52.4, outHz=68.1 */ 
.................... 	  147, /* inHz=1136, windSpeed=52.5, outHz=68.1 */ 
.................... 	  147, /* inHz=1137, windSpeed=52.5, outHz=68.2 */ 
.................... 	  146, /* inHz=1138, windSpeed=52.6, outHz=68.3 */ 
.................... 	  146, /* inHz=1139, windSpeed=52.6, outHz=68.3 */ 
.................... 	  146, /* inHz=1140, windSpeed=52.7, outHz=68.4 */ 
.................... 	  146, /* inHz=1141, windSpeed=52.7, outHz=68.4 */ 
.................... 	  146, /* inHz=1142, windSpeed=52.8, outHz=68.5 */ 
.................... 	  146, /* inHz=1143, windSpeed=52.8, outHz=68.6 */ 
.................... 	  146, /* inHz=1144, windSpeed=52.8, outHz=68.6 */ 
.................... 	  146, /* inHz=1145, windSpeed=52.9, outHz=68.7 */ 
.................... 	  145, /* inHz=1146, windSpeed=52.9, outHz=68.7 */ 
.................... 	  145, /* inHz=1147, windSpeed=53.0, outHz=68.8 */ 
.................... 	  145, /* inHz=1148, windSpeed=53.0, outHz=68.9 */ 
.................... 	  145, /* inHz=1149, windSpeed=53.1, outHz=68.9 */ 
.................... 	  145, /* inHz=1150, windSpeed=53.1, outHz=69.0 */ 
.................... 	  145, /* inHz=1151, windSpeed=53.2, outHz=69.0 */ 
.................... 	  145, /* inHz=1152, windSpeed=53.2, outHz=69.1 */ 
.................... 	  145, /* inHz=1153, windSpeed=53.3, outHz=69.2 */ 
.................... 	  144, /* inHz=1154, windSpeed=53.3, outHz=69.2 */ 
.................... 	  144, /* inHz=1155, windSpeed=53.4, outHz=69.3 */ 
.................... 	  144, /* inHz=1156, windSpeed=53.4, outHz=69.3 */ 
.................... 	  144, /* inHz=1157, windSpeed=53.4, outHz=69.4 */ 
.................... 	  144, /* inHz=1158, windSpeed=53.5, outHz=69.5 */ 
.................... 	  144, /* inHz=1159, windSpeed=53.5, outHz=69.5 */ 
.................... 	  144, /* inHz=1160, windSpeed=53.6, outHz=69.6 */ 
.................... 	  144, /* inHz=1161, windSpeed=53.6, outHz=69.6 */ 
.................... 	  143, /* inHz=1162, windSpeed=53.7, outHz=69.7 */ 
.................... 	  143, /* inHz=1163, windSpeed=53.7, outHz=69.8 */ 
.................... 	  143, /* inHz=1164, windSpeed=53.8, outHz=69.8 */ 
.................... 	  143, /* inHz=1165, windSpeed=53.8, outHz=69.9 */ 
.................... 	  143, /* inHz=1166, windSpeed=53.9, outHz=69.9 */ 
.................... 	  143, /* inHz=1167, windSpeed=53.9, outHz=70.0 */ 
.................... 	  143, /* inHz=1168, windSpeed=54.0, outHz=70.1 */ 
.................... 	  143, /* inHz=1169, windSpeed=54.0, outHz=70.1 */ 
.................... 	  142, /* inHz=1170, windSpeed=54.0, outHz=70.2 */ 
.................... 	  142, /* inHz=1171, windSpeed=54.1, outHz=70.2 */ 
.................... 	  142, /* inHz=1172, windSpeed=54.1, outHz=70.3 */ 
.................... 	  142, /* inHz=1173, windSpeed=54.2, outHz=70.4 */ 
.................... 	  142, /* inHz=1174, windSpeed=54.2, outHz=70.4 */ 
.................... 	  142, /* inHz=1175, windSpeed=54.3, outHz=70.5 */ 
.................... 	  142, /* inHz=1176, windSpeed=54.3, outHz=70.5 */ 
.................... 	  142, /* inHz=1177, windSpeed=54.4, outHz=70.6 */ 
.................... 	  142, /* inHz=1178, windSpeed=54.4, outHz=70.7 */ 
.................... 	  141, /* inHz=1179, windSpeed=54.5, outHz=70.7 */ 
.................... 	  141, /* inHz=1180, windSpeed=54.5, outHz=70.8 */ 
.................... 	  141, /* inHz=1181, windSpeed=54.6, outHz=70.8 */ 
.................... 	  141, /* inHz=1182, windSpeed=54.6, outHz=70.9 */ 
.................... 	  141, /* inHz=1183, windSpeed=54.6, outHz=71.0 */ 
.................... 	  141, /* inHz=1184, windSpeed=54.7, outHz=71.0 */ 
.................... 	  141, /* inHz=1185, windSpeed=54.7, outHz=71.1 */ 
.................... 	  141, /* inHz=1186, windSpeed=54.8, outHz=71.2 */ 
.................... 	  140, /* inHz=1187, windSpeed=54.8, outHz=71.2 */ 
.................... 	  140, /* inHz=1188, windSpeed=54.9, outHz=71.3 */ 
.................... 	  140, /* inHz=1189, windSpeed=54.9, outHz=71.3 */ 
.................... 	  140, /* inHz=1190, windSpeed=55.0, outHz=71.4 */ 
.................... 	  140, /* inHz=1191, windSpeed=55.0, outHz=71.5 */ 
.................... 	  140, /* inHz=1192, windSpeed=55.1, outHz=71.5 */ 
.................... 	  140, /* inHz=1193, windSpeed=55.1, outHz=71.6 */ 
.................... 	  140, /* inHz=1194, windSpeed=55.1, outHz=71.6 */ 
.................... 	  139, /* inHz=1195, windSpeed=55.2, outHz=71.7 */ 
.................... 	  139, /* inHz=1196, windSpeed=55.2, outHz=71.8 */ 
.................... 	  139, /* inHz=1197, windSpeed=55.3, outHz=71.8 */ 
.................... 	  139, /* inHz=1198, windSpeed=55.3, outHz=71.9 */ 
.................... 	  139, /* inHz=1199, windSpeed=55.4, outHz=71.9 */ 
.................... 	  139  /* inHz=1200, windSpeed=55.4, outHz=72.0 */ 
.................... }; 
....................  
.................... int16 anemometer_thies_to_40HC(int16 frequency) { 
.................... 	if ( frequency > HZ_TO_40HC_OTA_MAX ) 
*
4660:  MOVLB  5
4662:  MOVF   xA7,W
4664:  SUBLW  03
4666:  BC    467A
4668:  XORLW  FF
466A:  BNZ   4672
466C:  MOVF   xA6,W
466E:  SUBLW  B0
4670:  BC    467A
.................... 		return 65535; 
4672:  MOVLW  FF
4674:  MOVWF  01
4676:  MOVWF  02
4678:  BRA    469E
....................  
.................... 	return hz_to_40hc_OTA[frequency]; 
467A:  BCF    FD8.0
467C:  RLCF   xA6,W
467E:  MOVWF  02
4680:  RLCF   xA7,W
4682:  MOVWF  03
4684:  MOVF   02,W
4686:  MOVFF  03,FF7
468A:  MOVLB  0
468C:  CALL   0196
4690:  TBLRD*+
4692:  MOVFF  FF5,03
4696:  MOVWF  01
4698:  MOVFF  03,02
469C:  MOVLB  5
.................... } 
469E:  MOVLB  0
46A0:  RETURN 0
....................  
.................... #define HZ_TO_WS_MAX 1200 
.................... const int16 hz_to_ws[] = { 
.................... 	    0, /* inHz=   0, windSpeed=0.2 (force to zero) */ 
.................... 	    3, /* inHz=   1, windSpeed=0.3 */ 
.................... 	    3, /* inHz=   2, windSpeed=0.3 */ 
.................... 	    4, /* inHz=   3, windSpeed=0.4 */ 
.................... 	    4, /* inHz=   4, windSpeed=0.4 */ 
.................... 	    5, /* inHz=   5, windSpeed=0.5 */ 
.................... 	    5, /* inHz=   6, windSpeed=0.5 */ 
.................... 	    6, /* inHz=   7, windSpeed=0.6 */ 
.................... 	    6, /* inHz=   8, windSpeed=0.6 */ 
.................... 	    7, /* inHz=   9, windSpeed=0.7 */ 
.................... 	    7, /* inHz=  10, windSpeed=0.7 */ 
.................... 	    8, /* inHz=  11, windSpeed=0.8 */ 
.................... 	    8, /* inHz=  12, windSpeed=0.8 */ 
.................... 	    8, /* inHz=  13, windSpeed=0.8 */ 
.................... 	    9, /* inHz=  14, windSpeed=0.9 */ 
.................... 	    9, /* inHz=  15, windSpeed=0.9 */ 
.................... 	   10, /* inHz=  16, windSpeed=1.0 */ 
.................... 	   10, /* inHz=  17, windSpeed=1.0 */ 
.................... 	   11, /* inHz=  18, windSpeed=1.1 */ 
.................... 	   11, /* inHz=  19, windSpeed=1.1 */ 
.................... 	   12, /* inHz=  20, windSpeed=1.2 */ 
.................... 	   12, /* inHz=  21, windSpeed=1.2 */ 
.................... 	   13, /* inHz=  22, windSpeed=1.3 */ 
.................... 	   13, /* inHz=  23, windSpeed=1.3 */ 
.................... 	   14, /* inHz=  24, windSpeed=1.4 */ 
.................... 	   14, /* inHz=  25, windSpeed=1.4 */ 
.................... 	   14, /* inHz=  26, windSpeed=1.4 */ 
.................... 	   15, /* inHz=  27, windSpeed=1.5 */ 
.................... 	   15, /* inHz=  28, windSpeed=1.5 */ 
.................... 	   16, /* inHz=  29, windSpeed=1.6 */ 
.................... 	   16, /* inHz=  30, windSpeed=1.6 */ 
.................... 	   17, /* inHz=  31, windSpeed=1.7 */ 
.................... 	   17, /* inHz=  32, windSpeed=1.7 */ 
.................... 	   18, /* inHz=  33, windSpeed=1.8 */ 
.................... 	   18, /* inHz=  34, windSpeed=1.8 */ 
.................... 	   19, /* inHz=  35, windSpeed=1.9 */ 
.................... 	   19, /* inHz=  36, windSpeed=1.9 */ 
.................... 	   19, /* inHz=  37, windSpeed=1.9 */ 
.................... 	   20, /* inHz=  38, windSpeed=2.0 */ 
.................... 	   20, /* inHz=  39, windSpeed=2.0 */ 
.................... 	   21, /* inHz=  40, windSpeed=2.1 */ 
.................... 	   21, /* inHz=  41, windSpeed=2.1 */ 
.................... 	   22, /* inHz=  42, windSpeed=2.2 */ 
.................... 	   22, /* inHz=  43, windSpeed=2.2 */ 
.................... 	   23, /* inHz=  44, windSpeed=2.3 */ 
.................... 	   23, /* inHz=  45, windSpeed=2.3 */ 
.................... 	   24, /* inHz=  46, windSpeed=2.4 */ 
.................... 	   24, /* inHz=  47, windSpeed=2.4 */ 
.................... 	   25, /* inHz=  48, windSpeed=2.5 */ 
.................... 	   25, /* inHz=  49, windSpeed=2.5 */ 
.................... 	   25, /* inHz=  50, windSpeed=2.5 */ 
.................... 	   26, /* inHz=  51, windSpeed=2.6 */ 
.................... 	   26, /* inHz=  52, windSpeed=2.6 */ 
.................... 	   27, /* inHz=  53, windSpeed=2.7 */ 
.................... 	   27, /* inHz=  54, windSpeed=2.7 */ 
.................... 	   28, /* inHz=  55, windSpeed=2.8 */ 
.................... 	   28, /* inHz=  56, windSpeed=2.8 */ 
.................... 	   29, /* inHz=  57, windSpeed=2.9 */ 
.................... 	   29, /* inHz=  58, windSpeed=2.9 */ 
.................... 	   30, /* inHz=  59, windSpeed=3.0 */ 
.................... 	   30, /* inHz=  60, windSpeed=3.0 */ 
.................... 	   31, /* inHz=  61, windSpeed=3.1 */ 
.................... 	   31, /* inHz=  62, windSpeed=3.1 */ 
.................... 	   31, /* inHz=  63, windSpeed=3.1 */ 
.................... 	   32, /* inHz=  64, windSpeed=3.2 */ 
.................... 	   32, /* inHz=  65, windSpeed=3.2 */ 
.................... 	   33, /* inHz=  66, windSpeed=3.3 */ 
.................... 	   33, /* inHz=  67, windSpeed=3.3 */ 
.................... 	   34, /* inHz=  68, windSpeed=3.4 */ 
.................... 	   34, /* inHz=  69, windSpeed=3.4 */ 
.................... 	   35, /* inHz=  70, windSpeed=3.5 */ 
.................... 	   35, /* inHz=  71, windSpeed=3.5 */ 
.................... 	   36, /* inHz=  72, windSpeed=3.6 */ 
.................... 	   36, /* inHz=  73, windSpeed=3.6 */ 
.................... 	   37, /* inHz=  74, windSpeed=3.7 */ 
.................... 	   37, /* inHz=  75, windSpeed=3.7 */ 
.................... 	   37, /* inHz=  76, windSpeed=3.7 */ 
.................... 	   38, /* inHz=  77, windSpeed=3.8 */ 
.................... 	   38, /* inHz=  78, windSpeed=3.8 */ 
.................... 	   39, /* inHz=  79, windSpeed=3.9 */ 
.................... 	   39, /* inHz=  80, windSpeed=3.9 */ 
.................... 	   40, /* inHz=  81, windSpeed=4.0 */ 
.................... 	   40, /* inHz=  82, windSpeed=4.0 */ 
.................... 	   41, /* inHz=  83, windSpeed=4.1 */ 
.................... 	   41, /* inHz=  84, windSpeed=4.1 */ 
.................... 	   42, /* inHz=  85, windSpeed=4.2 */ 
.................... 	   42, /* inHz=  86, windSpeed=4.2 */ 
.................... 	   42, /* inHz=  87, windSpeed=4.2 */ 
.................... 	   43, /* inHz=  88, windSpeed=4.3 */ 
.................... 	   43, /* inHz=  89, windSpeed=4.3 */ 
.................... 	   44, /* inHz=  90, windSpeed=4.4 */ 
.................... 	   44, /* inHz=  91, windSpeed=4.4 */ 
.................... 	   45, /* inHz=  92, windSpeed=4.5 */ 
.................... 	   45, /* inHz=  93, windSpeed=4.5 */ 
.................... 	   46, /* inHz=  94, windSpeed=4.6 */ 
.................... 	   46, /* inHz=  95, windSpeed=4.6 */ 
.................... 	   47, /* inHz=  96, windSpeed=4.7 */ 
.................... 	   47, /* inHz=  97, windSpeed=4.7 */ 
.................... 	   48, /* inHz=  98, windSpeed=4.8 */ 
.................... 	   48, /* inHz=  99, windSpeed=4.8 */ 
.................... 	   48, /* inHz= 100, windSpeed=4.8 */ 
.................... 	   49, /* inHz= 101, windSpeed=4.9 */ 
.................... 	   49, /* inHz= 102, windSpeed=4.9 */ 
.................... 	   50, /* inHz= 103, windSpeed=5.0 */ 
.................... 	   50, /* inHz= 104, windSpeed=5.0 */ 
.................... 	   51, /* inHz= 105, windSpeed=5.1 */ 
.................... 	   51, /* inHz= 106, windSpeed=5.1 */ 
.................... 	   52, /* inHz= 107, windSpeed=5.2 */ 
.................... 	   52, /* inHz= 108, windSpeed=5.2 */ 
.................... 	   53, /* inHz= 109, windSpeed=5.3 */ 
.................... 	   53, /* inHz= 110, windSpeed=5.3 */ 
.................... 	   54, /* inHz= 111, windSpeed=5.4 */ 
.................... 	   54, /* inHz= 112, windSpeed=5.4 */ 
.................... 	   54, /* inHz= 113, windSpeed=5.4 */ 
.................... 	   55, /* inHz= 114, windSpeed=5.5 */ 
.................... 	   55, /* inHz= 115, windSpeed=5.5 */ 
.................... 	   56, /* inHz= 116, windSpeed=5.6 */ 
.................... 	   56, /* inHz= 117, windSpeed=5.6 */ 
.................... 	   57, /* inHz= 118, windSpeed=5.7 */ 
.................... 	   57, /* inHz= 119, windSpeed=5.7 */ 
.................... 	   58, /* inHz= 120, windSpeed=5.8 */ 
.................... 	   58, /* inHz= 121, windSpeed=5.8 */ 
.................... 	   59, /* inHz= 122, windSpeed=5.9 */ 
.................... 	   59, /* inHz= 123, windSpeed=5.9 */ 
.................... 	   59, /* inHz= 124, windSpeed=5.9 */ 
.................... 	   60, /* inHz= 125, windSpeed=6.0 */ 
.................... 	   60, /* inHz= 126, windSpeed=6.0 */ 
.................... 	   61, /* inHz= 127, windSpeed=6.1 */ 
.................... 	   61, /* inHz= 128, windSpeed=6.1 */ 
.................... 	   62, /* inHz= 129, windSpeed=6.2 */ 
.................... 	   62, /* inHz= 130, windSpeed=6.2 */ 
.................... 	   63, /* inHz= 131, windSpeed=6.3 */ 
.................... 	   63, /* inHz= 132, windSpeed=6.3 */ 
.................... 	   64, /* inHz= 133, windSpeed=6.4 */ 
.................... 	   64, /* inHz= 134, windSpeed=6.4 */ 
.................... 	   65, /* inHz= 135, windSpeed=6.5 */ 
.................... 	   65, /* inHz= 136, windSpeed=6.5 */ 
.................... 	   65, /* inHz= 137, windSpeed=6.5 */ 
.................... 	   66, /* inHz= 138, windSpeed=6.6 */ 
.................... 	   66, /* inHz= 139, windSpeed=6.6 */ 
.................... 	   67, /* inHz= 140, windSpeed=6.7 */ 
.................... 	   67, /* inHz= 141, windSpeed=6.7 */ 
.................... 	   68, /* inHz= 142, windSpeed=6.8 */ 
.................... 	   68, /* inHz= 143, windSpeed=6.8 */ 
.................... 	   69, /* inHz= 144, windSpeed=6.9 */ 
.................... 	   69, /* inHz= 145, windSpeed=6.9 */ 
.................... 	   70, /* inHz= 146, windSpeed=7.0 */ 
.................... 	   70, /* inHz= 147, windSpeed=7.0 */ 
.................... 	   71, /* inHz= 148, windSpeed=7.1 */ 
.................... 	   71, /* inHz= 149, windSpeed=7.1 */ 
.................... 	   71, /* inHz= 150, windSpeed=7.1 */ 
.................... 	   72, /* inHz= 151, windSpeed=7.2 */ 
.................... 	   72, /* inHz= 152, windSpeed=7.2 */ 
.................... 	   73, /* inHz= 153, windSpeed=7.3 */ 
.................... 	   73, /* inHz= 154, windSpeed=7.3 */ 
.................... 	   74, /* inHz= 155, windSpeed=7.4 */ 
.................... 	   74, /* inHz= 156, windSpeed=7.4 */ 
.................... 	   75, /* inHz= 157, windSpeed=7.5 */ 
.................... 	   75, /* inHz= 158, windSpeed=7.5 */ 
.................... 	   76, /* inHz= 159, windSpeed=7.6 */ 
.................... 	   76, /* inHz= 160, windSpeed=7.6 */ 
.................... 	   77, /* inHz= 161, windSpeed=7.7 */ 
.................... 	   77, /* inHz= 162, windSpeed=7.7 */ 
.................... 	   77, /* inHz= 163, windSpeed=7.7 */ 
.................... 	   78, /* inHz= 164, windSpeed=7.8 */ 
.................... 	   78, /* inHz= 165, windSpeed=7.8 */ 
.................... 	   79, /* inHz= 166, windSpeed=7.9 */ 
.................... 	   79, /* inHz= 167, windSpeed=7.9 */ 
.................... 	   80, /* inHz= 168, windSpeed=8.0 */ 
.................... 	   80, /* inHz= 169, windSpeed=8.0 */ 
.................... 	   81, /* inHz= 170, windSpeed=8.1 */ 
.................... 	   81, /* inHz= 171, windSpeed=8.1 */ 
.................... 	   82, /* inHz= 172, windSpeed=8.2 */ 
.................... 	   82, /* inHz= 173, windSpeed=8.2 */ 
.................... 	   82, /* inHz= 174, windSpeed=8.2 */ 
.................... 	   83, /* inHz= 175, windSpeed=8.3 */ 
.................... 	   83, /* inHz= 176, windSpeed=8.3 */ 
.................... 	   84, /* inHz= 177, windSpeed=8.4 */ 
.................... 	   84, /* inHz= 178, windSpeed=8.4 */ 
.................... 	   85, /* inHz= 179, windSpeed=8.5 */ 
.................... 	   85, /* inHz= 180, windSpeed=8.5 */ 
.................... 	   86, /* inHz= 181, windSpeed=8.6 */ 
.................... 	   86, /* inHz= 182, windSpeed=8.6 */ 
.................... 	   87, /* inHz= 183, windSpeed=8.7 */ 
.................... 	   87, /* inHz= 184, windSpeed=8.7 */ 
.................... 	   88, /* inHz= 185, windSpeed=8.8 */ 
.................... 	   88, /* inHz= 186, windSpeed=8.8 */ 
.................... 	   88, /* inHz= 187, windSpeed=8.8 */ 
.................... 	   89, /* inHz= 188, windSpeed=8.9 */ 
.................... 	   89, /* inHz= 189, windSpeed=8.9 */ 
.................... 	   90, /* inHz= 190, windSpeed=9.0 */ 
.................... 	   90, /* inHz= 191, windSpeed=9.0 */ 
.................... 	   91, /* inHz= 192, windSpeed=9.1 */ 
.................... 	   91, /* inHz= 193, windSpeed=9.1 */ 
.................... 	   92, /* inHz= 194, windSpeed=9.2 */ 
.................... 	   92, /* inHz= 195, windSpeed=9.2 */ 
.................... 	   93, /* inHz= 196, windSpeed=9.3 */ 
.................... 	   93, /* inHz= 197, windSpeed=9.3 */ 
.................... 	   94, /* inHz= 198, windSpeed=9.4 */ 
.................... 	   94, /* inHz= 199, windSpeed=9.4 */ 
.................... 	   94, /* inHz= 200, windSpeed=9.4 */ 
.................... 	   95, /* inHz= 201, windSpeed=9.5 */ 
.................... 	   95, /* inHz= 202, windSpeed=9.5 */ 
.................... 	   96, /* inHz= 203, windSpeed=9.6 */ 
.................... 	   96, /* inHz= 204, windSpeed=9.6 */ 
.................... 	   97, /* inHz= 205, windSpeed=9.7 */ 
.................... 	   97, /* inHz= 206, windSpeed=9.7 */ 
.................... 	   98, /* inHz= 207, windSpeed=9.8 */ 
.................... 	   98, /* inHz= 208, windSpeed=9.8 */ 
.................... 	   99, /* inHz= 209, windSpeed=9.9 */ 
.................... 	   99, /* inHz= 210, windSpeed=9.9 */ 
.................... 	   99, /* inHz= 211, windSpeed=9.9 */ 
.................... 	  100, /* inHz= 212, windSpeed=10.0 */ 
.................... 	  100, /* inHz= 213, windSpeed=10.0 */ 
.................... 	  101, /* inHz= 214, windSpeed=10.1 */ 
.................... 	  101, /* inHz= 215, windSpeed=10.1 */ 
.................... 	  102, /* inHz= 216, windSpeed=10.2 */ 
.................... 	  102, /* inHz= 217, windSpeed=10.2 */ 
.................... 	  103, /* inHz= 218, windSpeed=10.3 */ 
.................... 	  103, /* inHz= 219, windSpeed=10.3 */ 
.................... 	  104, /* inHz= 220, windSpeed=10.4 */ 
.................... 	  104, /* inHz= 221, windSpeed=10.4 */ 
.................... 	  105, /* inHz= 222, windSpeed=10.5 */ 
.................... 	  105, /* inHz= 223, windSpeed=10.5 */ 
.................... 	  105, /* inHz= 224, windSpeed=10.5 */ 
.................... 	  106, /* inHz= 225, windSpeed=10.6 */ 
.................... 	  106, /* inHz= 226, windSpeed=10.6 */ 
.................... 	  107, /* inHz= 227, windSpeed=10.7 */ 
.................... 	  107, /* inHz= 228, windSpeed=10.7 */ 
.................... 	  108, /* inHz= 229, windSpeed=10.8 */ 
.................... 	  108, /* inHz= 230, windSpeed=10.8 */ 
.................... 	  109, /* inHz= 231, windSpeed=10.9 */ 
.................... 	  109, /* inHz= 232, windSpeed=10.9 */ 
.................... 	  110, /* inHz= 233, windSpeed=11.0 */ 
.................... 	  110, /* inHz= 234, windSpeed=11.0 */ 
.................... 	  111, /* inHz= 235, windSpeed=11.1 */ 
.................... 	  111, /* inHz= 236, windSpeed=11.1 */ 
.................... 	  111, /* inHz= 237, windSpeed=11.1 */ 
.................... 	  112, /* inHz= 238, windSpeed=11.2 */ 
.................... 	  112, /* inHz= 239, windSpeed=11.2 */ 
.................... 	  113, /* inHz= 240, windSpeed=11.3 */ 
.................... 	  113, /* inHz= 241, windSpeed=11.3 */ 
.................... 	  114, /* inHz= 242, windSpeed=11.4 */ 
.................... 	  114, /* inHz= 243, windSpeed=11.4 */ 
.................... 	  115, /* inHz= 244, windSpeed=11.5 */ 
.................... 	  115, /* inHz= 245, windSpeed=11.5 */ 
.................... 	  116, /* inHz= 246, windSpeed=11.6 */ 
.................... 	  116, /* inHz= 247, windSpeed=11.6 */ 
.................... 	  117, /* inHz= 248, windSpeed=11.7 */ 
.................... 	  117, /* inHz= 249, windSpeed=11.7 */ 
.................... 	  117, /* inHz= 250, windSpeed=11.7 */ 
.................... 	  118, /* inHz= 251, windSpeed=11.8 */ 
.................... 	  118, /* inHz= 252, windSpeed=11.8 */ 
.................... 	  119, /* inHz= 253, windSpeed=11.9 */ 
.................... 	  119, /* inHz= 254, windSpeed=11.9 */ 
.................... 	  120, /* inHz= 255, windSpeed=12.0 */ 
.................... 	  120, /* inHz= 256, windSpeed=12.0 */ 
.................... 	  121, /* inHz= 257, windSpeed=12.1 */ 
.................... 	  121, /* inHz= 258, windSpeed=12.1 */ 
.................... 	  122, /* inHz= 259, windSpeed=12.2 */ 
.................... 	  122, /* inHz= 260, windSpeed=12.2 */ 
.................... 	  122, /* inHz= 261, windSpeed=12.2 */ 
.................... 	  123, /* inHz= 262, windSpeed=12.3 */ 
.................... 	  123, /* inHz= 263, windSpeed=12.3 */ 
.................... 	  124, /* inHz= 264, windSpeed=12.4 */ 
.................... 	  124, /* inHz= 265, windSpeed=12.4 */ 
.................... 	  125, /* inHz= 266, windSpeed=12.5 */ 
.................... 	  125, /* inHz= 267, windSpeed=12.5 */ 
.................... 	  126, /* inHz= 268, windSpeed=12.6 */ 
.................... 	  126, /* inHz= 269, windSpeed=12.6 */ 
.................... 	  127, /* inHz= 270, windSpeed=12.7 */ 
.................... 	  127, /* inHz= 271, windSpeed=12.7 */ 
.................... 	  128, /* inHz= 272, windSpeed=12.8 */ 
.................... 	  128, /* inHz= 273, windSpeed=12.8 */ 
.................... 	  128, /* inHz= 274, windSpeed=12.8 */ 
.................... 	  129, /* inHz= 275, windSpeed=12.9 */ 
.................... 	  129, /* inHz= 276, windSpeed=12.9 */ 
.................... 	  130, /* inHz= 277, windSpeed=13.0 */ 
.................... 	  130, /* inHz= 278, windSpeed=13.0 */ 
.................... 	  131, /* inHz= 279, windSpeed=13.1 */ 
.................... 	  131, /* inHz= 280, windSpeed=13.1 */ 
.................... 	  132, /* inHz= 281, windSpeed=13.2 */ 
.................... 	  132, /* inHz= 282, windSpeed=13.2 */ 
.................... 	  133, /* inHz= 283, windSpeed=13.3 */ 
.................... 	  133, /* inHz= 284, windSpeed=13.3 */ 
.................... 	  134, /* inHz= 285, windSpeed=13.4 */ 
.................... 	  134, /* inHz= 286, windSpeed=13.4 */ 
.................... 	  134, /* inHz= 287, windSpeed=13.4 */ 
.................... 	  135, /* inHz= 288, windSpeed=13.5 */ 
.................... 	  135, /* inHz= 289, windSpeed=13.5 */ 
.................... 	  136, /* inHz= 290, windSpeed=13.6 */ 
.................... 	  136, /* inHz= 291, windSpeed=13.6 */ 
.................... 	  137, /* inHz= 292, windSpeed=13.7 */ 
.................... 	  137, /* inHz= 293, windSpeed=13.7 */ 
.................... 	  138, /* inHz= 294, windSpeed=13.8 */ 
.................... 	  138, /* inHz= 295, windSpeed=13.8 */ 
.................... 	  139, /* inHz= 296, windSpeed=13.9 */ 
.................... 	  139, /* inHz= 297, windSpeed=13.9 */ 
.................... 	  139, /* inHz= 298, windSpeed=13.9 */ 
.................... 	  140, /* inHz= 299, windSpeed=14.0 */ 
.................... 	  140, /* inHz= 300, windSpeed=14.0 */ 
.................... 	  141, /* inHz= 301, windSpeed=14.1 */ 
.................... 	  141, /* inHz= 302, windSpeed=14.1 */ 
.................... 	  142, /* inHz= 303, windSpeed=14.2 */ 
.................... 	  142, /* inHz= 304, windSpeed=14.2 */ 
.................... 	  143, /* inHz= 305, windSpeed=14.3 */ 
.................... 	  143, /* inHz= 306, windSpeed=14.3 */ 
.................... 	  144, /* inHz= 307, windSpeed=14.4 */ 
.................... 	  144, /* inHz= 308, windSpeed=14.4 */ 
.................... 	  145, /* inHz= 309, windSpeed=14.5 */ 
.................... 	  145, /* inHz= 310, windSpeed=14.5 */ 
.................... 	  145, /* inHz= 311, windSpeed=14.5 */ 
.................... 	  146, /* inHz= 312, windSpeed=14.6 */ 
.................... 	  146, /* inHz= 313, windSpeed=14.6 */ 
.................... 	  147, /* inHz= 314, windSpeed=14.7 */ 
.................... 	  147, /* inHz= 315, windSpeed=14.7 */ 
.................... 	  148, /* inHz= 316, windSpeed=14.8 */ 
.................... 	  148, /* inHz= 317, windSpeed=14.8 */ 
.................... 	  149, /* inHz= 318, windSpeed=14.9 */ 
.................... 	  149, /* inHz= 319, windSpeed=14.9 */ 
.................... 	  150, /* inHz= 320, windSpeed=15.0 */ 
.................... 	  150, /* inHz= 321, windSpeed=15.0 */ 
.................... 	  151, /* inHz= 322, windSpeed=15.1 */ 
.................... 	  151, /* inHz= 323, windSpeed=15.1 */ 
.................... 	  151, /* inHz= 324, windSpeed=15.1 */ 
.................... 	  152, /* inHz= 325, windSpeed=15.2 */ 
.................... 	  152, /* inHz= 326, windSpeed=15.2 */ 
.................... 	  153, /* inHz= 327, windSpeed=15.3 */ 
.................... 	  153, /* inHz= 328, windSpeed=15.3 */ 
.................... 	  154, /* inHz= 329, windSpeed=15.4 */ 
.................... 	  154, /* inHz= 330, windSpeed=15.4 */ 
.................... 	  155, /* inHz= 331, windSpeed=15.5 */ 
.................... 	  155, /* inHz= 332, windSpeed=15.5 */ 
.................... 	  156, /* inHz= 333, windSpeed=15.6 */ 
.................... 	  156, /* inHz= 334, windSpeed=15.6 */ 
.................... 	  157, /* inHz= 335, windSpeed=15.7 */ 
.................... 	  157, /* inHz= 336, windSpeed=15.7 */ 
.................... 	  157, /* inHz= 337, windSpeed=15.7 */ 
.................... 	  158, /* inHz= 338, windSpeed=15.8 */ 
.................... 	  158, /* inHz= 339, windSpeed=15.8 */ 
.................... 	  159, /* inHz= 340, windSpeed=15.9 */ 
.................... 	  159, /* inHz= 341, windSpeed=15.9 */ 
.................... 	  160, /* inHz= 342, windSpeed=16.0 */ 
.................... 	  160, /* inHz= 343, windSpeed=16.0 */ 
.................... 	  161, /* inHz= 344, windSpeed=16.1 */ 
.................... 	  161, /* inHz= 345, windSpeed=16.1 */ 
.................... 	  162, /* inHz= 346, windSpeed=16.2 */ 
.................... 	  162, /* inHz= 347, windSpeed=16.2 */ 
.................... 	  162, /* inHz= 348, windSpeed=16.2 */ 
.................... 	  163, /* inHz= 349, windSpeed=16.3 */ 
.................... 	  163, /* inHz= 350, windSpeed=16.3 */ 
.................... 	  164, /* inHz= 351, windSpeed=16.4 */ 
.................... 	  164, /* inHz= 352, windSpeed=16.4 */ 
.................... 	  165, /* inHz= 353, windSpeed=16.5 */ 
.................... 	  165, /* inHz= 354, windSpeed=16.5 */ 
.................... 	  166, /* inHz= 355, windSpeed=16.6 */ 
.................... 	  166, /* inHz= 356, windSpeed=16.6 */ 
.................... 	  167, /* inHz= 357, windSpeed=16.7 */ 
.................... 	  167, /* inHz= 358, windSpeed=16.7 */ 
.................... 	  168, /* inHz= 359, windSpeed=16.8 */ 
.................... 	  168, /* inHz= 360, windSpeed=16.8 */ 
.................... 	  168, /* inHz= 361, windSpeed=16.8 */ 
.................... 	  169, /* inHz= 362, windSpeed=16.9 */ 
.................... 	  169, /* inHz= 363, windSpeed=16.9 */ 
.................... 	  170, /* inHz= 364, windSpeed=17.0 */ 
.................... 	  170, /* inHz= 365, windSpeed=17.0 */ 
.................... 	  171, /* inHz= 366, windSpeed=17.1 */ 
.................... 	  171, /* inHz= 367, windSpeed=17.1 */ 
.................... 	  172, /* inHz= 368, windSpeed=17.2 */ 
.................... 	  172, /* inHz= 369, windSpeed=17.2 */ 
.................... 	  173, /* inHz= 370, windSpeed=17.3 */ 
.................... 	  173, /* inHz= 371, windSpeed=17.3 */ 
.................... 	  174, /* inHz= 372, windSpeed=17.4 */ 
.................... 	  174, /* inHz= 373, windSpeed=17.4 */ 
.................... 	  174, /* inHz= 374, windSpeed=17.4 */ 
.................... 	  175, /* inHz= 375, windSpeed=17.5 */ 
.................... 	  175, /* inHz= 376, windSpeed=17.5 */ 
.................... 	  176, /* inHz= 377, windSpeed=17.6 */ 
.................... 	  176, /* inHz= 378, windSpeed=17.6 */ 
.................... 	  177, /* inHz= 379, windSpeed=17.7 */ 
.................... 	  177, /* inHz= 380, windSpeed=17.7 */ 
.................... 	  178, /* inHz= 381, windSpeed=17.8 */ 
.................... 	  178, /* inHz= 382, windSpeed=17.8 */ 
.................... 	  179, /* inHz= 383, windSpeed=17.9 */ 
.................... 	  179, /* inHz= 384, windSpeed=17.9 */ 
.................... 	  180, /* inHz= 385, windSpeed=18.0 */ 
.................... 	  180, /* inHz= 386, windSpeed=18.0 */ 
.................... 	  180, /* inHz= 387, windSpeed=18.0 */ 
.................... 	  181, /* inHz= 388, windSpeed=18.1 */ 
.................... 	  181, /* inHz= 389, windSpeed=18.1 */ 
.................... 	  182, /* inHz= 390, windSpeed=18.2 */ 
.................... 	  182, /* inHz= 391, windSpeed=18.2 */ 
.................... 	  183, /* inHz= 392, windSpeed=18.3 */ 
.................... 	  183, /* inHz= 393, windSpeed=18.3 */ 
.................... 	  184, /* inHz= 394, windSpeed=18.4 */ 
.................... 	  184, /* inHz= 395, windSpeed=18.4 */ 
.................... 	  185, /* inHz= 396, windSpeed=18.5 */ 
.................... 	  185, /* inHz= 397, windSpeed=18.5 */ 
.................... 	  185, /* inHz= 398, windSpeed=18.5 */ 
.................... 	  186, /* inHz= 399, windSpeed=18.6 */ 
.................... 	  186, /* inHz= 400, windSpeed=18.6 */ 
.................... 	  187, /* inHz= 401, windSpeed=18.7 */ 
.................... 	  187, /* inHz= 402, windSpeed=18.7 */ 
.................... 	  188, /* inHz= 403, windSpeed=18.8 */ 
.................... 	  188, /* inHz= 404, windSpeed=18.8 */ 
.................... 	  189, /* inHz= 405, windSpeed=18.9 */ 
.................... 	  189, /* inHz= 406, windSpeed=18.9 */ 
.................... 	  190, /* inHz= 407, windSpeed=19.0 */ 
.................... 	  190, /* inHz= 408, windSpeed=19.0 */ 
.................... 	  191, /* inHz= 409, windSpeed=19.1 */ 
.................... 	  191, /* inHz= 410, windSpeed=19.1 */ 
.................... 	  191, /* inHz= 411, windSpeed=19.1 */ 
.................... 	  192, /* inHz= 412, windSpeed=19.2 */ 
.................... 	  192, /* inHz= 413, windSpeed=19.2 */ 
.................... 	  193, /* inHz= 414, windSpeed=19.3 */ 
.................... 	  193, /* inHz= 415, windSpeed=19.3 */ 
.................... 	  194, /* inHz= 416, windSpeed=19.4 */ 
.................... 	  194, /* inHz= 417, windSpeed=19.4 */ 
.................... 	  195, /* inHz= 418, windSpeed=19.5 */ 
.................... 	  195, /* inHz= 419, windSpeed=19.5 */ 
.................... 	  196, /* inHz= 420, windSpeed=19.6 */ 
.................... 	  196, /* inHz= 421, windSpeed=19.6 */ 
.................... 	  197, /* inHz= 422, windSpeed=19.7 */ 
.................... 	  197, /* inHz= 423, windSpeed=19.7 */ 
.................... 	  197, /* inHz= 424, windSpeed=19.7 */ 
.................... 	  198, /* inHz= 425, windSpeed=19.8 */ 
.................... 	  198, /* inHz= 426, windSpeed=19.8 */ 
.................... 	  199, /* inHz= 427, windSpeed=19.9 */ 
.................... 	  199, /* inHz= 428, windSpeed=19.9 */ 
.................... 	  200, /* inHz= 429, windSpeed=20.0 */ 
.................... 	  200, /* inHz= 430, windSpeed=20.0 */ 
.................... 	  201, /* inHz= 431, windSpeed=20.1 */ 
.................... 	  201, /* inHz= 432, windSpeed=20.1 */ 
.................... 	  202, /* inHz= 433, windSpeed=20.2 */ 
.................... 	  202, /* inHz= 434, windSpeed=20.2 */ 
.................... 	  202, /* inHz= 435, windSpeed=20.2 */ 
.................... 	  203, /* inHz= 436, windSpeed=20.3 */ 
.................... 	  203, /* inHz= 437, windSpeed=20.3 */ 
.................... 	  204, /* inHz= 438, windSpeed=20.4 */ 
.................... 	  204, /* inHz= 439, windSpeed=20.4 */ 
.................... 	  205, /* inHz= 440, windSpeed=20.5 */ 
.................... 	  205, /* inHz= 441, windSpeed=20.5 */ 
.................... 	  206, /* inHz= 442, windSpeed=20.6 */ 
.................... 	  206, /* inHz= 443, windSpeed=20.6 */ 
.................... 	  207, /* inHz= 444, windSpeed=20.7 */ 
.................... 	  207, /* inHz= 445, windSpeed=20.7 */ 
.................... 	  208, /* inHz= 446, windSpeed=20.8 */ 
.................... 	  208, /* inHz= 447, windSpeed=20.8 */ 
.................... 	  208, /* inHz= 448, windSpeed=20.8 */ 
.................... 	  209, /* inHz= 449, windSpeed=20.9 */ 
.................... 	  209, /* inHz= 450, windSpeed=20.9 */ 
.................... 	  210, /* inHz= 451, windSpeed=21.0 */ 
.................... 	  210, /* inHz= 452, windSpeed=21.0 */ 
.................... 	  211, /* inHz= 453, windSpeed=21.1 */ 
.................... 	  211, /* inHz= 454, windSpeed=21.1 */ 
.................... 	  212, /* inHz= 455, windSpeed=21.2 */ 
.................... 	  212, /* inHz= 456, windSpeed=21.2 */ 
.................... 	  213, /* inHz= 457, windSpeed=21.3 */ 
.................... 	  213, /* inHz= 458, windSpeed=21.3 */ 
.................... 	  214, /* inHz= 459, windSpeed=21.4 */ 
.................... 	  214, /* inHz= 460, windSpeed=21.4 */ 
.................... 	  214, /* inHz= 461, windSpeed=21.4 */ 
.................... 	  215, /* inHz= 462, windSpeed=21.5 */ 
.................... 	  215, /* inHz= 463, windSpeed=21.5 */ 
.................... 	  216, /* inHz= 464, windSpeed=21.6 */ 
.................... 	  216, /* inHz= 465, windSpeed=21.6 */ 
.................... 	  217, /* inHz= 466, windSpeed=21.7 */ 
.................... 	  217, /* inHz= 467, windSpeed=21.7 */ 
.................... 	  218, /* inHz= 468, windSpeed=21.8 */ 
.................... 	  218, /* inHz= 469, windSpeed=21.8 */ 
.................... 	  219, /* inHz= 470, windSpeed=21.9 */ 
.................... 	  219, /* inHz= 471, windSpeed=21.9 */ 
.................... 	  220, /* inHz= 472, windSpeed=22.0 */ 
.................... 	  220, /* inHz= 473, windSpeed=22.0 */ 
.................... 	  220, /* inHz= 474, windSpeed=22.0 */ 
.................... 	  221, /* inHz= 475, windSpeed=22.1 */ 
.................... 	  221, /* inHz= 476, windSpeed=22.1 */ 
.................... 	  222, /* inHz= 477, windSpeed=22.2 */ 
.................... 	  222, /* inHz= 478, windSpeed=22.2 */ 
.................... 	  223, /* inHz= 479, windSpeed=22.3 */ 
.................... 	  223, /* inHz= 480, windSpeed=22.3 */ 
.................... 	  224, /* inHz= 481, windSpeed=22.4 */ 
.................... 	  224, /* inHz= 482, windSpeed=22.4 */ 
.................... 	  225, /* inHz= 483, windSpeed=22.5 */ 
.................... 	  225, /* inHz= 484, windSpeed=22.5 */ 
.................... 	  225, /* inHz= 485, windSpeed=22.5 */ 
.................... 	  226, /* inHz= 486, windSpeed=22.6 */ 
.................... 	  226, /* inHz= 487, windSpeed=22.6 */ 
.................... 	  227, /* inHz= 488, windSpeed=22.7 */ 
.................... 	  227, /* inHz= 489, windSpeed=22.7 */ 
.................... 	  228, /* inHz= 490, windSpeed=22.8 */ 
.................... 	  228, /* inHz= 491, windSpeed=22.8 */ 
.................... 	  229, /* inHz= 492, windSpeed=22.9 */ 
.................... 	  229, /* inHz= 493, windSpeed=22.9 */ 
.................... 	  230, /* inHz= 494, windSpeed=23.0 */ 
.................... 	  230, /* inHz= 495, windSpeed=23.0 */ 
.................... 	  231, /* inHz= 496, windSpeed=23.1 */ 
.................... 	  231, /* inHz= 497, windSpeed=23.1 */ 
.................... 	  231, /* inHz= 498, windSpeed=23.1 */ 
.................... 	  232, /* inHz= 499, windSpeed=23.2 */ 
.................... 	  232, /* inHz= 500, windSpeed=23.2 */ 
.................... 	  233, /* inHz= 501, windSpeed=23.3 */ 
.................... 	  233, /* inHz= 502, windSpeed=23.3 */ 
.................... 	  234, /* inHz= 503, windSpeed=23.4 */ 
.................... 	  234, /* inHz= 504, windSpeed=23.4 */ 
.................... 	  235, /* inHz= 505, windSpeed=23.5 */ 
.................... 	  235, /* inHz= 506, windSpeed=23.5 */ 
.................... 	  236, /* inHz= 507, windSpeed=23.6 */ 
.................... 	  236, /* inHz= 508, windSpeed=23.6 */ 
.................... 	  237, /* inHz= 509, windSpeed=23.7 */ 
.................... 	  237, /* inHz= 510, windSpeed=23.7 */ 
.................... 	  237, /* inHz= 511, windSpeed=23.7 */ 
.................... 	  238, /* inHz= 512, windSpeed=23.8 */ 
.................... 	  238, /* inHz= 513, windSpeed=23.8 */ 
.................... 	  239, /* inHz= 514, windSpeed=23.9 */ 
.................... 	  239, /* inHz= 515, windSpeed=23.9 */ 
.................... 	  240, /* inHz= 516, windSpeed=24.0 */ 
.................... 	  240, /* inHz= 517, windSpeed=24.0 */ 
.................... 	  241, /* inHz= 518, windSpeed=24.1 */ 
.................... 	  241, /* inHz= 519, windSpeed=24.1 */ 
.................... 	  242, /* inHz= 520, windSpeed=24.2 */ 
.................... 	  242, /* inHz= 521, windSpeed=24.2 */ 
.................... 	  242, /* inHz= 522, windSpeed=24.2 */ 
.................... 	  243, /* inHz= 523, windSpeed=24.3 */ 
.................... 	  243, /* inHz= 524, windSpeed=24.3 */ 
.................... 	  244, /* inHz= 525, windSpeed=24.4 */ 
.................... 	  244, /* inHz= 526, windSpeed=24.4 */ 
.................... 	  245, /* inHz= 527, windSpeed=24.5 */ 
.................... 	  245, /* inHz= 528, windSpeed=24.5 */ 
.................... 	  246, /* inHz= 529, windSpeed=24.6 */ 
.................... 	  246, /* inHz= 530, windSpeed=24.6 */ 
.................... 	  247, /* inHz= 531, windSpeed=24.7 */ 
.................... 	  247, /* inHz= 532, windSpeed=24.7 */ 
.................... 	  248, /* inHz= 533, windSpeed=24.8 */ 
.................... 	  248, /* inHz= 534, windSpeed=24.8 */ 
.................... 	  248, /* inHz= 535, windSpeed=24.8 */ 
.................... 	  249, /* inHz= 536, windSpeed=24.9 */ 
.................... 	  249, /* inHz= 537, windSpeed=24.9 */ 
.................... 	  250, /* inHz= 538, windSpeed=25.0 */ 
.................... 	  250, /* inHz= 539, windSpeed=25.0 */ 
.................... 	  251, /* inHz= 540, windSpeed=25.1 */ 
.................... 	  251, /* inHz= 541, windSpeed=25.1 */ 
.................... 	  252, /* inHz= 542, windSpeed=25.2 */ 
.................... 	  252, /* inHz= 543, windSpeed=25.2 */ 
.................... 	  253, /* inHz= 544, windSpeed=25.3 */ 
.................... 	  253, /* inHz= 545, windSpeed=25.3 */ 
.................... 	  254, /* inHz= 546, windSpeed=25.4 */ 
.................... 	  254, /* inHz= 547, windSpeed=25.4 */ 
.................... 	  254, /* inHz= 548, windSpeed=25.4 */ 
.................... 	  255, /* inHz= 549, windSpeed=25.5 */ 
.................... 	  255, /* inHz= 550, windSpeed=25.5 */ 
.................... 	  256, /* inHz= 551, windSpeed=25.6 */ 
.................... 	  256, /* inHz= 552, windSpeed=25.6 */ 
.................... 	  257, /* inHz= 553, windSpeed=25.7 */ 
.................... 	  257, /* inHz= 554, windSpeed=25.7 */ 
.................... 	  258, /* inHz= 555, windSpeed=25.8 */ 
.................... 	  258, /* inHz= 556, windSpeed=25.8 */ 
.................... 	  259, /* inHz= 557, windSpeed=25.9 */ 
.................... 	  259, /* inHz= 558, windSpeed=25.9 */ 
.................... 	  260, /* inHz= 559, windSpeed=26.0 */ 
.................... 	  260, /* inHz= 560, windSpeed=26.0 */ 
.................... 	  260, /* inHz= 561, windSpeed=26.0 */ 
.................... 	  261, /* inHz= 562, windSpeed=26.1 */ 
.................... 	  261, /* inHz= 563, windSpeed=26.1 */ 
.................... 	  262, /* inHz= 564, windSpeed=26.2 */ 
.................... 	  262, /* inHz= 565, windSpeed=26.2 */ 
.................... 	  263, /* inHz= 566, windSpeed=26.3 */ 
.................... 	  263, /* inHz= 567, windSpeed=26.3 */ 
.................... 	  264, /* inHz= 568, windSpeed=26.4 */ 
.................... 	  264, /* inHz= 569, windSpeed=26.4 */ 
.................... 	  265, /* inHz= 570, windSpeed=26.5 */ 
.................... 	  265, /* inHz= 571, windSpeed=26.5 */ 
.................... 	  265, /* inHz= 572, windSpeed=26.5 */ 
.................... 	  266, /* inHz= 573, windSpeed=26.6 */ 
.................... 	  266, /* inHz= 574, windSpeed=26.6 */ 
.................... 	  267, /* inHz= 575, windSpeed=26.7 */ 
.................... 	  267, /* inHz= 576, windSpeed=26.7 */ 
.................... 	  268, /* inHz= 577, windSpeed=26.8 */ 
.................... 	  268, /* inHz= 578, windSpeed=26.8 */ 
.................... 	  269, /* inHz= 579, windSpeed=26.9 */ 
.................... 	  269, /* inHz= 580, windSpeed=26.9 */ 
.................... 	  270, /* inHz= 581, windSpeed=27.0 */ 
.................... 	  270, /* inHz= 582, windSpeed=27.0 */ 
.................... 	  271, /* inHz= 583, windSpeed=27.1 */ 
.................... 	  271, /* inHz= 584, windSpeed=27.1 */ 
.................... 	  271, /* inHz= 585, windSpeed=27.1 */ 
.................... 	  272, /* inHz= 586, windSpeed=27.2 */ 
.................... 	  272, /* inHz= 587, windSpeed=27.2 */ 
.................... 	  273, /* inHz= 588, windSpeed=27.3 */ 
.................... 	  273, /* inHz= 589, windSpeed=27.3 */ 
.................... 	  274, /* inHz= 590, windSpeed=27.4 */ 
.................... 	  274, /* inHz= 591, windSpeed=27.4 */ 
.................... 	  275, /* inHz= 592, windSpeed=27.5 */ 
.................... 	  275, /* inHz= 593, windSpeed=27.5 */ 
.................... 	  276, /* inHz= 594, windSpeed=27.6 */ 
.................... 	  276, /* inHz= 595, windSpeed=27.6 */ 
.................... 	  277, /* inHz= 596, windSpeed=27.7 */ 
.................... 	  277, /* inHz= 597, windSpeed=27.7 */ 
.................... 	  277, /* inHz= 598, windSpeed=27.7 */ 
.................... 	  278, /* inHz= 599, windSpeed=27.8 */ 
.................... 	  278, /* inHz= 600, windSpeed=27.8 */ 
.................... 	  279, /* inHz= 601, windSpeed=27.9 */ 
.................... 	  279, /* inHz= 602, windSpeed=27.9 */ 
.................... 	  280, /* inHz= 603, windSpeed=28.0 */ 
.................... 	  280, /* inHz= 604, windSpeed=28.0 */ 
.................... 	  281, /* inHz= 605, windSpeed=28.1 */ 
.................... 	  281, /* inHz= 606, windSpeed=28.1 */ 
.................... 	  282, /* inHz= 607, windSpeed=28.2 */ 
.................... 	  282, /* inHz= 608, windSpeed=28.2 */ 
.................... 	  282, /* inHz= 609, windSpeed=28.2 */ 
.................... 	  283, /* inHz= 610, windSpeed=28.3 */ 
.................... 	  283, /* inHz= 611, windSpeed=28.3 */ 
.................... 	  284, /* inHz= 612, windSpeed=28.4 */ 
.................... 	  284, /* inHz= 613, windSpeed=28.4 */ 
.................... 	  285, /* inHz= 614, windSpeed=28.5 */ 
.................... 	  285, /* inHz= 615, windSpeed=28.5 */ 
.................... 	  286, /* inHz= 616, windSpeed=28.6 */ 
.................... 	  286, /* inHz= 617, windSpeed=28.6 */ 
.................... 	  287, /* inHz= 618, windSpeed=28.7 */ 
.................... 	  287, /* inHz= 619, windSpeed=28.7 */ 
.................... 	  288, /* inHz= 620, windSpeed=28.8 */ 
.................... 	  288, /* inHz= 621, windSpeed=28.8 */ 
.................... 	  288, /* inHz= 622, windSpeed=28.8 */ 
.................... 	  289, /* inHz= 623, windSpeed=28.9 */ 
.................... 	  289, /* inHz= 624, windSpeed=28.9 */ 
.................... 	  290, /* inHz= 625, windSpeed=29.0 */ 
.................... 	  290, /* inHz= 626, windSpeed=29.0 */ 
.................... 	  291, /* inHz= 627, windSpeed=29.1 */ 
.................... 	  291, /* inHz= 628, windSpeed=29.1 */ 
.................... 	  292, /* inHz= 629, windSpeed=29.2 */ 
.................... 	  292, /* inHz= 630, windSpeed=29.2 */ 
.................... 	  293, /* inHz= 631, windSpeed=29.3 */ 
.................... 	  293, /* inHz= 632, windSpeed=29.3 */ 
.................... 	  294, /* inHz= 633, windSpeed=29.4 */ 
.................... 	  294, /* inHz= 634, windSpeed=29.4 */ 
.................... 	  294, /* inHz= 635, windSpeed=29.4 */ 
.................... 	  295, /* inHz= 636, windSpeed=29.5 */ 
.................... 	  295, /* inHz= 637, windSpeed=29.5 */ 
.................... 	  296, /* inHz= 638, windSpeed=29.6 */ 
.................... 	  296, /* inHz= 639, windSpeed=29.6 */ 
.................... 	  297, /* inHz= 640, windSpeed=29.7 */ 
.................... 	  297, /* inHz= 641, windSpeed=29.7 */ 
.................... 	  298, /* inHz= 642, windSpeed=29.8 */ 
.................... 	  298, /* inHz= 643, windSpeed=29.8 */ 
.................... 	  299, /* inHz= 644, windSpeed=29.9 */ 
.................... 	  299, /* inHz= 645, windSpeed=29.9 */ 
.................... 	  300, /* inHz= 646, windSpeed=30.0 */ 
.................... 	  300, /* inHz= 647, windSpeed=30.0 */ 
.................... 	  300, /* inHz= 648, windSpeed=30.0 */ 
.................... 	  301, /* inHz= 649, windSpeed=30.1 */ 
.................... 	  301, /* inHz= 650, windSpeed=30.1 */ 
.................... 	  302, /* inHz= 651, windSpeed=30.2 */ 
.................... 	  302, /* inHz= 652, windSpeed=30.2 */ 
.................... 	  303, /* inHz= 653, windSpeed=30.3 */ 
.................... 	  303, /* inHz= 654, windSpeed=30.3 */ 
.................... 	  304, /* inHz= 655, windSpeed=30.4 */ 
.................... 	  304, /* inHz= 656, windSpeed=30.4 */ 
.................... 	  305, /* inHz= 657, windSpeed=30.5 */ 
.................... 	  305, /* inHz= 658, windSpeed=30.5 */ 
.................... 	  305, /* inHz= 659, windSpeed=30.5 */ 
.................... 	  306, /* inHz= 660, windSpeed=30.6 */ 
.................... 	  306, /* inHz= 661, windSpeed=30.6 */ 
.................... 	  307, /* inHz= 662, windSpeed=30.7 */ 
.................... 	  307, /* inHz= 663, windSpeed=30.7 */ 
.................... 	  308, /* inHz= 664, windSpeed=30.8 */ 
.................... 	  308, /* inHz= 665, windSpeed=30.8 */ 
.................... 	  309, /* inHz= 666, windSpeed=30.9 */ 
.................... 	  309, /* inHz= 667, windSpeed=30.9 */ 
.................... 	  310, /* inHz= 668, windSpeed=31.0 */ 
.................... 	  310, /* inHz= 669, windSpeed=31.0 */ 
.................... 	  311, /* inHz= 670, windSpeed=31.1 */ 
.................... 	  311, /* inHz= 671, windSpeed=31.1 */ 
.................... 	  311, /* inHz= 672, windSpeed=31.1 */ 
.................... 	  312, /* inHz= 673, windSpeed=31.2 */ 
.................... 	  312, /* inHz= 674, windSpeed=31.2 */ 
.................... 	  313, /* inHz= 675, windSpeed=31.3 */ 
.................... 	  313, /* inHz= 676, windSpeed=31.3 */ 
.................... 	  314, /* inHz= 677, windSpeed=31.4 */ 
.................... 	  314, /* inHz= 678, windSpeed=31.4 */ 
.................... 	  315, /* inHz= 679, windSpeed=31.5 */ 
.................... 	  315, /* inHz= 680, windSpeed=31.5 */ 
.................... 	  316, /* inHz= 681, windSpeed=31.6 */ 
.................... 	  316, /* inHz= 682, windSpeed=31.6 */ 
.................... 	  317, /* inHz= 683, windSpeed=31.7 */ 
.................... 	  317, /* inHz= 684, windSpeed=31.7 */ 
.................... 	  317, /* inHz= 685, windSpeed=31.7 */ 
.................... 	  318, /* inHz= 686, windSpeed=31.8 */ 
.................... 	  318, /* inHz= 687, windSpeed=31.8 */ 
.................... 	  319, /* inHz= 688, windSpeed=31.9 */ 
.................... 	  319, /* inHz= 689, windSpeed=31.9 */ 
.................... 	  320, /* inHz= 690, windSpeed=32.0 */ 
.................... 	  320, /* inHz= 691, windSpeed=32.0 */ 
.................... 	  321, /* inHz= 692, windSpeed=32.1 */ 
.................... 	  321, /* inHz= 693, windSpeed=32.1 */ 
.................... 	  322, /* inHz= 694, windSpeed=32.2 */ 
.................... 	  322, /* inHz= 695, windSpeed=32.2 */ 
.................... 	  322, /* inHz= 696, windSpeed=32.2 */ 
.................... 	  323, /* inHz= 697, windSpeed=32.3 */ 
.................... 	  323, /* inHz= 698, windSpeed=32.3 */ 
.................... 	  324, /* inHz= 699, windSpeed=32.4 */ 
.................... 	  324, /* inHz= 700, windSpeed=32.4 */ 
.................... 	  325, /* inHz= 701, windSpeed=32.5 */ 
.................... 	  325, /* inHz= 702, windSpeed=32.5 */ 
.................... 	  326, /* inHz= 703, windSpeed=32.6 */ 
.................... 	  326, /* inHz= 704, windSpeed=32.6 */ 
.................... 	  327, /* inHz= 705, windSpeed=32.7 */ 
.................... 	  327, /* inHz= 706, windSpeed=32.7 */ 
.................... 	  328, /* inHz= 707, windSpeed=32.8 */ 
.................... 	  328, /* inHz= 708, windSpeed=32.8 */ 
.................... 	  328, /* inHz= 709, windSpeed=32.8 */ 
.................... 	  329, /* inHz= 710, windSpeed=32.9 */ 
.................... 	  329, /* inHz= 711, windSpeed=32.9 */ 
.................... 	  330, /* inHz= 712, windSpeed=33.0 */ 
.................... 	  330, /* inHz= 713, windSpeed=33.0 */ 
.................... 	  331, /* inHz= 714, windSpeed=33.1 */ 
.................... 	  331, /* inHz= 715, windSpeed=33.1 */ 
.................... 	  332, /* inHz= 716, windSpeed=33.2 */ 
.................... 	  332, /* inHz= 717, windSpeed=33.2 */ 
.................... 	  333, /* inHz= 718, windSpeed=33.3 */ 
.................... 	  333, /* inHz= 719, windSpeed=33.3 */ 
.................... 	  334, /* inHz= 720, windSpeed=33.4 */ 
.................... 	  334, /* inHz= 721, windSpeed=33.4 */ 
.................... 	  334, /* inHz= 722, windSpeed=33.4 */ 
.................... 	  335, /* inHz= 723, windSpeed=33.5 */ 
.................... 	  335, /* inHz= 724, windSpeed=33.5 */ 
.................... 	  336, /* inHz= 725, windSpeed=33.6 */ 
.................... 	  336, /* inHz= 726, windSpeed=33.6 */ 
.................... 	  337, /* inHz= 727, windSpeed=33.7 */ 
.................... 	  337, /* inHz= 728, windSpeed=33.7 */ 
.................... 	  338, /* inHz= 729, windSpeed=33.8 */ 
.................... 	  338, /* inHz= 730, windSpeed=33.8 */ 
.................... 	  339, /* inHz= 731, windSpeed=33.9 */ 
.................... 	  339, /* inHz= 732, windSpeed=33.9 */ 
.................... 	  340, /* inHz= 733, windSpeed=34.0 */ 
.................... 	  340, /* inHz= 734, windSpeed=34.0 */ 
.................... 	  340, /* inHz= 735, windSpeed=34.0 */ 
.................... 	  341, /* inHz= 736, windSpeed=34.1 */ 
.................... 	  341, /* inHz= 737, windSpeed=34.1 */ 
.................... 	  342, /* inHz= 738, windSpeed=34.2 */ 
.................... 	  342, /* inHz= 739, windSpeed=34.2 */ 
.................... 	  343, /* inHz= 740, windSpeed=34.3 */ 
.................... 	  343, /* inHz= 741, windSpeed=34.3 */ 
.................... 	  344, /* inHz= 742, windSpeed=34.4 */ 
.................... 	  344, /* inHz= 743, windSpeed=34.4 */ 
.................... 	  345, /* inHz= 744, windSpeed=34.5 */ 
.................... 	  345, /* inHz= 745, windSpeed=34.5 */ 
.................... 	  345, /* inHz= 746, windSpeed=34.5 */ 
.................... 	  346, /* inHz= 747, windSpeed=34.6 */ 
.................... 	  346, /* inHz= 748, windSpeed=34.6 */ 
.................... 	  347, /* inHz= 749, windSpeed=34.7 */ 
.................... 	  347, /* inHz= 750, windSpeed=34.7 */ 
.................... 	  348, /* inHz= 751, windSpeed=34.8 */ 
.................... 	  348, /* inHz= 752, windSpeed=34.8 */ 
.................... 	  349, /* inHz= 753, windSpeed=34.9 */ 
.................... 	  349, /* inHz= 754, windSpeed=34.9 */ 
.................... 	  350, /* inHz= 755, windSpeed=35.0 */ 
.................... 	  350, /* inHz= 756, windSpeed=35.0 */ 
.................... 	  351, /* inHz= 757, windSpeed=35.1 */ 
.................... 	  351, /* inHz= 758, windSpeed=35.1 */ 
.................... 	  351, /* inHz= 759, windSpeed=35.1 */ 
.................... 	  352, /* inHz= 760, windSpeed=35.2 */ 
.................... 	  352, /* inHz= 761, windSpeed=35.2 */ 
.................... 	  353, /* inHz= 762, windSpeed=35.3 */ 
.................... 	  353, /* inHz= 763, windSpeed=35.3 */ 
.................... 	  354, /* inHz= 764, windSpeed=35.4 */ 
.................... 	  354, /* inHz= 765, windSpeed=35.4 */ 
.................... 	  355, /* inHz= 766, windSpeed=35.5 */ 
.................... 	  355, /* inHz= 767, windSpeed=35.5 */ 
.................... 	  356, /* inHz= 768, windSpeed=35.6 */ 
.................... 	  356, /* inHz= 769, windSpeed=35.6 */ 
.................... 	  357, /* inHz= 770, windSpeed=35.7 */ 
.................... 	  357, /* inHz= 771, windSpeed=35.7 */ 
.................... 	  357, /* inHz= 772, windSpeed=35.7 */ 
.................... 	  358, /* inHz= 773, windSpeed=35.8 */ 
.................... 	  358, /* inHz= 774, windSpeed=35.8 */ 
.................... 	  359, /* inHz= 775, windSpeed=35.9 */ 
.................... 	  359, /* inHz= 776, windSpeed=35.9 */ 
.................... 	  360, /* inHz= 777, windSpeed=36.0 */ 
.................... 	  360, /* inHz= 778, windSpeed=36.0 */ 
.................... 	  361, /* inHz= 779, windSpeed=36.1 */ 
.................... 	  361, /* inHz= 780, windSpeed=36.1 */ 
.................... 	  362, /* inHz= 781, windSpeed=36.2 */ 
.................... 	  362, /* inHz= 782, windSpeed=36.2 */ 
.................... 	  363, /* inHz= 783, windSpeed=36.3 */ 
.................... 	  363, /* inHz= 784, windSpeed=36.3 */ 
.................... 	  363, /* inHz= 785, windSpeed=36.3 */ 
.................... 	  364, /* inHz= 786, windSpeed=36.4 */ 
.................... 	  364, /* inHz= 787, windSpeed=36.4 */ 
.................... 	  365, /* inHz= 788, windSpeed=36.5 */ 
.................... 	  365, /* inHz= 789, windSpeed=36.5 */ 
.................... 	  366, /* inHz= 790, windSpeed=36.6 */ 
.................... 	  366, /* inHz= 791, windSpeed=36.6 */ 
.................... 	  367, /* inHz= 792, windSpeed=36.7 */ 
.................... 	  367, /* inHz= 793, windSpeed=36.7 */ 
.................... 	  368, /* inHz= 794, windSpeed=36.8 */ 
.................... 	  368, /* inHz= 795, windSpeed=36.8 */ 
.................... 	  368, /* inHz= 796, windSpeed=36.8 */ 
.................... 	  369, /* inHz= 797, windSpeed=36.9 */ 
.................... 	  369, /* inHz= 798, windSpeed=36.9 */ 
.................... 	  370, /* inHz= 799, windSpeed=37.0 */ 
.................... 	  370, /* inHz= 800, windSpeed=37.0 */ 
.................... 	  371, /* inHz= 801, windSpeed=37.1 */ 
.................... 	  371, /* inHz= 802, windSpeed=37.1 */ 
.................... 	  372, /* inHz= 803, windSpeed=37.2 */ 
.................... 	  372, /* inHz= 804, windSpeed=37.2 */ 
.................... 	  373, /* inHz= 805, windSpeed=37.3 */ 
.................... 	  373, /* inHz= 806, windSpeed=37.3 */ 
.................... 	  374, /* inHz= 807, windSpeed=37.4 */ 
.................... 	  374, /* inHz= 808, windSpeed=37.4 */ 
.................... 	  374, /* inHz= 809, windSpeed=37.4 */ 
.................... 	  375, /* inHz= 810, windSpeed=37.5 */ 
.................... 	  375, /* inHz= 811, windSpeed=37.5 */ 
.................... 	  376, /* inHz= 812, windSpeed=37.6 */ 
.................... 	  376, /* inHz= 813, windSpeed=37.6 */ 
.................... 	  377, /* inHz= 814, windSpeed=37.7 */ 
.................... 	  377, /* inHz= 815, windSpeed=37.7 */ 
.................... 	  378, /* inHz= 816, windSpeed=37.8 */ 
.................... 	  378, /* inHz= 817, windSpeed=37.8 */ 
.................... 	  379, /* inHz= 818, windSpeed=37.9 */ 
.................... 	  379, /* inHz= 819, windSpeed=37.9 */ 
.................... 	  380, /* inHz= 820, windSpeed=38.0 */ 
.................... 	  380, /* inHz= 821, windSpeed=38.0 */ 
.................... 	  380, /* inHz= 822, windSpeed=38.0 */ 
.................... 	  381, /* inHz= 823, windSpeed=38.1 */ 
.................... 	  381, /* inHz= 824, windSpeed=38.1 */ 
.................... 	  382, /* inHz= 825, windSpeed=38.2 */ 
.................... 	  382, /* inHz= 826, windSpeed=38.2 */ 
.................... 	  383, /* inHz= 827, windSpeed=38.3 */ 
.................... 	  383, /* inHz= 828, windSpeed=38.3 */ 
.................... 	  384, /* inHz= 829, windSpeed=38.4 */ 
.................... 	  384, /* inHz= 830, windSpeed=38.4 */ 
.................... 	  385, /* inHz= 831, windSpeed=38.5 */ 
.................... 	  385, /* inHz= 832, windSpeed=38.5 */ 
.................... 	  385, /* inHz= 833, windSpeed=38.5 */ 
.................... 	  386, /* inHz= 834, windSpeed=38.6 */ 
.................... 	  386, /* inHz= 835, windSpeed=38.6 */ 
.................... 	  387, /* inHz= 836, windSpeed=38.7 */ 
.................... 	  387, /* inHz= 837, windSpeed=38.7 */ 
.................... 	  388, /* inHz= 838, windSpeed=38.8 */ 
.................... 	  388, /* inHz= 839, windSpeed=38.8 */ 
.................... 	  389, /* inHz= 840, windSpeed=38.9 */ 
.................... 	  389, /* inHz= 841, windSpeed=38.9 */ 
.................... 	  390, /* inHz= 842, windSpeed=39.0 */ 
.................... 	  390, /* inHz= 843, windSpeed=39.0 */ 
.................... 	  391, /* inHz= 844, windSpeed=39.1 */ 
.................... 	  391, /* inHz= 845, windSpeed=39.1 */ 
.................... 	  391, /* inHz= 846, windSpeed=39.1 */ 
.................... 	  392, /* inHz= 847, windSpeed=39.2 */ 
.................... 	  392, /* inHz= 848, windSpeed=39.2 */ 
.................... 	  393, /* inHz= 849, windSpeed=39.3 */ 
.................... 	  393, /* inHz= 850, windSpeed=39.3 */ 
.................... 	  394, /* inHz= 851, windSpeed=39.4 */ 
.................... 	  394, /* inHz= 852, windSpeed=39.4 */ 
.................... 	  395, /* inHz= 853, windSpeed=39.5 */ 
.................... 	  395, /* inHz= 854, windSpeed=39.5 */ 
.................... 	  396, /* inHz= 855, windSpeed=39.6 */ 
.................... 	  396, /* inHz= 856, windSpeed=39.6 */ 
.................... 	  397, /* inHz= 857, windSpeed=39.7 */ 
.................... 	  397, /* inHz= 858, windSpeed=39.7 */ 
.................... 	  397, /* inHz= 859, windSpeed=39.7 */ 
.................... 	  398, /* inHz= 860, windSpeed=39.8 */ 
.................... 	  398, /* inHz= 861, windSpeed=39.8 */ 
.................... 	  399, /* inHz= 862, windSpeed=39.9 */ 
.................... 	  399, /* inHz= 863, windSpeed=39.9 */ 
.................... 	  400, /* inHz= 864, windSpeed=40.0 */ 
.................... 	  400, /* inHz= 865, windSpeed=40.0 */ 
.................... 	  401, /* inHz= 866, windSpeed=40.1 */ 
.................... 	  401, /* inHz= 867, windSpeed=40.1 */ 
.................... 	  402, /* inHz= 868, windSpeed=40.2 */ 
.................... 	  402, /* inHz= 869, windSpeed=40.2 */ 
.................... 	  403, /* inHz= 870, windSpeed=40.3 */ 
.................... 	  403, /* inHz= 871, windSpeed=40.3 */ 
.................... 	  403, /* inHz= 872, windSpeed=40.3 */ 
.................... 	  404, /* inHz= 873, windSpeed=40.4 */ 
.................... 	  404, /* inHz= 874, windSpeed=40.4 */ 
.................... 	  405, /* inHz= 875, windSpeed=40.5 */ 
.................... 	  405, /* inHz= 876, windSpeed=40.5 */ 
.................... 	  406, /* inHz= 877, windSpeed=40.6 */ 
.................... 	  406, /* inHz= 878, windSpeed=40.6 */ 
.................... 	  407, /* inHz= 879, windSpeed=40.7 */ 
.................... 	  407, /* inHz= 880, windSpeed=40.7 */ 
.................... 	  408, /* inHz= 881, windSpeed=40.8 */ 
.................... 	  408, /* inHz= 882, windSpeed=40.8 */ 
.................... 	  408, /* inHz= 883, windSpeed=40.8 */ 
.................... 	  409, /* inHz= 884, windSpeed=40.9 */ 
.................... 	  409, /* inHz= 885, windSpeed=40.9 */ 
.................... 	  410, /* inHz= 886, windSpeed=41.0 */ 
.................... 	  410, /* inHz= 887, windSpeed=41.0 */ 
.................... 	  411, /* inHz= 888, windSpeed=41.1 */ 
.................... 	  411, /* inHz= 889, windSpeed=41.1 */ 
.................... 	  412, /* inHz= 890, windSpeed=41.2 */ 
.................... 	  412, /* inHz= 891, windSpeed=41.2 */ 
.................... 	  413, /* inHz= 892, windSpeed=41.3 */ 
.................... 	  413, /* inHz= 893, windSpeed=41.3 */ 
.................... 	  414, /* inHz= 894, windSpeed=41.4 */ 
.................... 	  414, /* inHz= 895, windSpeed=41.4 */ 
.................... 	  414, /* inHz= 896, windSpeed=41.4 */ 
.................... 	  415, /* inHz= 897, windSpeed=41.5 */ 
.................... 	  415, /* inHz= 898, windSpeed=41.5 */ 
.................... 	  416, /* inHz= 899, windSpeed=41.6 */ 
.................... 	  416, /* inHz= 900, windSpeed=41.6 */ 
.................... 	  417, /* inHz= 901, windSpeed=41.7 */ 
.................... 	  417, /* inHz= 902, windSpeed=41.7 */ 
.................... 	  418, /* inHz= 903, windSpeed=41.8 */ 
.................... 	  418, /* inHz= 904, windSpeed=41.8 */ 
.................... 	  419, /* inHz= 905, windSpeed=41.9 */ 
.................... 	  419, /* inHz= 906, windSpeed=41.9 */ 
.................... 	  420, /* inHz= 907, windSpeed=42.0 */ 
.................... 	  420, /* inHz= 908, windSpeed=42.0 */ 
.................... 	  420, /* inHz= 909, windSpeed=42.0 */ 
.................... 	  421, /* inHz= 910, windSpeed=42.1 */ 
.................... 	  421, /* inHz= 911, windSpeed=42.1 */ 
.................... 	  422, /* inHz= 912, windSpeed=42.2 */ 
.................... 	  422, /* inHz= 913, windSpeed=42.2 */ 
.................... 	  423, /* inHz= 914, windSpeed=42.3 */ 
.................... 	  423, /* inHz= 915, windSpeed=42.3 */ 
.................... 	  424, /* inHz= 916, windSpeed=42.4 */ 
.................... 	  424, /* inHz= 917, windSpeed=42.4 */ 
.................... 	  425, /* inHz= 918, windSpeed=42.5 */ 
.................... 	  425, /* inHz= 919, windSpeed=42.5 */ 
.................... 	  425, /* inHz= 920, windSpeed=42.5 */ 
.................... 	  426, /* inHz= 921, windSpeed=42.6 */ 
.................... 	  426, /* inHz= 922, windSpeed=42.6 */ 
.................... 	  427, /* inHz= 923, windSpeed=42.7 */ 
.................... 	  427, /* inHz= 924, windSpeed=42.7 */ 
.................... 	  428, /* inHz= 925, windSpeed=42.8 */ 
.................... 	  428, /* inHz= 926, windSpeed=42.8 */ 
.................... 	  429, /* inHz= 927, windSpeed=42.9 */ 
.................... 	  429, /* inHz= 928, windSpeed=42.9 */ 
.................... 	  430, /* inHz= 929, windSpeed=43.0 */ 
.................... 	  430, /* inHz= 930, windSpeed=43.0 */ 
.................... 	  431, /* inHz= 931, windSpeed=43.1 */ 
.................... 	  431, /* inHz= 932, windSpeed=43.1 */ 
.................... 	  431, /* inHz= 933, windSpeed=43.1 */ 
.................... 	  432, /* inHz= 934, windSpeed=43.2 */ 
.................... 	  432, /* inHz= 935, windSpeed=43.2 */ 
.................... 	  433, /* inHz= 936, windSpeed=43.3 */ 
.................... 	  433, /* inHz= 937, windSpeed=43.3 */ 
.................... 	  434, /* inHz= 938, windSpeed=43.4 */ 
.................... 	  434, /* inHz= 939, windSpeed=43.4 */ 
.................... 	  435, /* inHz= 940, windSpeed=43.5 */ 
.................... 	  435, /* inHz= 941, windSpeed=43.5 */ 
.................... 	  436, /* inHz= 942, windSpeed=43.6 */ 
.................... 	  436, /* inHz= 943, windSpeed=43.6 */ 
.................... 	  437, /* inHz= 944, windSpeed=43.7 */ 
.................... 	  437, /* inHz= 945, windSpeed=43.7 */ 
.................... 	  437, /* inHz= 946, windSpeed=43.7 */ 
.................... 	  438, /* inHz= 947, windSpeed=43.8 */ 
.................... 	  438, /* inHz= 948, windSpeed=43.8 */ 
.................... 	  439, /* inHz= 949, windSpeed=43.9 */ 
.................... 	  439, /* inHz= 950, windSpeed=43.9 */ 
.................... 	  440, /* inHz= 951, windSpeed=44.0 */ 
.................... 	  440, /* inHz= 952, windSpeed=44.0 */ 
.................... 	  441, /* inHz= 953, windSpeed=44.1 */ 
.................... 	  441, /* inHz= 954, windSpeed=44.1 */ 
.................... 	  442, /* inHz= 955, windSpeed=44.2 */ 
.................... 	  442, /* inHz= 956, windSpeed=44.2 */ 
.................... 	  443, /* inHz= 957, windSpeed=44.3 */ 
.................... 	  443, /* inHz= 958, windSpeed=44.3 */ 
.................... 	  443, /* inHz= 959, windSpeed=44.3 */ 
.................... 	  444, /* inHz= 960, windSpeed=44.4 */ 
.................... 	  444, /* inHz= 961, windSpeed=44.4 */ 
.................... 	  445, /* inHz= 962, windSpeed=44.5 */ 
.................... 	  445, /* inHz= 963, windSpeed=44.5 */ 
.................... 	  446, /* inHz= 964, windSpeed=44.6 */ 
.................... 	  446, /* inHz= 965, windSpeed=44.6 */ 
.................... 	  447, /* inHz= 966, windSpeed=44.7 */ 
.................... 	  447, /* inHz= 967, windSpeed=44.7 */ 
.................... 	  448, /* inHz= 968, windSpeed=44.8 */ 
.................... 	  448, /* inHz= 969, windSpeed=44.8 */ 
.................... 	  448, /* inHz= 970, windSpeed=44.8 */ 
.................... 	  449, /* inHz= 971, windSpeed=44.9 */ 
.................... 	  449, /* inHz= 972, windSpeed=44.9 */ 
.................... 	  450, /* inHz= 973, windSpeed=45.0 */ 
.................... 	  450, /* inHz= 974, windSpeed=45.0 */ 
.................... 	  451, /* inHz= 975, windSpeed=45.1 */ 
.................... 	  451, /* inHz= 976, windSpeed=45.1 */ 
.................... 	  452, /* inHz= 977, windSpeed=45.2 */ 
.................... 	  452, /* inHz= 978, windSpeed=45.2 */ 
.................... 	  453, /* inHz= 979, windSpeed=45.3 */ 
.................... 	  453, /* inHz= 980, windSpeed=45.3 */ 
.................... 	  454, /* inHz= 981, windSpeed=45.4 */ 
.................... 	  454, /* inHz= 982, windSpeed=45.4 */ 
.................... 	  454, /* inHz= 983, windSpeed=45.4 */ 
.................... 	  455, /* inHz= 984, windSpeed=45.5 */ 
.................... 	  455, /* inHz= 985, windSpeed=45.5 */ 
.................... 	  456, /* inHz= 986, windSpeed=45.6 */ 
.................... 	  456, /* inHz= 987, windSpeed=45.6 */ 
.................... 	  457, /* inHz= 988, windSpeed=45.7 */ 
.................... 	  457, /* inHz= 989, windSpeed=45.7 */ 
.................... 	  458, /* inHz= 990, windSpeed=45.8 */ 
.................... 	  458, /* inHz= 991, windSpeed=45.8 */ 
.................... 	  459, /* inHz= 992, windSpeed=45.9 */ 
.................... 	  459, /* inHz= 993, windSpeed=45.9 */ 
.................... 	  460, /* inHz= 994, windSpeed=46.0 */ 
.................... 	  460, /* inHz= 995, windSpeed=46.0 */ 
.................... 	  460, /* inHz= 996, windSpeed=46.0 */ 
.................... 	  461, /* inHz= 997, windSpeed=46.1 */ 
.................... 	  461, /* inHz= 998, windSpeed=46.1 */ 
.................... 	  462, /* inHz= 999, windSpeed=46.2 */ 
.................... 	  462, /* inHz=1000, windSpeed=46.2 */ 
.................... 	  463, /* inHz=1001, windSpeed=46.3 */ 
.................... 	  463, /* inHz=1002, windSpeed=46.3 */ 
.................... 	  464, /* inHz=1003, windSpeed=46.4 */ 
.................... 	  464, /* inHz=1004, windSpeed=46.4 */ 
.................... 	  465, /* inHz=1005, windSpeed=46.5 */ 
.................... 	  465, /* inHz=1006, windSpeed=46.5 */ 
.................... 	  465, /* inHz=1007, windSpeed=46.5 */ 
.................... 	  466, /* inHz=1008, windSpeed=46.6 */ 
.................... 	  466, /* inHz=1009, windSpeed=46.6 */ 
.................... 	  467, /* inHz=1010, windSpeed=46.7 */ 
.................... 	  467, /* inHz=1011, windSpeed=46.7 */ 
.................... 	  468, /* inHz=1012, windSpeed=46.8 */ 
.................... 	  468, /* inHz=1013, windSpeed=46.8 */ 
.................... 	  469, /* inHz=1014, windSpeed=46.9 */ 
.................... 	  469, /* inHz=1015, windSpeed=46.9 */ 
.................... 	  470, /* inHz=1016, windSpeed=47.0 */ 
.................... 	  470, /* inHz=1017, windSpeed=47.0 */ 
.................... 	  471, /* inHz=1018, windSpeed=47.1 */ 
.................... 	  471, /* inHz=1019, windSpeed=47.1 */ 
.................... 	  471, /* inHz=1020, windSpeed=47.1 */ 
.................... 	  472, /* inHz=1021, windSpeed=47.2 */ 
.................... 	  472, /* inHz=1022, windSpeed=47.2 */ 
.................... 	  473, /* inHz=1023, windSpeed=47.3 */ 
.................... 	  473, /* inHz=1024, windSpeed=47.3 */ 
.................... 	  474, /* inHz=1025, windSpeed=47.4 */ 
.................... 	  474, /* inHz=1026, windSpeed=47.4 */ 
.................... 	  475, /* inHz=1027, windSpeed=47.5 */ 
.................... 	  475, /* inHz=1028, windSpeed=47.5 */ 
.................... 	  476, /* inHz=1029, windSpeed=47.6 */ 
.................... 	  476, /* inHz=1030, windSpeed=47.6 */ 
.................... 	  477, /* inHz=1031, windSpeed=47.7 */ 
.................... 	  477, /* inHz=1032, windSpeed=47.7 */ 
.................... 	  477, /* inHz=1033, windSpeed=47.7 */ 
.................... 	  478, /* inHz=1034, windSpeed=47.8 */ 
.................... 	  478, /* inHz=1035, windSpeed=47.8 */ 
.................... 	  479, /* inHz=1036, windSpeed=47.9 */ 
.................... 	  479, /* inHz=1037, windSpeed=47.9 */ 
.................... 	  480, /* inHz=1038, windSpeed=48.0 */ 
.................... 	  480, /* inHz=1039, windSpeed=48.0 */ 
.................... 	  481, /* inHz=1040, windSpeed=48.1 */ 
.................... 	  481, /* inHz=1041, windSpeed=48.1 */ 
.................... 	  482, /* inHz=1042, windSpeed=48.2 */ 
.................... 	  482, /* inHz=1043, windSpeed=48.2 */ 
.................... 	  483, /* inHz=1044, windSpeed=48.3 */ 
.................... 	  483, /* inHz=1045, windSpeed=48.3 */ 
.................... 	  483, /* inHz=1046, windSpeed=48.3 */ 
.................... 	  484, /* inHz=1047, windSpeed=48.4 */ 
.................... 	  484, /* inHz=1048, windSpeed=48.4 */ 
.................... 	  485, /* inHz=1049, windSpeed=48.5 */ 
.................... 	  485, /* inHz=1050, windSpeed=48.5 */ 
.................... 	  486, /* inHz=1051, windSpeed=48.6 */ 
.................... 	  486, /* inHz=1052, windSpeed=48.6 */ 
.................... 	  487, /* inHz=1053, windSpeed=48.7 */ 
.................... 	  487, /* inHz=1054, windSpeed=48.7 */ 
.................... 	  488, /* inHz=1055, windSpeed=48.8 */ 
.................... 	  488, /* inHz=1056, windSpeed=48.8 */ 
.................... 	  488, /* inHz=1057, windSpeed=48.8 */ 
.................... 	  489, /* inHz=1058, windSpeed=48.9 */ 
.................... 	  489, /* inHz=1059, windSpeed=48.9 */ 
.................... 	  490, /* inHz=1060, windSpeed=49.0 */ 
.................... 	  490, /* inHz=1061, windSpeed=49.0 */ 
.................... 	  491, /* inHz=1062, windSpeed=49.1 */ 
.................... 	  491, /* inHz=1063, windSpeed=49.1 */ 
.................... 	  492, /* inHz=1064, windSpeed=49.2 */ 
.................... 	  492, /* inHz=1065, windSpeed=49.2 */ 
.................... 	  493, /* inHz=1066, windSpeed=49.3 */ 
.................... 	  493, /* inHz=1067, windSpeed=49.3 */ 
.................... 	  494, /* inHz=1068, windSpeed=49.4 */ 
.................... 	  494, /* inHz=1069, windSpeed=49.4 */ 
.................... 	  494, /* inHz=1070, windSpeed=49.4 */ 
.................... 	  495, /* inHz=1071, windSpeed=49.5 */ 
.................... 	  495, /* inHz=1072, windSpeed=49.5 */ 
.................... 	  496, /* inHz=1073, windSpeed=49.6 */ 
.................... 	  496, /* inHz=1074, windSpeed=49.6 */ 
.................... 	  497, /* inHz=1075, windSpeed=49.7 */ 
.................... 	  497, /* inHz=1076, windSpeed=49.7 */ 
.................... 	  498, /* inHz=1077, windSpeed=49.8 */ 
.................... 	  498, /* inHz=1078, windSpeed=49.8 */ 
.................... 	  499, /* inHz=1079, windSpeed=49.9 */ 
.................... 	  499, /* inHz=1080, windSpeed=49.9 */ 
.................... 	  500, /* inHz=1081, windSpeed=50.0 */ 
.................... 	  500, /* inHz=1082, windSpeed=50.0 */ 
.................... 	  500, /* inHz=1083, windSpeed=50.0 */ 
.................... 	  501, /* inHz=1084, windSpeed=50.1 */ 
.................... 	  501, /* inHz=1085, windSpeed=50.1 */ 
.................... 	  502, /* inHz=1086, windSpeed=50.2 */ 
.................... 	  502, /* inHz=1087, windSpeed=50.2 */ 
.................... 	  503, /* inHz=1088, windSpeed=50.3 */ 
.................... 	  503, /* inHz=1089, windSpeed=50.3 */ 
.................... 	  504, /* inHz=1090, windSpeed=50.4 */ 
.................... 	  504, /* inHz=1091, windSpeed=50.4 */ 
.................... 	  505, /* inHz=1092, windSpeed=50.5 */ 
.................... 	  505, /* inHz=1093, windSpeed=50.5 */ 
.................... 	  505, /* inHz=1094, windSpeed=50.5 */ 
.................... 	  506, /* inHz=1095, windSpeed=50.6 */ 
.................... 	  506, /* inHz=1096, windSpeed=50.6 */ 
.................... 	  507, /* inHz=1097, windSpeed=50.7 */ 
.................... 	  507, /* inHz=1098, windSpeed=50.7 */ 
.................... 	  508, /* inHz=1099, windSpeed=50.8 */ 
.................... 	  508, /* inHz=1100, windSpeed=50.8 */ 
.................... 	  509, /* inHz=1101, windSpeed=50.9 */ 
.................... 	  509, /* inHz=1102, windSpeed=50.9 */ 
.................... 	  510, /* inHz=1103, windSpeed=51.0 */ 
.................... 	  510, /* inHz=1104, windSpeed=51.0 */ 
.................... 	  511, /* inHz=1105, windSpeed=51.1 */ 
.................... 	  511, /* inHz=1106, windSpeed=51.1 */ 
.................... 	  511, /* inHz=1107, windSpeed=51.1 */ 
.................... 	  512, /* inHz=1108, windSpeed=51.2 */ 
.................... 	  512, /* inHz=1109, windSpeed=51.2 */ 
.................... 	  513, /* inHz=1110, windSpeed=51.3 */ 
.................... 	  513, /* inHz=1111, windSpeed=51.3 */ 
.................... 	  514, /* inHz=1112, windSpeed=51.4 */ 
.................... 	  514, /* inHz=1113, windSpeed=51.4 */ 
.................... 	  515, /* inHz=1114, windSpeed=51.5 */ 
.................... 	  515, /* inHz=1115, windSpeed=51.5 */ 
.................... 	  516, /* inHz=1116, windSpeed=51.6 */ 
.................... 	  516, /* inHz=1117, windSpeed=51.6 */ 
.................... 	  517, /* inHz=1118, windSpeed=51.7 */ 
.................... 	  517, /* inHz=1119, windSpeed=51.7 */ 
.................... 	  517, /* inHz=1120, windSpeed=51.7 */ 
.................... 	  518, /* inHz=1121, windSpeed=51.8 */ 
.................... 	  518, /* inHz=1122, windSpeed=51.8 */ 
.................... 	  519, /* inHz=1123, windSpeed=51.9 */ 
.................... 	  519, /* inHz=1124, windSpeed=51.9 */ 
.................... 	  520, /* inHz=1125, windSpeed=52.0 */ 
.................... 	  520, /* inHz=1126, windSpeed=52.0 */ 
.................... 	  521, /* inHz=1127, windSpeed=52.1 */ 
.................... 	  521, /* inHz=1128, windSpeed=52.1 */ 
.................... 	  522, /* inHz=1129, windSpeed=52.2 */ 
.................... 	  522, /* inHz=1130, windSpeed=52.2 */ 
.................... 	  523, /* inHz=1131, windSpeed=52.3 */ 
.................... 	  523, /* inHz=1132, windSpeed=52.3 */ 
.................... 	  523, /* inHz=1133, windSpeed=52.3 */ 
.................... 	  524, /* inHz=1134, windSpeed=52.4 */ 
.................... 	  524, /* inHz=1135, windSpeed=52.4 */ 
.................... 	  525, /* inHz=1136, windSpeed=52.5 */ 
.................... 	  525, /* inHz=1137, windSpeed=52.5 */ 
.................... 	  526, /* inHz=1138, windSpeed=52.6 */ 
.................... 	  526, /* inHz=1139, windSpeed=52.6 */ 
.................... 	  527, /* inHz=1140, windSpeed=52.7 */ 
.................... 	  527, /* inHz=1141, windSpeed=52.7 */ 
.................... 	  528, /* inHz=1142, windSpeed=52.8 */ 
.................... 	  528, /* inHz=1143, windSpeed=52.8 */ 
.................... 	  528, /* inHz=1144, windSpeed=52.8 */ 
.................... 	  529, /* inHz=1145, windSpeed=52.9 */ 
.................... 	  529, /* inHz=1146, windSpeed=52.9 */ 
.................... 	  530, /* inHz=1147, windSpeed=53.0 */ 
.................... 	  530, /* inHz=1148, windSpeed=53.0 */ 
.................... 	  531, /* inHz=1149, windSpeed=53.1 */ 
.................... 	  531, /* inHz=1150, windSpeed=53.1 */ 
.................... 	  532, /* inHz=1151, windSpeed=53.2 */ 
.................... 	  532, /* inHz=1152, windSpeed=53.2 */ 
.................... 	  533, /* inHz=1153, windSpeed=53.3 */ 
.................... 	  533, /* inHz=1154, windSpeed=53.3 */ 
.................... 	  534, /* inHz=1155, windSpeed=53.4 */ 
.................... 	  534, /* inHz=1156, windSpeed=53.4 */ 
.................... 	  534, /* inHz=1157, windSpeed=53.4 */ 
.................... 	  535, /* inHz=1158, windSpeed=53.5 */ 
.................... 	  535, /* inHz=1159, windSpeed=53.5 */ 
.................... 	  536, /* inHz=1160, windSpeed=53.6 */ 
.................... 	  536, /* inHz=1161, windSpeed=53.6 */ 
.................... 	  537, /* inHz=1162, windSpeed=53.7 */ 
.................... 	  537, /* inHz=1163, windSpeed=53.7 */ 
.................... 	  538, /* inHz=1164, windSpeed=53.8 */ 
.................... 	  538, /* inHz=1165, windSpeed=53.8 */ 
.................... 	  539, /* inHz=1166, windSpeed=53.9 */ 
.................... 	  539, /* inHz=1167, windSpeed=53.9 */ 
.................... 	  540, /* inHz=1168, windSpeed=54.0 */ 
.................... 	  540, /* inHz=1169, windSpeed=54.0 */ 
.................... 	  540, /* inHz=1170, windSpeed=54.0 */ 
.................... 	  541, /* inHz=1171, windSpeed=54.1 */ 
.................... 	  541, /* inHz=1172, windSpeed=54.1 */ 
.................... 	  542, /* inHz=1173, windSpeed=54.2 */ 
.................... 	  542, /* inHz=1174, windSpeed=54.2 */ 
.................... 	  543, /* inHz=1175, windSpeed=54.3 */ 
.................... 	  543, /* inHz=1176, windSpeed=54.3 */ 
.................... 	  544, /* inHz=1177, windSpeed=54.4 */ 
.................... 	  544, /* inHz=1178, windSpeed=54.4 */ 
.................... 	  545, /* inHz=1179, windSpeed=54.5 */ 
.................... 	  545, /* inHz=1180, windSpeed=54.5 */ 
.................... 	  546, /* inHz=1181, windSpeed=54.6 */ 
.................... 	  546, /* inHz=1182, windSpeed=54.6 */ 
.................... 	  546, /* inHz=1183, windSpeed=54.6 */ 
.................... 	  547, /* inHz=1184, windSpeed=54.7 */ 
.................... 	  547, /* inHz=1185, windSpeed=54.7 */ 
.................... 	  548, /* inHz=1186, windSpeed=54.8 */ 
.................... 	  548, /* inHz=1187, windSpeed=54.8 */ 
.................... 	  549, /* inHz=1188, windSpeed=54.9 */ 
.................... 	  549, /* inHz=1189, windSpeed=54.9 */ 
.................... 	  550, /* inHz=1190, windSpeed=55.0 */ 
.................... 	  550, /* inHz=1191, windSpeed=55.0 */ 
.................... 	  551, /* inHz=1192, windSpeed=55.1 */ 
.................... 	  551, /* inHz=1193, windSpeed=55.1 */ 
.................... 	  551, /* inHz=1194, windSpeed=55.1 */ 
.................... 	  552, /* inHz=1195, windSpeed=55.2 */ 
.................... 	  552, /* inHz=1196, windSpeed=55.2 */ 
.................... 	  553, /* inHz=1197, windSpeed=55.3 */ 
.................... 	  553, /* inHz=1198, windSpeed=55.3 */ 
.................... 	  554, /* inHz=1199, windSpeed=55.4 */ 
.................... 	  554  /* inHz=1200, windSpeed=55.4 */ 
.................... }; 
....................  
.................... int16 anemometer_thies_to_ws(int16 frequency) { 
.................... 	if ( frequency > HZ_TO_WS_MAX ) 
*
5BB2:  MOVLB  4
5BB4:  MOVF   x61,W
5BB6:  SUBLW  03
5BB8:  BC    5BCC
5BBA:  XORLW  FF
5BBC:  BNZ   5BC4
5BBE:  MOVF   x60,W
5BC0:  SUBLW  B0
5BC2:  BC    5BCC
.................... 		return 0; 
5BC4:  MOVLW  00
5BC6:  MOVWF  01
5BC8:  MOVWF  02
5BCA:  BRA    5BF0
....................  
.................... 	return hz_to_ws[frequency]; 
5BCC:  BCF    FD8.0
5BCE:  RLCF   x60,W
5BD0:  MOVWF  02
5BD2:  RLCF   x61,W
5BD4:  MOVWF  03
5BD6:  MOVF   02,W
5BD8:  MOVFF  03,FF7
5BDC:  MOVLB  0
5BDE:  CALL   0B06
5BE2:  TBLRD*+
5BE4:  MOVFF  FF5,03
5BE8:  MOVWF  01
5BEA:  MOVFF  03,02
5BEE:  MOVLB  4
.................... } 
5BF0:  MOVLB  0
5BF2:  RETURN 0
....................  
.................... #include "interrupts.c" 
.................... #int_timer3 
.................... /* this timer only runs during boot-up to do key presses */ 
.................... void isr_10ms_boot(void) { 
.................... 	static int16 b0_state=0; 
.................... 	static int16 b1_state=0; 
.................... 	static int16 b2_state=0; 
....................  
.................... 	set_timer3(45536); 
*
1490:  MOVLW  B1
1492:  MOVWF  FB3
1494:  MOVLW  E0
1496:  MOVWF  FB2
....................  
.................... 	action.port_b=port_b; 
1498:  MOVFF  F81,181
....................  
.................... 	/* button must be down for 12 milliseconds */ 
.................... 	b0_state=(b0_state<<1) | !bit_test(action.port_b,BUTTON_0_BIT) | 0xe000; 
149C:  BCF    FD8.0
149E:  MOVLB  4
14A0:  RLCF   x0E,W
14A2:  MOVLB  5
14A4:  MOVWF  xCC
14A6:  MOVLB  4
14A8:  RLCF   x0F,W
14AA:  MOVLB  5
14AC:  MOVWF  xCD
14AE:  MOVLW  00
14B0:  MOVLB  1
14B2:  BTFSS  x81.5
14B4:  MOVLW  01
14B6:  MOVLB  5
14B8:  IORWF  xCC,F
14BA:  MOVFF  5CC,40E
14BE:  MOVLB  5
14C0:  MOVF   xCD,W
14C2:  IORLW  E0
14C4:  MOVLB  4
14C6:  MOVWF  x0F
.................... 	if ( b0_state==0xf000) { 
14C8:  MOVF   x0E,F
14CA:  BNZ   14DE
14CC:  MOVF   x0F,W
14CE:  SUBLW  F0
14D0:  BNZ   14DE
.................... 		action.down_now=1; 
14D2:  MOVLB  1
14D4:  BSF    x80.3
.................... 		action.now_redraw=1; 
14D6:  BSF    x7F.0
.................... 		timers.backlight_seconds=BACKLIGHT_TIMEOUT_SECONDS; 
14D8:  MOVLW  1E
14DA:  MOVWF  x88
14DC:  MOVLB  4
.................... 	} 
.................... 	b1_state=(b1_state<<1) | !bit_test(action.port_b,BUTTON_1_BIT) | 0xe000; 
14DE:  BCF    FD8.0
14E0:  RLCF   x10,W
14E2:  MOVLB  5
14E4:  MOVWF  xCC
14E6:  MOVLB  4
14E8:  RLCF   x11,W
14EA:  MOVLB  5
14EC:  MOVWF  xCD
14EE:  MOVLW  00
14F0:  MOVLB  1
14F2:  BTFSS  x81.6
14F4:  MOVLW  01
14F6:  MOVLB  5
14F8:  IORWF  xCC,F
14FA:  MOVFF  5CC,410
14FE:  MOVLB  5
1500:  MOVF   xCD,W
1502:  IORLW  E0
1504:  MOVLB  4
1506:  MOVWF  x11
.................... 	if ( b1_state==0xf000) { 
1508:  MOVF   x10,F
150A:  BNZ   151E
150C:  MOVF   x11,W
150E:  SUBLW  F0
1510:  BNZ   151E
.................... 		action.select_now=1;	 
1512:  MOVLB  1
1514:  BSF    x80.4
.................... 		action.now_redraw=1; 
1516:  BSF    x7F.0
.................... 		timers.backlight_seconds=BACKLIGHT_TIMEOUT_SECONDS; 
1518:  MOVLW  1E
151A:  MOVWF  x88
151C:  MOVLB  4
.................... 	} 
....................  
.................... 	b2_state=(b2_state<<1) | !bit_test(action.port_b,BUTTON_2_BIT) | 0xe000; 
151E:  BCF    FD8.0
1520:  RLCF   x12,W
1522:  MOVLB  5
1524:  MOVWF  xCC
1526:  MOVLB  4
1528:  RLCF   x13,W
152A:  MOVLB  5
152C:  MOVWF  xCD
152E:  MOVLW  00
1530:  MOVLB  1
1532:  BTFSS  x81.7
1534:  MOVLW  01
1536:  MOVLB  5
1538:  IORWF  xCC,F
153A:  MOVFF  5CC,412
153E:  MOVLB  5
1540:  MOVF   xCD,W
1542:  IORLW  E0
1544:  MOVLB  4
1546:  MOVWF  x13
.................... 	if ( b2_state==0xf000) { 
1548:  MOVF   x12,F
154A:  BNZ   155E
154C:  MOVF   x13,W
154E:  SUBLW  F0
1550:  BNZ   155E
.................... 		action.up_now=1; 
1552:  MOVLB  1
1554:  BSF    x80.2
.................... 		action.now_redraw=1; 
1556:  BSF    x7F.0
.................... 		timers.backlight_seconds=BACKLIGHT_TIMEOUT_SECONDS; 
1558:  MOVLW  1E
155A:  MOVWF  x88
155C:  MOVLB  4
.................... 	} 
.................... } 
....................  
....................  
155E:  BCF    FA1.1
1560:  MOVLB  0
1562:  GOTO   0088
.................... #int_timer2 HIGH 
.................... /* this timer only runs once booted and anemometer type isn't THIES */ 
.................... void isr_100us(void) { 
.................... 	static int8 tick=0; 
.................... 	static int16 tock=0; 
....................  
.................... 	/* anemometer polling state variables */ 
.................... 	/* anemometer 0 / PIN_B0 */ 
.................... 	short ext0_count; 
.................... 	short ext0_now; 
.................... 	static short ext0_last=0; 
.................... 	static short ext0_state=0; 
....................  
.................... 	/* every 100 cycles we tell main() loop to do 10 milisecond activities */ 
.................... 	tick++; 
1566:  MOVLB  4
1568:  INCF   x14,F
.................... 	if ( 100 == tick ) { 
156A:  MOVF   x14,W
156C:  SUBLW  64
156E:  BNZ   1578
.................... 		tick=0; 
1570:  CLRF   x14
.................... 		action.now_10millisecond=1; 
1572:  MOVLB  1
1574:  BSF    x7F.6
1576:  MOVLB  4
.................... 	} 
.................... 	 
....................  
.................... 	if ( ANEMOMETER_TYPE_THIES == current.anemometer_type ) { 
1578:  DECFSZ 4E,W
157A:  BRA    1600
.................... 		ext0_now=input(PIN_B0); 
157C:  BSF    F93.0
157E:  MOVLB  5
1580:  BCF    xCF.1
1582:  BTFSC  F81.0
1584:  BSF    xCF.1
.................... 		if ( 0 == ext0_now && 1 == ext0_last ) { 
1586:  BTFSC  xCF.1
1588:  BRA    15A8
158A:  MOVLB  4
158C:  BTFSC  x17.0
158E:  BRA    1594
1590:  MOVLB  5
1592:  BRA    15A8
.................... 			timers.pulse_count++; 
1594:  MOVLB  1
1596:  INCF   x8D,F
1598:  BTFSC  FD8.2
159A:  INCF   x8E,F
.................... 			current.pulse_count_live++; 
159C:  INCF   3B,F
159E:  BTFSC  FD8.2
15A0:  INCF   3C,F
.................... 			current.pulse_count_log++; 
15A2:  INCF   39,F
15A4:  BTFSC  FD8.2
15A6:  INCF   3A,F
.................... 		} 
.................... 		ext0_last = ext0_now; 
15A8:  MOVLB  4
15AA:  BCF    x17.0
15AC:  MOVLB  5
15AE:  BTFSS  xCF.1
15B0:  BRA    15B8
15B2:  MOVLB  4
15B4:  BSF    x17.0
15B6:  MOVLB  5
....................  
....................  
.................... 		/* every 10000 cycles we export anemometer frequency */ 
.................... 		tock++; 
15B8:  MOVLB  4
15BA:  INCF   x15,F
15BC:  BTFSC  FD8.2
15BE:  INCF   x16,F
.................... 		if ( 10000 == tock ) { 
15C0:  MOVF   x15,W
15C2:  SUBLW  10
15C4:  BNZ   15FE
15C6:  MOVF   x16,W
15C8:  SUBLW  27
15CA:  BNZ   15FE
.................... 			tock=0; 
15CC:  CLRF   x16
15CE:  CLRF   x15
....................  
.................... 			/* anemometer frequency in Hz (for wind speed) */ 
.................... 			current.pulse_period=timers.pulse_count; 
15D0:  MOVFF  18E,36
15D4:  MOVFF  18D,35
....................  
.................... 			/* reset Hz counter */ 
.................... 			timers.pulse_count=0; 
15D8:  MOVLB  1
15DA:  CLRF   x8E
15DC:  CLRF   x8D
.................... 			/* live_send() resets current.anemometer_count which is the pulses in 10 seconds */ 
.................... 		 
.................... 			/* (for wind gust) */ 
.................... 			if ( current.pulse_period > current.pulse_min_period ||  65535 == current.pulse_min_period ) { 
15DE:  MOVF   38,W
15E0:  SUBWF  36,W
15E2:  BNC   15EC
15E4:  BNZ   15F4
15E6:  MOVF   35,W
15E8:  SUBWF  37,W
15EA:  BNC   15F4
15EC:  INCFSZ 37,W
15EE:  BRA    15FC
15F0:  INCFSZ 38,W
15F2:  BRA    15FC
.................... 				current.pulse_min_period = current.pulse_period; 
15F4:  MOVFF  36,38
15F8:  MOVFF  35,37
15FC:  MOVLB  4
.................... 			}		 
.................... 		} 
....................  
.................... 		return; 
15FE:  BRA    168E
.................... 	} 
....................  
....................  
.................... 	/* count time between falling edges */ 
.................... 	if ( ext0_count && 0xffff != timers.pulse_period ) 
1600:  MOVLB  5
1602:  BTFSS  xCF.0
1604:  BRA    161E
1606:  MOVLB  1
1608:  INCFSZ x8B,W
160A:  BRA    1616
160C:  INCFSZ x8C,W
160E:  BRA    1616
1610:  MOVLB  5
1612:  BRA    161E
1614:  MOVLB  1
.................... 		timers.pulse_period++; 
1616:  INCF   x8B,F
1618:  BTFSC  FD8.2
161A:  INCF   x8C,F
161C:  MOVLB  5
....................  
.................... 	/* anemometer 0 / PIN_B0 trigger on falling edge */ 
.................... 	ext0_now=input(PIN_B0); 
161E:  BSF    F93.0
1620:  BCF    xCF.1
1622:  BTFSC  F81.0
1624:  BSF    xCF.1
.................... 	if ( 0 == ext0_now && 1 == ext0_last ) { 
1626:  BTFSC  xCF.1
1628:  BRA    167C
162A:  MOVLB  4
162C:  BTFSC  x17.0
162E:  BRA    1634
1630:  MOVLB  5
1632:  BRA    167C
.................... 		current.pulse_count_live++; 
1634:  INCF   3B,F
1636:  BTFSC  FD8.2
1638:  INCF   3C,F
.................... 		current.pulse_count_log++; 
163A:  INCF   39,F
163C:  BTFSC  FD8.2
163E:  INCF   3A,F
.................... 		if ( 1 == ext0_state ) { 
1640:  BTFSS  x17.1
1642:  BRA    166A
.................... 			/* currently counting, time to finish */ 
.................... 			ext0_count=0; 
1644:  MOVLB  5
1646:  BCF    xCF.0
.................... 			current.pulse_period=timers.pulse_period; 
1648:  MOVFF  18C,36
164C:  MOVFF  18B,35
.................... 			if ( current.pulse_period < current.pulse_min_period ) { 
1650:  MOVF   36,W
1652:  SUBWF  38,W
1654:  BNC   1666
1656:  BNZ   165E
1658:  MOVF   37,W
165A:  SUBWF  35,W
165C:  BC    1666
.................... 				current.pulse_min_period=current.pulse_period; 
165E:  MOVFF  36,38
1662:  MOVFF  35,37
.................... 			} 
.................... 			ext0_state=0; 
1666:  MOVLB  4
1668:  BCF    x17.1
.................... 		} 
.................... 		if ( 0 == ext0_state ) { 
166A:  BTFSC  x17.1
166C:  BRA    167C
.................... 			/* not counting, time to start */ 
.................... 			timers.pulse_period=0; 
166E:  MOVLB  1
1670:  CLRF   x8C
1672:  CLRF   x8B
.................... 			ext0_count=1; 
1674:  MOVLB  5
1676:  BSF    xCF.0
.................... 			ext0_state=1; 
1678:  MOVLB  4
167A:  BSF    x17.1
.................... 		} 
.................... 	} 
.................... 	ext0_last = ext0_now; 
167C:  MOVLB  4
167E:  BCF    x17.0
1680:  MOVLB  5
1682:  BTFSS  xCF.1
1684:  BRA    168C
1686:  MOVLB  4
1688:  BSF    x17.0
168A:  MOVLB  5
168C:  MOVLB  4
....................  
....................  
.................... } 
....................  
....................  
....................  
....................  
168E:  BCF    F9E.1
1690:  MOVLB  0
1692:  GOTO   012E
.................... #int_rda 
.................... void serial_isr_wireless(void) { 
.................... 	int8 c; 
....................  
.................... 	wireless.age=0; 
*
16AE:  CLRF   xFA
16B0:  CLRF   xF9
.................... 	c=fgetc(stream_wireless); 
16B2:  BRA    1696
16B4:  MOVFF  01,5CC
....................  
.................... 	if ( wireless.buff_length < sizeof(wireless.buff) ) { 
16B8:  MOVF   xF8,F
16BA:  BNZ   16D8
16BC:  MOVF   xF7,W
16BE:  SUBLW  7F
16C0:  BNC   16D8
.................... 		wireless.buff[wireless.buff_length]=c; 
16C2:  MOVLW  77
16C4:  ADDWF  xF7,W
16C6:  MOVWF  FE9
16C8:  MOVLW  00
16CA:  ADDWFC xF8,W
16CC:  MOVWF  FEA
16CE:  MOVFF  5CC,FEF
.................... 		wireless.buff_length++; 
16D2:  INCF   xF7,F
16D4:  BTFSC  FD8.2
16D6:  INCF   xF8,F
.................... 	} 
.................... } 
....................  
16D8:  BCF    F9E.5
16DA:  GOTO   0088
.................... #int_rda2 
.................... void serial_isr_sd(void) { 
.................... 	int8 c; 
....................  
.................... 	c=fgetc(stream_sd); 
*
16F6:  BRA    16DE
16F8:  MOVFF  01,5CC
.................... } 
....................  
.................... #include "wireless.c" 
16FC:  BCF    FA4.5
16FE:  GOTO   0088
.................... void wirelessOn(int8 seconds) { 
.................... 	if ( seconds > timers.modem_seconds )  
*
2424:  MOVLB  4
2426:  MOVF   x5E,W
2428:  MOVLB  1
242A:  SUBWF  x89,W
242C:  BC    2432
.................... 		timers.modem_seconds=seconds; 
242E:  MOVFF  45E,189
....................  
.................... 	output_low(MODEM_SLEEP); 
2432:  BCF    F96.5
2434:  BCF    F8D.5
.................... //	output_low(LCD_BACKLIGHT); 
.................... } 
2436:  MOVLB  0
2438:  RETURN 0
....................  
.................... void wirelessOff() { 
.................... 	output_high(MODEM_SLEEP); 
*
3AC4:  BCF    F96.5
3AC6:  BSF    F8D.5
.................... //	output_high(LCD_BACKLIGHT); 
.................... } 
3AC8:  GOTO   401C (RETURN)
....................  
....................  
.................... void wirelessMessageInit() { 
.................... 	memset(wireless.message,'\0',sizeof(wireless.message)); 
.................... 	wireless.message_waiting=0; 
.................... } 
....................  
.................... void wirelessInit() { 
.................... 	disable_interrupts(INT_RDA); 
....................  
.................... 	memset(wireless.buff,'\0',sizeof(wireless.buff)); 
.................... 	wireless.buff_length=0; 
.................... 	wireless.age=65535; 
....................  
.................... 	wirelessMessageInit(); 
....................  
.................... 	enable_interrupts(INT_RDA); 
.................... } 
....................  
....................  
....................  
.................... void wirelessMessageFromBuff() { 
.................... 	disable_interrupts(INT_RDA); 
*
40BE:  BCF    F9D.5
.................... 	/* make a new message if the last one has been read */ 
.................... 	if ( wireless.message_waiting != 1 ) { 
40C0:  MOVLB  1
40C2:  BTFSC  x7E.0
40C4:  BRA    4120
.................... 		memcpy(wireless.message,wireless.buff,wireless.buff_length); 
40C6:  CLRF   FEA
40C8:  MOVLW  FD
40CA:  MOVWF  FE9
40CC:  CLRF   FE2
40CE:  MOVLW  77
40D0:  MOVWF  FE1
40D2:  MOVFF  F8,02
40D6:  MOVFF  F7,01
40DA:  MOVF   01,F
40DC:  BZ    40E2
40DE:  INCF   02,F
40E0:  BRA    40E6
40E2:  MOVF   02,F
40E4:  BZ    40F2
40E6:  MOVFF  FE6,FEE
40EA:  DECFSZ 01,F
40EC:  BRA    40E6
40EE:  DECFSZ 02,F
40F0:  BRA    40E6
.................... 		wireless.message[wireless.buff_length+1]='\0'; // always null terminated 
40F2:  MOVLW  01
40F4:  MOVLB  0
40F6:  ADDWF  xF7,W
40F8:  MOVLB  4
40FA:  MOVWF  x5B
40FC:  MOVLW  00
40FE:  MOVLB  0
4100:  ADDWFC xF8,W
4102:  MOVLB  4
4104:  MOVWF  x5C
4106:  MOVLW  FD
4108:  ADDWF  x5B,W
410A:  MOVWF  FE9
410C:  MOVLW  00
410E:  ADDWFC x5C,W
4110:  MOVWF  FEA
4112:  CLRF   FEF
.................... 		wireless.message_waiting=1; 
4114:  MOVLB  1
4116:  BSF    x7E.0
....................  
.................... 		/* reset our buffer pointer to beginning */ 
.................... 		wireless.buff_length=0; 
4118:  MOVLB  0
411A:  CLRF   xF8
411C:  CLRF   xF7
411E:  MOVLB  1
.................... 	}	 
.................... 	enable_interrupts(INT_RDA); 
4120:  BSF    F9D.5
.................... } 
4122:  MOVLB  0
4124:  GOTO   7970 (RETURN)
....................  
.................... void wirelessTick(void) { 
.................... 	int16 lcrc; 
....................  
.................... 	/* check for requests from the wireless channel */ 
.................... 	if ( wireless.message_waiting ) { 
*
418E:  MOVLB  1
4190:  BTFSS  x7E.0
4192:  BRA    423E
.................... 		wireless.message_waiting=0; 
4194:  BCF    x7E.0
....................  
.................... 		/* check to see if this is a query addressed to us */ 
.................... 		if ( '#' == wireless.message[0] && 
....................              current.serial_prefix == wireless.message[1] && 
....................              current.serial_msb == wireless.message[2] && 
....................              current.serial_lsb == wireless.message[3] && 
....................              13 == wireless.message[4] && 
....................              22 == wireless.message[5]  
....................            ) { 
4196:  MOVLB  0
4198:  MOVF   xFD,W
419A:  SUBLW  23
419C:  BNZ   423C
419E:  MOVF   xFE,W
41A0:  SUBWF  45,W
41A2:  BNZ   423C
41A4:  MOVF   xFF,W
41A6:  SUBWF  46,W
41A8:  BNZ   423C
41AA:  MOVLB  1
41AC:  MOVF   x00,W
41AE:  SUBWF  47,W
41B0:  BTFSC  FD8.2
41B2:  BRA    41B8
41B4:  MOVLB  0
41B6:  BRA    423C
41B8:  MOVF   x01,W
41BA:  SUBLW  0D
41BC:  BTFSC  FD8.2
41BE:  BRA    41C4
41C0:  MOVLB  0
41C2:  BRA    423C
41C4:  MOVF   x02,W
41C6:  SUBLW  16
41C8:  BTFSC  FD8.2
41CA:  BRA    41D0
41CC:  MOVLB  0
41CE:  BRA    423C
.................... 			/* query to us */ 
....................  
.................... 		 
.................... 			lcrc=crc_chk(wireless.message+1,10); 
41D0:  MOVLB  5
41D2:  CLRF   xA7
41D4:  MOVLW  FE
41D6:  MOVWF  xA6
41D8:  MOVLW  0A
41DA:  MOVWF  xA8
41DC:  MOVLB  0
41DE:  RCALL  4128
41E0:  MOVFF  02,45C
41E4:  MOVFF  01,45B
....................  
.................... 			if ( lcrc != make16(wireless.message[11],wireless.message[12]) ) { 
41E8:  MOVFF  108,03
41EC:  MOVLB  1
41EE:  MOVF   x09,W
41F0:  MOVLB  4
41F2:  SUBWF  x5B,W
41F4:  BNZ   41FC
41F6:  MOVF   03,W
41F8:  SUBWF  x5C,W
41FA:  BZ    41FE
.................... //				fprintf(stream_wireless,"# invalid crc ... we calculated 0x%04lx and got 0x%04lx\r\n",lcrc,make16(wireless.message[11],wireless.message[12])); 
.................... 				return; 
41FC:  BRA    4240
.................... 			} 
....................  
....................  
.................... 			/* okay, so let's turn on the modem for a while */ 
.................... 			wirelessOn(250); 
41FE:  MOVLW  FA
4200:  MOVWF  x5E
4202:  MOVLB  0
4204:  CALL   2424
....................  
.................... 			switch ( wireless.message[6] ) { 
4208:  MOVLB  1
420A:  MOVF   x03,W
420C:  XORLW  00
420E:  MOVLB  0
4210:  BZ    421C
4212:  XORLW  01
4214:  BZ    4224
4216:  XORLW  03
4218:  BZ    422C
421A:  BRA    423C
.................... 				case 0:  
.................... 					action.now_live_status=1; 
421C:  MOVLB  1
421E:  BSF    x7F.5
.................... 					break; 
4220:  MOVLB  0
4222:  BRA    423C
.................... 				case 1: 
.................... 					action.now_log_init=1; 
4224:  MOVLB  1
4226:  BSF    x7F.2
.................... 					break; 
4228:  MOVLB  0
422A:  BRA    423C
.................... 				case 2: 
.................... 					log.page_requested=make16(wireless.message[7],wireless.message[8]); 
422C:  MOVFF  104,403
4230:  MOVFF  105,402
.................... 					log.n_pages=make16(wireless.message[9],wireless.message[10]); 
4234:  MOVFF  106,405
4238:  MOVFF  107,404
.................... 					break; 
423C:  MOVLB  1
423E:  MOVLB  4
.................... 			} 
.................... 		} 
.................... 	} 
.................... } 
4240:  MOVLB  0
4242:  GOTO   7976 (RETURN)
....................  
....................  
.................... /*  
.................... Query addressed to us: 
.................... '#'             0  STX 
.................... UNIT ID PREFIX  1  First character (A-Z) of OUR serial number 
.................... UNIT ID MSB     2  OUR serial number 
.................... UNIT ID LSB     3   
.................... PACKET LENGTH   4  number of byte for packet including STX through CRC (13) 
.................... PACKET TYPE     5  type of packet we are sending (22) 
.................... COMMAND         6  function to perform 
.................... PARAM A MSB     7  paramater A to function 
.................... PARAM A LSB     8 
.................... PARAM B MSB     9  parameter B to function 
.................... PARAM B LSB     10 
.................... CRC MSB         11 high byte of CRC on everything after STX and before CRC 
.................... CRC LSB         12 low byte of CRC  
....................  
.................... FUNCTIONS: 
.................... 0  SEND STATUS PACKET 
.................... 	no parameters 
.................... 1  CLEAR MEMORY (LOG_INIT) 
....................     no parameters 
.................... 	(check for result by checking status packet) 
.................... 2  REQUEST DATA PAGE 
.................... 	A: start address (0 to 4096) 
....................     B: number of pages (11 packets per page returned) 
....................     
.................... */ 
....................  
.................... #include "lcd.c" 
.................... //#define	lcd_cursor(x)	lcd_write(((x)&0x7F)|0x80) 
.................... #define 	LCD_LINE_ONE			0x00	/* position of line1 */ 
.................... #define 	LCD_LINE_TWO			0x40	/* position of line2 */ 
....................  
.................... #define		LCD_CURSOR_BLINK		0b1111 
.................... #define		LCD_CURSOR_ON			0b1110 
.................... #define		LCD_CURSOR_OFF			0b1100 
....................  
.................... #define DEG_SYMBOL 0xDF 
....................  
.................... void LCD_STROBE(void) { 
.................... 	output_high(LCD_EN); 
*
1E80:  BCF    F97.3
1E82:  BSF    F8E.3
.................... //	delay_ms(5); 
.................... 	output_low(LCD_EN); 
1E84:  BCF    F97.3
1E86:  BCF    F8E.3
.................... } 
1E88:  RETURN 0
....................  
.................... /* write a byte to the LCD in 4 bit mode */ 
.................... void lcd_write(unsigned char c) { 
.................... 	output_bit(LCD_D7,c & 0x80); 
1E8A:  MOVLB  4
1E8C:  BTFSC  x7B.7
1E8E:  BRA    1E94
1E90:  BCF    F8E.7
1E92:  BRA    1E96
1E94:  BSF    F8E.7
1E96:  BCF    F97.7
.................... 	output_bit(LCD_D6,c & 0x40); 
1E98:  BTFSC  x7B.6
1E9A:  BRA    1EA0
1E9C:  BCF    F8E.6
1E9E:  BRA    1EA2
1EA0:  BSF    F8E.6
1EA2:  BCF    F97.6
.................... 	output_bit(LCD_D5,c & 0x20); 
1EA4:  BTFSC  x7B.5
1EA6:  BRA    1EAC
1EA8:  BCF    F8E.5
1EAA:  BRA    1EAE
1EAC:  BSF    F8E.5
1EAE:  BCF    F97.5
.................... 	output_bit(LCD_D4,c & 0x10); 
1EB0:  BTFSC  x7B.4
1EB2:  BRA    1EB8
1EB4:  BCF    F8E.4
1EB6:  BRA    1EBA
1EB8:  BSF    F8E.4
1EBA:  BCF    F97.4
.................... 	LCD_STROBE(); 
1EBC:  MOVLB  0
1EBE:  RCALL  1E80
.................... 	output_bit(LCD_D7,c & 0x08); 
1EC0:  MOVLB  4
1EC2:  BTFSC  x7B.3
1EC4:  BRA    1ECA
1EC6:  BCF    F8E.7
1EC8:  BRA    1ECC
1ECA:  BSF    F8E.7
1ECC:  BCF    F97.7
.................... 	output_bit(LCD_D6,c & 0x04); 
1ECE:  BTFSC  x7B.2
1ED0:  BRA    1ED6
1ED2:  BCF    F8E.6
1ED4:  BRA    1ED8
1ED6:  BSF    F8E.6
1ED8:  BCF    F97.6
.................... 	output_bit(LCD_D5,c & 0x02); 
1EDA:  BTFSC  x7B.1
1EDC:  BRA    1EE2
1EDE:  BCF    F8E.5
1EE0:  BRA    1EE4
1EE2:  BSF    F8E.5
1EE4:  BCF    F97.5
.................... 	output_bit(LCD_D4,c & 0x01); 
1EE6:  BTFSC  x7B.0
1EE8:  BRA    1EEE
1EEA:  BCF    F8E.4
1EEC:  BRA    1EF0
1EEE:  BSF    F8E.4
1EF0:  BCF    F97.4
.................... 	LCD_STROBE();	 
1EF2:  MOVLB  0
1EF4:  RCALL  1E80
.................... 	delay_us(40); 
1EF6:  MOVLW  1A
1EF8:  MOVWF  00
1EFA:  DECFSZ 00,F
1EFC:  BRA    1EFA
1EFE:  NOP   
.................... } 
1F00:  RETURN 0
....................  
.................... /* 	Clear and home the LCD */ 
.................... void lcd_clear(void) { 
.................... 	output_low(LCD_RS); 
*
243A:  BCF    F97.1
243C:  BCF    F8E.1
....................  
.................... 	lcd_write(0x1); 
243E:  MOVLW  01
2440:  MOVLB  4
2442:  MOVWF  x7B
2444:  MOVLB  0
2446:  RCALL  1E8A
.................... 	delay_ms(2); 
2448:  MOVLW  02
244A:  MOVLB  5
244C:  MOVWF  xA6
244E:  MOVLB  0
2450:  RCALL  1E58
.................... } 
2452:  RETURN 0
....................  
.................... void lcd_cursor(int command) { 
.................... 	output_low(LCD_RS); 
*
25D6:  BCF    F97.1
25D8:  BCF    F8E.1
.................... 	lcd_write(command); 
25DA:  MOVFF  46C,47B
25DE:  RCALL  1E8A
.................... 	 
.................... 	delay_us(40); 
25E0:  MOVLW  1A
25E2:  MOVWF  00
25E4:  DECFSZ 00,F
25E6:  BRA    25E4
25E8:  NOP   
.................... } 
25EA:  RETURN 0
....................  
....................  
....................  
....................  
.................... /* write one character to the LCD */ 
.................... void lcd_putch(unsigned char c) { 
.................... 	output_high(LCD_RS); 
*
2454:  BCF    F97.1
2456:  BSF    F8E.1
....................  
.................... 	lcd_write(c); 
2458:  MOVFF  46F,47B
245C:  RCALL  1E8A
.................... } 
245E:  RETURN 0
....................  
....................  
.................... /* Go to the specified position */ 
.................... void lcd_goto(unsigned char lpos) { 
.................... 	output_low(LCD_RS); 
*
2586:  BCF    F97.1
2588:  BCF    F8E.1
....................  
.................... 	lcd_write(0x80 + lpos); 
258A:  MOVLW  80
258C:  MOVLB  4
258E:  ADDWF  x6D,W
2590:  MOVWF  x6E
2592:  MOVWF  x7B
2594:  MOVLB  0
2596:  RCALL  1E8A
.................... } 
2598:  RETURN 0
....................  
.................... 	 
.................... /* initialise the LCD - put into 4 bit mode */ 
.................... void lcd_init(void) { 
....................  
.................... 	/* step 1 */ 
.................... 	delay_ms(15);// power on delay 
*
1F02:  MOVLW  0F
1F04:  MOVLB  5
1F06:  MOVWF  xA6
1F08:  MOVLB  0
1F0A:  RCALL  1E58
.................... 	 
.................... 	/* step 2 */ 
.................... 	output_low(LCD_RS); 
1F0C:  BCF    F97.1
1F0E:  BCF    F8E.1
.................... 	output_low(LCD_RW); 
1F10:  BCF    F97.2
1F12:  BCF    F8E.2
.................... 	output_low(LCD_D7); 
1F14:  BCF    F97.7
1F16:  BCF    F8E.7
.................... 	output_low(LCD_D6); 
1F18:  BCF    F97.6
1F1A:  BCF    F8E.6
.................... 	output_high(LCD_D5); 
1F1C:  BCF    F97.5
1F1E:  BSF    F8E.5
.................... 	output_high(LCD_D4); 
1F20:  BCF    F97.4
1F22:  BSF    F8E.4
.................... 	 
.................... 	/* step 3 */ 
.................... 	LCD_STROBE();	 
1F24:  RCALL  1E80
.................... 	delay_ms(5); 
1F26:  MOVLW  05
1F28:  MOVLB  5
1F2A:  MOVWF  xA6
1F2C:  MOVLB  0
1F2E:  RCALL  1E58
....................  
.................... 	/* step 4 and 5 */ 
.................... 	LCD_STROBE();	// init!	 
1F30:  RCALL  1E80
.................... 	delay_us(100); 
1F32:  MOVLW  42
1F34:  MOVWF  00
1F36:  DECFSZ 00,F
1F38:  BRA    1F36
1F3A:  NOP   
....................  
.................... 	/* step 6 */ 
.................... 	LCD_STROBE();	// init!	 
1F3C:  RCALL  1E80
.................... 	delay_ms(5); 
1F3E:  MOVLW  05
1F40:  MOVLB  5
1F42:  MOVWF  xA6
1F44:  MOVLB  0
1F46:  RCALL  1E58
....................  
.................... 	output_low(LCD_D4); 
1F48:  BCF    F97.4
1F4A:  BCF    F8E.4
.................... 	LCD_STROBE();	 
1F4C:  RCALL  1E80
.................... 	delay_us(40); 
1F4E:  MOVLW  1A
1F50:  MOVWF  00
1F52:  DECFSZ 00,F
1F54:  BRA    1F52
1F56:  NOP   
.................... 	 
.................... 	lcd_write(0x28);// 4 bit mode, 1/16 duty, 5x8 font, 2lines 
1F58:  MOVLW  28
1F5A:  MOVLB  4
1F5C:  MOVWF  x7B
1F5E:  MOVLB  0
1F60:  RCALL  1E8A
.................... 	lcd_write(0x0C);// display on 
1F62:  MOVLW  0C
1F64:  MOVLB  4
1F66:  MOVWF  x7B
1F68:  MOVLB  0
1F6A:  RCALL  1E8A
.................... 	lcd_write(0x06);// entry mode advance cursor 
1F6C:  MOVLW  06
1F6E:  MOVLB  4
1F70:  MOVWF  x7B
1F72:  MOVLB  0
1F74:  RCALL  1E8A
.................... 	lcd_write(0x01);// clear display and reset cursor 
1F76:  MOVLW  01
1F78:  MOVLB  4
1F7A:  MOVWF  x7B
1F7C:  MOVLB  0
1F7E:  RCALL  1E8A
.................... } 
1F80:  GOTO   23EA (RETURN)
....................  
.................... #include "dataflash_at45db161d.c" 
.................... #define DATAFLASH_PAGES 4096 
.................... #define DATAFLASH_BYTES_PER_PAGE 528 
....................  
....................  
.................... /* 
.................... #define DATAFLASH_CS       PIN_D2 
.................... #define DATAFLASH_RESET    PIN_D3 
.................... #define DATAFLASH_SI       PIN_D4 
.................... #define DATAFLASH_SO       PIN_D5 
.................... #define DATAFLASH_SCK      PIN_D6 
.................... */ 
....................  
.................... #inline 
.................... #define dataflash_select()\ 
....................         output_low(DATAFLASH_CS);\ 
....................         delay_cycles(1) 
....................  
.................... #inline 
.................... #define dataflash_unselect()\ 
....................         output_high(DATAFLASH_CS);\ 
....................         delay_cycles(1)    
....................  
....................  
.................... int8 dataflash_read_status(void) { 
....................     int8 status; 
....................  
.................... 	dataflash_select(); 
*
387A:  BCF    F95.2
387C:  BCF    F8C.2
387E:  NOP   
*
52DC:  BCF    F95.2
52DE:  BCF    F8C.2
52E0:  NOP   
....................  
.................... 	/* "status register read" */ 
.................... 	spi_write2(0xd7); 
*
3880:  MOVF   F66,W
3882:  MOVLW  D7
3884:  MOVWF  F66
3886:  RRCF   F64,W
3888:  BNC   3886
*
52E2:  MOVF   F66,W
52E4:  MOVLW  D7
52E6:  MOVWF  F66
52E8:  RRCF   F64,W
52EA:  BNC   52E8
....................  
.................... 	status=spi_read2(0); 
*
388A:  MOVF   F66,W
388C:  CLRF   F66
388E:  RRCF   F64,W
3890:  BNC   388E
3892:  MOVFF  F66,48B
*
52EC:  MOVF   F66,W
52EE:  CLRF   F66
52F0:  RRCF   F64,W
52F2:  BNC   52F0
52F4:  MOVFF  F66,48B
....................  
.................... 	dataflash_unselect(); 
*
3896:  BCF    F95.2
3898:  BSF    F8C.2
389A:  NOP   
*
52F8:  BCF    F95.2
52FA:  BSF    F8C.2
52FC:  NOP   
....................  
.................... 	return status; 
*
389C:  MOVLB  4
389E:  MOVFF  48B,01
*
52FE:  MOVFF  48B,01
.................... } 
....................  
.................... void dataflash_init() { 
.................... 	setup_spi2(SPI_MASTER|SPI_H_TO_L|SPI_SAMPLE_AT_END);//SPI_CLK_DIV_4 
*
1E32:  BCF    F63.5
1E34:  BCF    F95.4
1E36:  BSF    F95.5
1E38:  BCF    F95.6
1E3A:  MOVLW  30
1E3C:  MOVWF  F63
1E3E:  MOVLW  C0
1E40:  MOVWF  F64
.................... 	output_high(DATAFLASH_RESET); 
1E42:  BCF    F95.3
1E44:  BSF    F8C.3
.................... 	dataflash_unselect(); 
1E46:  BCF    F95.2
1E48:  BSF    F8C.2
1E4A:  NOP   
....................  
.................... 	 
.................... //	fprintf(modem,"dataflash read status: 0x%02X\r\n",dataflash_read_status()); 
.................... } 
1E4C:  GOTO   23E6 (RETURN)
....................   
.................... void dataflash_deep_power_down(void) { 
.................... 	dataflash_select(); 
.................... 	spi_write2(0xB9); 
.................... 	dataflash_unselect(); 
.................... } 
....................  
.................... /* resume from deep power-down */ 
.................... void dataflash_resume(void) { 
.................... 	dataflash_select(); 
*
7332:  BCF    F95.2
7334:  BCF    F8C.2
7336:  NOP   
.................... 	spi_write2(0xAB); 
7338:  MOVF   F66,W
733A:  MOVLW  AB
733C:  MOVWF  F66
733E:  RRCF   F64,W
7340:  BNC   733E
.................... 	dataflash_unselect(); 
7342:  BCF    F95.2
7344:  BSF    F8C.2
7346:  NOP   
.................... 	delay_ms(1); 
7348:  MOVLW  01
734A:  MOVLB  5
734C:  MOVWF  xA6
734E:  MOVLB  0
7350:  CALL   1E58
.................... } 
7354:  GOTO   7414 (RETURN)
....................  
.................... /* read a whole page of data starting at page boundary (byte 0) */ 
.................... void dataflash_page_read(int16 page) { 
.................... 	int16 l; 
....................  
.................... 	dataflash_select(); 
.................... 	spi_write2(0xD2); 
.................... 	page = page << 2; 
.................... 	spi_write2(make8(page,1)); 
.................... 	spi_write2(make8(page,0)); 
.................... 	spi_write2(0x00);  
....................  
.................... 	/* four don't care bytes */ 
.................... 	spi_write2(0x00); 
.................... 	spi_write2(0x00); 
.................... 	spi_write2(0x00); 
.................... 	spi_write2(0x00); 
....................  
.................... 	fprintf(stream_wireless,"# Dataflash page read from %lu\r\n",page>>2); 
.................... 	/* start reading */ 
.................... 	for ( l=0 ; l<DATAFLASH_BYTES_PER_PAGE ; l++ ) { 
.................... 		fprintf(stream_wireless,"%02X ",spi_read2(0x00)); 
....................  
.................... 		if ( 0 != l && 0 == l%16 ) { 
.................... 			fprintf(stream_wireless,"\r\n"); 
.................... 		} 
.................... 	} 
.................... 	fprintf(stream_wireless,"\r\n# Done\r\n"); 
.................... 	dataflash_unselect(); 
....................  
.................... } 
....................  
.................... void dataflash_page_write(int16 page) { 
.................... 	int16 l; 
....................  
.................... 	/* write to buffer 1 */ 
.................... 	dataflash_select(); 
.................... 	spi_write2(0x82); 
.................... 	/* start at byte 0 */ 
.................... 	spi_write2(0x00); 
.................... 	spi_write2(0x00); 
.................... 	spi_write2(0x00); 
.................... 	for ( l=0 ; l<DATAFLASH_BYTES_PER_PAGE ; l++ ) { 
.................... 		spi_write2(make8(l,0)); 
.................... 	} 
.................... 	dataflash_unselect(); 
....................  
.................... 	/* wait for page to finish erasing and writing */ 
.................... 	while ( ! bit_test(dataflash_read_status(),7) ) { 
.................... 		//fputc('x',modem); 
.................... 	} 
.................... } 
....................  
.................... #include "fram_fm24c512.c" 
.................... #define FRAM_SIZE     65535 
....................  
.................... void init_ext_fram() { 
.................... 	output_float(I2C_SCL); 
*
1E50:  BSF    F94.3
.................... 	output_float(I2C_SDA); 
1E52:  BSF    F94.4
.................... } 
1E54:  GOTO   23E8 (RETURN)
....................  
....................  
.................... int8 read_ext_fram(int16 address) { 
*
51FE:  MOVLW  A0
5200:  MOVLB  5
5202:  MOVWF  x7D
.................... 	int8 data; 
.................... 	int8 slaveAddress = 0b10100000; 
....................  
.................... 	/* bit 15 of address goes in slaveAddress */ 
.................... 	if ( address >= 0x8000 ) { 
5204:  MOVF   x7B,W
5206:  SUBLW  7F
5208:  BC    520E
.................... 		slaveAddress = slaveAddress | 0x02; 
520A:  BSF    x7D.1
.................... 		address=address & 0x7fff; 
520C:  BCF    x7B.7
.................... 	} 
....................  
.................... 	i2c_start(); 
520E:  BSF    F94.4
5210:  NOP   
5212:  BSF    F94.3
5214:  NOP   
5216:  BCF    F8B.4
5218:  BCF    F94.4
521A:  NOP   
521C:  BCF    F8B.3
521E:  BCF    F94.3
.................... 	i2c_write(slaveAddress); 
5220:  MOVFF  57D,581
5224:  MOVLB  0
5226:  CALL   1F84
.................... 	i2c_write(address>>8); 
522A:  MOVFF  57B,57E
522E:  MOVLB  5
5230:  CLRF   x7F
5232:  MOVFF  57B,581
5236:  MOVLB  0
5238:  CALL   1F84
.................... 	i2c_write(address); 
523C:  MOVFF  57A,581
5240:  CALL   1F84
.................... 	i2c_start(); 
5244:  BSF    F94.4
5246:  NOP   
5248:  BSF    F94.3
524A:  NOP   
524C:  BTFSS  F82.3
524E:  BRA    524C
5250:  BCF    F8B.4
5252:  BCF    F94.4
5254:  NOP   
5256:  BCF    F8B.3
5258:  BCF    F94.3
.................... 	i2c_write(slaveAddress | 0x1); 
525A:  MOVLB  5
525C:  MOVF   x7D,W
525E:  IORLW  01
5260:  MOVWF  x7E
5262:  MOVWF  x81
5264:  MOVLB  0
5266:  CALL   1F84
.................... 	data=i2c_read(0); 
526A:  CLRF   00
526C:  CALL   203A
5270:  MOVFF  01,57C
.................... 	i2c_stop(); 
5274:  BCF    F94.4
5276:  NOP   
5278:  BSF    F94.3
527A:  BTFSS  F82.3
527C:  BRA    527A
527E:  NOP   
5280:  BRA    5282
5282:  NOP   
5284:  BSF    F94.4
5286:  NOP   
....................  
.................... 	return data; 
5288:  MOVLB  5
528A:  MOVFF  57C,01
.................... } 
528E:  MOVLB  0
5290:  RETURN 0
....................  
.................... void write_ext_fram(int16 address, int8 data) { 
*
3782:  MOVLW  A0
3784:  MOVLB  5
3786:  MOVWF  x7E
.................... 	int8 slaveAddress = 0b10100000; 
....................  
.................... 	/* bit 15 of address goes in slaveAddress */ 
.................... 	if ( address >= 0x8000 ) { 
3788:  MOVF   x7C,W
378A:  SUBLW  7F
378C:  BC    3792
.................... 		slaveAddress = slaveAddress | 0x02; 
378E:  BSF    x7E.1
.................... 		address=address & 0x7fff; 
3790:  BCF    x7C.7
.................... 	} 
....................  
.................... 	i2c_start(); 
3792:  BSF    F94.4
3794:  NOP   
3796:  BSF    F94.3
3798:  NOP   
379A:  BCF    F8B.4
379C:  BCF    F94.4
379E:  NOP   
37A0:  BCF    F8B.3
37A2:  BCF    F94.3
.................... 	i2c_write(slaveAddress); 
37A4:  MOVFF  57E,581
37A8:  MOVLB  0
37AA:  CALL   1F84
.................... 	i2c_write(address>>8); 
37AE:  MOVFF  57C,57F
37B2:  MOVLB  5
37B4:  CLRF   x80
37B6:  MOVFF  57C,581
37BA:  MOVLB  0
37BC:  CALL   1F84
.................... 	i2c_write(address); 
37C0:  MOVFF  57B,581
37C4:  CALL   1F84
.................... 	i2c_write(data); 
37C8:  MOVFF  57D,581
37CC:  CALL   1F84
.................... 	i2c_stop(); 
37D0:  BCF    F94.4
37D2:  NOP   
37D4:  BSF    F94.3
37D6:  BTFSS  F82.3
37D8:  BRA    37D6
37DA:  NOP   
37DC:  BRA    37DE
37DE:  NOP   
37E0:  BSF    F94.4
37E2:  NOP   
.................... } 
37E4:  RETURN 0
....................  
....................  
....................  
.................... #include "log.c" 
.................... #define RECORD_LENGTH 12 
.................... #define RECORDS_PER_DATAFLASH_BLOCK 44 
.................... #define RECORD_INTER_DELAY 5 
....................  
....................  
.................... #define FRAM_ADDR_RECORD_N       0  
.................... #define FRAM_ADDR_DATAFLASH_PAGE 2L 
.................... #define FRAM_ADDR_BUFFER_START   512L 
.................... #define FRAM_ADDR_BUFFER_END     1040L 
....................  
.................... void log_init(void) { 
.................... 	fprintf(stream_wireless,"# initializing logging\r\n"); 
37E6:  MOVLW  30
37E8:  MOVWF  FF6
37EA:  MOVLW  17
37EC:  MOVWF  FF7
37EE:  RCALL  340C
.................... 	lcd_clear(); 
37F0:  CALL   243A
.................... 	printf(lcd_putch,"Resetting Log!"); 
37F4:  MOVLW  4A
37F6:  MOVWF  FF6
37F8:  MOVLW  17
37FA:  MOVWF  FF7
37FC:  CALL   2460
.................... 	delay_ms(1200); 
3800:  MOVLW  05
3802:  MOVLB  4
3804:  MOVWF  x5B
3806:  MOVLW  F0
3808:  MOVLB  5
380A:  MOVWF  xA6
380C:  MOVLB  0
380E:  CALL   1E58
3812:  MOVLB  4
3814:  DECFSZ x5B,F
3816:  BRA    3806
.................... 	write_ext_fram(FRAM_ADDR_RECORD_N,0); 
3818:  MOVLB  5
381A:  CLRF   x7C
381C:  CLRF   x7B
381E:  CLRF   x7D
3820:  MOVLB  0
3822:  RCALL  3782
.................... 	write_ext_fram(FRAM_ADDR_DATAFLASH_PAGE+0,0); 
3824:  MOVLB  5
3826:  CLRF   x7C
3828:  MOVLW  02
382A:  MOVWF  x7B
382C:  CLRF   x7D
382E:  MOVLB  0
3830:  RCALL  3782
.................... 	write_ext_fram(FRAM_ADDR_DATAFLASH_PAGE+1,0); 
3832:  MOVLB  5
3834:  CLRF   x7C
3836:  MOVLW  03
3838:  MOVWF  x7B
383A:  CLRF   x7D
383C:  MOVLB  0
383E:  RCALL  3782
....................  
.................... 	/* erase the first block of the data flash */ 
.................... 	dataflash_select(); 
3840:  BCF    F95.2
3842:  BCF    F8C.2
3844:  NOP   
.................... 	spi_write2(0x50); 
3846:  MOVF   F66,W
3848:  MOVLW  50
384A:  MOVWF  F66
384C:  RRCF   F64,W
384E:  BNC   384C
.................... 	spi_write2(0x00); 
3850:  MOVF   F66,W
3852:  CLRF   F66
3854:  RRCF   F64,W
3856:  BNC   3854
.................... 	spi_write2(0x00); 
3858:  MOVF   F66,W
385A:  CLRF   F66
385C:  RRCF   F64,W
385E:  BNC   385C
.................... 	spi_write2(0x00);  
3860:  MOVF   F66,W
3862:  CLRF   F66
3864:  RRCF   F64,W
3866:  BNC   3864
.................... 	dataflash_unselect(); 
3868:  BCF    F95.2
386A:  BSF    F8C.2
386C:  NOP   
.................... 	delay_ms(10); 
386E:  MOVLW  0A
3870:  MOVLB  5
3872:  MOVWF  xA6
3874:  MOVLB  0
3876:  CALL   1E58
.................... 	 
.................... 	/* wait for page to finish erasing and writing */ 
.................... 	while ( ! bit_test(dataflash_read_status(),7) ) { 
*
38A2:  MOVFF  01,45B
38A6:  BTFSC  01.7
38A8:  BRA    38B2
.................... 		restart_wdt(); 
38AA:  CLRWDT
.................... 		//fputc('x',modem); 
.................... 	} 
38AC:  MOVLB  0
38AE:  BRA    387A
38B0:  MOVLB  4
....................  
.................... 	lcd_goto(LCD_LINE_TWO); 
38B2:  MOVLW  40
38B4:  MOVWF  x6D
38B6:  MOVLB  0
38B8:  CALL   2586
.................... 	printf(lcd_putch,"Done"); 
38BC:  MOVLW  5A
38BE:  MOVWF  FF6
38C0:  MOVLW  17
38C2:  MOVWF  FF7
38C4:  CALL   2460
.................... 	fprintf(stream_wireless,"> done\r\n"); 
38C8:  MOVLW  60
38CA:  MOVWF  FF6
38CC:  MOVLW  17
38CE:  MOVWF  FF7
38D0:  RCALL  340C
.................... 	delay_ms(1200); 
38D2:  MOVLW  05
38D4:  MOVLB  4
38D6:  MOVWF  x5B
38D8:  MOVLW  F0
38DA:  MOVLB  5
38DC:  MOVWF  xA6
38DE:  MOVLB  0
38E0:  CALL   1E58
38E4:  MOVLB  4
38E6:  DECFSZ x5B,F
38E8:  BRA    38D8
.................... } 
38EA:  MOVLB  0
38EC:  RETURN 0
....................  
.................... void record_print(int8 *record_buffer) { 
.................... 	/* decode and print */ 
.................... 	/* date, pulseTime, pulseMinTime, pulseCount, batteryPercentCharged, wind direction sector */ 
.................... 	fprintf(stream_wireless,"20%02u-%02u-%02u %02u:%02u,%lu,%lu,%lu,%u,%u\r\n",\ 
.................... 		record_buffer[0],\ 
.................... 		record_buffer[1],\ 
.................... 		record_buffer[2],\ 
.................... 		record_buffer[3],\ 
.................... 		record_buffer[4],\ 
.................... 		make16(record_buffer[5],record_buffer[6]),\ 
.................... 		make16(record_buffer[7],record_buffer[8]),\ 
.................... 		make16(record_buffer[9],record_buffer[10]),\ 
.................... 		(record_buffer[11]>>4)*10,\ 
.................... 		(record_buffer[11]&0x0F)\ 
.................... 	); 
....................  
.................... } 
....................  
.................... void log_play(void) { 
.................... 	int8 record_buffer[RECORD_LENGTH]; 
.................... 	int8 i; 
.................... 	int16 page,address,l; 
.................... 	short terminated=0; 
.................... 	int16 dataflash_max_page; 
....................  
.................... 	dataflash_max_page=make16(read_ext_fram(FRAM_ADDR_DATAFLASH_PAGE+0),read_ext_fram(FRAM_ADDR_DATAFLASH_PAGE+1)); 
.................... 	 
....................  
.................... 	for ( i=0 ; i<RECORD_LENGTH ; i++ ) { 
.................... 		record_buffer[i]=0; 
.................... 	} 
....................  
.................... 	fprintf(stream_wireless,"# playing log\r\n"); 
....................  
.................... 	dataflash_select(); 
.................... 	spi_write2(0x03); 
.................... 	/* start on page 0 */ 
.................... 	spi_write2(0x00); 
.................... 	spi_write2(0x00); 
.................... 	spi_write2(0x00);  
....................  
.................... 	/* read data until we reach a record with first three bytes all 0xFF */ 
.................... 	for ( page=0 ; page<DATAFLASH_PAGES && page<=dataflash_max_page ; page++ ) { 
.................... 		restart_wdt(); 
.................... 		wirelessOn(5); 
.................... 		for ( address=0 ; address<DATAFLASH_BYTES_PER_PAGE ; address+=RECORD_LENGTH ) { 
.................... 			for ( i=0 ; i<RECORD_LENGTH ; i++ ) { 
.................... 				record_buffer[i]=spi_read2(0x00); 
.................... 			} 
.................... 			 
.................... 			/* check for terminator record */ 
.................... 			if ( 0xFF==record_buffer[0] && 0xFF==record_buffer[1] && 0xFF==record_buffer[2] ) { 
.................... //				fprintf(modem,"# terminator found at page=%lu record_start_address=%lu\r\n",page,address); 
.................... 				terminated=1;				 
.................... 				break; 
.................... 			} 
.................... 			/* send the record to the modem */ 
.................... 			record_print(record_buffer); 
.................... #if RECORD_INTER_DELAY 
.................... 			/* give the modem a chance to catch up */ 
.................... 			delay_ms(RECORD_INTER_DELAY); 
.................... #endif 
.................... 		} 
....................  
.................... 		if ( terminated ) break; 
.................... 	} 
.................... 	dataflash_unselect(); 
....................  
.................... //	if ( ! terminated ) { 
.................... //		fprintf(modem,"# no terminator record found!\r\n"); 
.................... //	} 
....................  
.................... //	fprintf(modem,"# dumping records remaining in FRAM:\r\n"); 
.................... 	/* dump extra records still in FRAM */ 
.................... 	address = FRAM_ADDR_BUFFER_START + ( (int16) RECORD_LENGTH * (int16) read_ext_fram(FRAM_ADDR_RECORD_N) ); 
.................... 	for ( l=FRAM_ADDR_BUFFER_START ; l<address ; l+=RECORD_LENGTH ) { 
.................... 		restart_wdt(); 
.................... 		wirelessOn(5); 
.................... 		for ( i=0 ; i<RECORD_LENGTH ; i++ ) { 
.................... 			record_buffer[i]=read_ext_fram(l+i); 
.................... 		} 
.................... 		record_print(record_buffer); 
.................... #if RECORD_INTER_DELAY		 
.................... 		/* give the modem a chance to catch up */ 
.................... 		delay_ms(RECORD_INTER_DELAY); 
.................... #endif 
.................... 	} 
....................  
.................... 	fprintf(stream_wireless,"> done\r\n"); 
.................... } 
....................  
.................... void write_record(int8 *record) { 
.................... 	int16 address; 
.................... 	int8 record_number; 
.................... 	int16 dataflash_page; 
.................... 	int8 i; 
....................  
.................... 	/* lookup location to buffer in fram */ 
.................... 	record_number = read_ext_fram(FRAM_ADDR_RECORD_N); 
*
7358:  MOVLB  5
735A:  CLRF   x7B
735C:  CLRF   x7A
735E:  MOVLB  0
7360:  CALL   51FE
7364:  MOVFF  01,574
.................... //	fprintf(stream_wireless,"# record n from fram = %u of %u\r\n",record_number,RECORDS_PER_DATAFLASH_BLOCK); 
....................  
.................... 	address = FRAM_ADDR_BUFFER_START + ( (int16) RECORD_LENGTH *  (int16) record_number); 
7368:  CLRF   03
736A:  MOVLB  5
736C:  MOVFF  574,578
7370:  MOVFF  03,579
7374:  CLRF   x7B
7376:  MOVLW  0C
7378:  MOVWF  x7A
737A:  MOVFF  03,57D
737E:  MOVFF  574,57C
7382:  MOVLB  0
7384:  CALL   25EC
7388:  MOVFF  01,572
738C:  MOVLB  5
738E:  MOVLW  02
7390:  ADDWF  02,W
7392:  MOVWF  x73
.................... //	fprintf(stream_wireless,"# write_record to FRAM address=%lu\r\n",address); 
....................  
.................... 	/* write record_length bytes to that location in FRAM */ 
.................... 	for ( i=0 ; i<RECORD_LENGTH ; i++ ) { 
7394:  CLRF   x77
7396:  MOVF   x77,W
7398:  SUBLW  0B
739A:  BNC   73D2
.................... 		write_ext_fram(address+i,record[i]); 
739C:  MOVF   x77,W
739E:  ADDWF  x72,W
73A0:  MOVWF  x78
73A2:  MOVLW  00
73A4:  ADDWFC x73,W
73A6:  MOVWF  x79
73A8:  CLRF   03
73AA:  MOVF   x77,W
73AC:  ADDWF  x70,W
73AE:  MOVWF  FE9
73B0:  MOVF   x71,W
73B2:  ADDWFC 03,W
73B4:  MOVWF  FEA
73B6:  MOVFF  FEF,57A
73BA:  MOVFF  579,57C
73BE:  MOVFF  578,57B
73C2:  MOVFF  57A,57D
73C6:  MOVLB  0
73C8:  CALL   3782
.................... 	} 
73CC:  MOVLB  5
73CE:  INCF   x77,F
73D0:  BRA    7396
.................... 	/* update record number */ 
.................... 	record_number++; 
73D2:  INCF   x74,F
.................... 	write_ext_fram(FRAM_ADDR_RECORD_N,record_number); 
73D4:  CLRF   x7C
73D6:  CLRF   x7B
73D8:  MOVFF  574,57D
73DC:  MOVLB  0
73DE:  CALL   3782
....................  
.................... 	/* check see if we have hit RECORDS_PER_DATAFLASH_BLOCK and 
.................... 	write to dataflash if we need to */ 
.................... 	if ( record_number == RECORDS_PER_DATAFLASH_BLOCK ) { 
73E2:  MOVLB  5
73E4:  MOVF   x74,W
73E6:  SUBLW  2C
73E8:  BTFSS  FD8.2
73EA:  BRA    74E2
.................... //		fprintf(stream_wireless,"# FRAM buffer / dataflash page full. Will write.\r\n"); 
.................... 		dataflash_page = make16(read_ext_fram(FRAM_ADDR_DATAFLASH_PAGE+0),read_ext_fram(FRAM_ADDR_DATAFLASH_PAGE+1)); 
73EC:  CLRF   x7B
73EE:  MOVLW  02
73F0:  MOVWF  x7A
73F2:  MOVLB  0
73F4:  CALL   51FE
73F8:  MOVFF  01,578
73FC:  MOVLB  5
73FE:  CLRF   x7B
7400:  MOVLW  03
7402:  MOVWF  x7A
7404:  MOVLB  0
7406:  CALL   51FE
740A:  MOVFF  578,576
740E:  MOVFF  01,575
.................... //		fprintf(stream_wireless,"# dataflash_page=%lu of %lu\r\n",dataflash_page,DATAFLASH_PAGES); 
....................  
.................... 		/* read data block from FRAM and write to data flash */ 
.................... 		dataflash_resume(); 
7412:  BRA    7332
.................... 		dataflash_select(); 
7414:  BCF    F95.2
7416:  BCF    F8C.2
7418:  NOP   
.................... 		spi_write2(0x82); 
741A:  MOVF   F66,W
741C:  MOVLW  82
741E:  MOVWF  F66
7420:  RRCF   F64,W
7422:  BNC   7420
.................... 		address = dataflash_page << 2; 
7424:  MOVLB  5
7426:  RLCF   x75,W
7428:  MOVWF  x72
742A:  RLCF   x76,W
742C:  MOVWF  x73
742E:  RLCF   x72,F
7430:  RLCF   x73,F
7432:  MOVLW  FC
7434:  ANDWF  x72,F
.................... 		spi_write2(make8(address,1)); 
7436:  MOVFF  573,578
743A:  MOVF   F66,W
743C:  MOVFF  573,F66
7440:  RRCF   F64,W
7442:  BNC   7440
.................... 		spi_write2(make8(address,0)); 
7444:  MOVFF  572,578
7448:  MOVF   F66,W
744A:  MOVFF  572,F66
744E:  RRCF   F64,W
7450:  BNC   744E
.................... 		spi_write2(0); 
7452:  MOVF   F66,W
7454:  CLRF   F66
7456:  RRCF   F64,W
7458:  BNC   7456
....................  
.................... 		for ( address=0 ; address<DATAFLASH_BYTES_PER_PAGE ; address++ ) { 
745A:  CLRF   x73
745C:  CLRF   x72
745E:  MOVF   x73,W
7460:  SUBLW  02
7462:  BNC   749C
7464:  BNZ   746C
7466:  MOVF   x72,W
7468:  SUBLW  0F
746A:  BNC   749C
.................... 			restart_wdt(); 
746C:  CLRWDT
.................... 			i = read_ext_fram(address+FRAM_ADDR_BUFFER_START); 
746E:  MOVFF  572,578
7472:  MOVLW  02
7474:  ADDWF  x73,W
7476:  MOVWF  x79
7478:  MOVWF  x7B
747A:  MOVFF  572,57A
747E:  MOVLB  0
7480:  CALL   51FE
7484:  MOVFF  01,577
.................... 			spi_write2(i); 
7488:  MOVF   F66,W
748A:  MOVFF  577,F66
748E:  RRCF   F64,W
7490:  BNC   748E
.................... 		} 
7492:  MOVLB  5
7494:  INCF   x72,F
7496:  BTFSC  FD8.2
7498:  INCF   x73,F
749A:  BRA    745E
.................... 		dataflash_unselect(); 
749C:  BCF    F95.2
749E:  BSF    F8C.2
74A0:  NOP   
....................  
.................... 		/* update locations in FRAM */ 
.................... 		write_ext_fram(FRAM_ADDR_RECORD_N,0); 
74A2:  CLRF   x7C
74A4:  CLRF   x7B
74A6:  CLRF   x7D
74A8:  MOVLB  0
74AA:  CALL   3782
.................... 		dataflash_page++; 
74AE:  MOVLB  5
74B0:  INCF   x75,F
74B2:  BTFSC  FD8.2
74B4:  INCF   x76,F
.................... 		write_ext_fram(FRAM_ADDR_DATAFLASH_PAGE+0,make8(dataflash_page,1)); 
74B6:  MOVFF  576,578
74BA:  CLRF   x7C
74BC:  MOVLW  02
74BE:  MOVWF  x7B
74C0:  MOVFF  576,57D
74C4:  MOVLB  0
74C6:  CALL   3782
.................... 		write_ext_fram(FRAM_ADDR_DATAFLASH_PAGE+1,make8(dataflash_page,0)); 
74CA:  MOVFF  575,578
74CE:  MOVLB  5
74D0:  CLRF   x7C
74D2:  MOVLW  03
74D4:  MOVWF  x7B
74D6:  MOVFF  575,57D
74DA:  MOVLB  0
74DC:  CALL   3782
74E0:  MOVLB  5
.................... 	} 
.................... } 
74E2:  MOVLB  0
74E4:  GOTO   75B4 (RETURN)
....................  
.................... void log_now(void) { 
.................... 	int8 buff_binary[RECORD_LENGTH]; 
.................... //	int8 buff_hex[64]; /* to data flash */ 
.................... 	int8 buff_decimal[256]; /* to SD card and debugging */ 
.................... 	int16 pulse_period,pulse_min_period,pulse_count; 
.................... 	int8 i; 
.................... 	int16 l; 
....................  
.................... 	/* shut off main timer so we don't change while we copy */ 
.................... 	disable_interrupts(INT_TIMER2); 
74E8:  BCF    F9D.1
.................... 	pulse_period = current.pulse_period; 
74EA:  MOVFF  36,568
74EE:  MOVFF  35,567
.................... 	pulse_min_period = current.pulse_min_period; 
74F2:  MOVFF  38,56A
74F6:  MOVFF  37,569
.................... 	pulse_count = current.pulse_count_log; 
74FA:  MOVFF  3A,56C
74FE:  MOVFF  39,56B
....................  
.................... 	/* reset our current record */ 
.................... 	current.pulse_period=0; 
7502:  CLRF   36
7504:  CLRF   35
.................... 	current.pulse_min_period=0xffff; 
7506:  SETF   38
7508:  SETF   37
.................... 	current.pulse_count_log=0; 
750A:  CLRF   3A
750C:  CLRF   39
.................... 	enable_interrupts(INT_TIMER2); 
750E:  BSF    F9D.1
....................  
.................... 	/* binary */ 
.................... 	buff_binary[0]=timers.year; 
7510:  MOVFF  187,45B
.................... 	buff_binary[1]=timers.month; 
7514:  MOVFF  186,45C
.................... 	buff_binary[2]=timers.day; 
7518:  MOVFF  185,45D
.................... 	buff_binary[3]=timers.hour; 
751C:  MOVFF  182,45E
.................... 	buff_binary[4]=timers.minute; 
7520:  MOVFF  183,45F
....................  
....................  
.................... 	if ( ANEMOMETER_TYPE_THIES == current.anemometer_type ) { 
7524:  DECFSZ 4E,W
7526:  BRA    756E
.................... 		/* scale Thies anemometer frequency to #40HC recipricol frequency */ 
.................... 		l=anemometer_thies_to_40HC(pulse_period); 
7528:  MOVFF  568,5A7
752C:  MOVFF  567,5A6
7530:  CALL   4660
7534:  MOVFF  02,56F
7538:  MOVFF  01,56E
.................... 		buff_binary[5]=make8(l,1); /* wind speed */ 
753C:  MOVFF  56F,460
7540:  MOVLB  4
.................... 		buff_binary[6]=make8(l,0); 
7542:  MOVFF  56E,461
7546:  MOVLB  4
....................  
.................... 		l=anemometer_thies_to_40HC(pulse_min_period); 
7548:  MOVFF  56A,5A7
754C:  MOVFF  569,5A6
7550:  MOVLB  0
7552:  CALL   4660
7556:  MOVFF  02,56F
755A:  MOVFF  01,56E
.................... 		buff_binary[7]=make8(l,1); /* wind gust */ 
755E:  MOVFF  56F,462
7562:  MOVLB  4
.................... 		buff_binary[8]=make8(l,0); 
7564:  MOVFF  56E,463
7568:  MOVLB  4
....................  
.................... 	} else { 
756A:  BRA    7586
756C:  MOVLB  0
.................... 		buff_binary[5]=make8(pulse_period,1); 
756E:  MOVFF  568,460
7572:  MOVLB  4
.................... 		buff_binary[6]=make8(pulse_period,0); 
7574:  MOVFF  567,461
7578:  MOVLB  4
.................... 		buff_binary[7]=make8(pulse_min_period,1); 
757A:  MOVFF  56A,462
757E:  MOVLB  4
.................... 		buff_binary[8]=make8(pulse_min_period,0); 
7580:  MOVFF  569,463
7584:  MOVLB  4
.................... 	} 
....................  
.................... 	buff_binary[9]=make8(pulse_count,1); 
7586:  MOVFF  56C,464
758A:  MOVLB  4
.................... 	buff_binary[10]=make8(pulse_count,0); 
758C:  MOVFF  56B,465
7590:  MOVLB  4
.................... 	buff_binary[11]=(current.battery_charge<<4) + (current.wind_direction_sector & 0x0F); /* battery % full, wind direction sector */ 
7592:  SWAPF  40,W
7594:  MOVLB  5
7596:  MOVWF  x70
7598:  MOVLW  F0
759A:  ANDWF  x70,F
759C:  MOVF   3F,W
759E:  ANDLW  0F
75A0:  ADDWF  x70,W
75A2:  MOVLB  4
75A4:  MOVWF  x66
.................... 	 
.................... 	/* debugging */ 
.................... //	fprintf(modem,"# logging  internal: %s\r\n",buff_hex); 
.................... //	fprintf(modem,"#       test binary: "); 
.................... //	for ( i=0 ; i<RECORD_LENGTH ; i++ ) { 
.................... //		fprintf(modem,"%02x",buff_binary[i]); 
.................... //	} 
.................... //	fprintf(modem,"\r\n"); 
.................... //	fprintf(modem,"# logging dataflash: %s\r\n",buff_decimal); 
....................  
.................... 	/* write to dataflash */ 
.................... 	write_record(buff_binary); 
75A6:  MOVLW  04
75A8:  MOVLB  5
75AA:  MOVWF  x71
75AC:  MOVLW  5B
75AE:  MOVWF  x70
75B0:  MOVLB  0
75B2:  BRA    7358
....................  
....................  
.................... 	if ( SD_LOG_RATE_10 != current.sd_log_rate ) { 
75B4:  DECFSZ 50,W
75B6:  BRA    75BA
75B8:  BRA    7782
.................... 		/* write to SD card */ 
.................... 		/* decimal for human readability and for mmcDaughter */ 
.................... 		sprintf(buff_decimal,"20%02u-%02u-%02u %02u:%02u,%lu,%lu,%lu,%lu,%u,%lu,%c%lu\n", 
.................... 			timers.year,  
.................... 			timers.month,  
.................... 			timers.day,  
.................... 			timers.hour,  
.................... 			timers.minute,  
.................... 			pulse_period,  
.................... 			pulse_min_period,  
.................... 			pulse_count,  
.................... 			current.input_voltage_adc, 
.................... 			current.wind_direction_sector, 
.................... 			current.uptime, 
.................... 			current.serial_prefix, 
.................... 			make16(current.serial_msb,current.serial_lsb) 
.................... 		); 
75BA:  MOVFF  46,571
75BE:  MOVFF  47,570
75C2:  MOVLW  04
75C4:  MOVLB  4
75C6:  MOVWF  x19
75C8:  MOVLW  67
75CA:  MOVWF  x18
75CC:  MOVLW  32
75CE:  MOVLB  5
75D0:  MOVWF  xCB
75D2:  MOVLB  0
75D4:  CALL   24A8
75D8:  MOVLW  30
75DA:  MOVLB  5
75DC:  MOVWF  xCB
75DE:  MOVLB  0
75E0:  CALL   24A8
75E4:  MOVFF  187,5C2
75E8:  MOVLW  01
75EA:  MOVLB  5
75EC:  MOVWF  xC3
75EE:  MOVLB  0
75F0:  CALL   46C2
75F4:  MOVLW  2D
75F6:  MOVLB  5
75F8:  MOVWF  xCB
75FA:  MOVLB  0
75FC:  CALL   24A8
7600:  MOVFF  186,5C2
7604:  MOVLW  01
7606:  MOVLB  5
7608:  MOVWF  xC3
760A:  MOVLB  0
760C:  CALL   46C2
7610:  MOVLW  2D
7612:  MOVLB  5
7614:  MOVWF  xCB
7616:  MOVLB  0
7618:  CALL   24A8
761C:  MOVFF  185,5C2
7620:  MOVLW  01
7622:  MOVLB  5
7624:  MOVWF  xC3
7626:  MOVLB  0
7628:  CALL   46C2
762C:  MOVLW  20
762E:  MOVLB  5
7630:  MOVWF  xCB
7632:  MOVLB  0
7634:  CALL   24A8
7638:  MOVFF  182,5C2
763C:  MOVLW  01
763E:  MOVLB  5
7640:  MOVWF  xC3
7642:  MOVLB  0
7644:  CALL   46C2
7648:  MOVLW  3A
764A:  MOVLB  5
764C:  MOVWF  xCB
764E:  MOVLB  0
7650:  CALL   24A8
7654:  MOVFF  183,5C2
7658:  MOVLW  01
765A:  MOVLB  5
765C:  MOVWF  xC3
765E:  MOVLB  0
7660:  CALL   46C2
7664:  MOVLW  2C
7666:  MOVLB  5
7668:  MOVWF  xCB
766A:  MOVLB  0
766C:  CALL   24A8
7670:  MOVLW  10
7672:  MOVWF  FE9
7674:  MOVFF  568,5C3
7678:  MOVFF  567,5C2
767C:  CALL   24CA
7680:  MOVLW  2C
7682:  MOVLB  5
7684:  MOVWF  xCB
7686:  MOVLB  0
7688:  CALL   24A8
768C:  MOVLW  10
768E:  MOVWF  FE9
7690:  MOVFF  56A,5C3
7694:  MOVFF  569,5C2
7698:  CALL   24CA
769C:  MOVLW  2C
769E:  MOVLB  5
76A0:  MOVWF  xCB
76A2:  MOVLB  0
76A4:  CALL   24A8
76A8:  MOVLW  10
76AA:  MOVWF  FE9
76AC:  MOVFF  56C,5C3
76B0:  MOVFF  56B,5C2
76B4:  CALL   24CA
76B8:  MOVLW  2C
76BA:  MOVLB  5
76BC:  MOVWF  xCB
76BE:  MOVLB  0
76C0:  CALL   24A8
76C4:  MOVLW  10
76C6:  MOVWF  FE9
76C8:  MOVFF  3E,5C3
76CC:  MOVFF  3D,5C2
76D0:  CALL   24CA
76D4:  MOVLW  2C
76D6:  MOVLB  5
76D8:  MOVWF  xCB
76DA:  MOVLB  0
76DC:  CALL   24A8
76E0:  MOVFF  3F,5C2
76E4:  MOVLW  1B
76E6:  MOVLB  5
76E8:  MOVWF  xC3
76EA:  MOVLB  0
76EC:  CALL   46C2
76F0:  MOVLW  2C
76F2:  MOVLB  5
76F4:  MOVWF  xCB
76F6:  MOVLB  0
76F8:  CALL   24A8
76FC:  MOVLW  10
76FE:  MOVWF  FE9
7700:  MOVFF  4C,5C3
7704:  MOVFF  4B,5C2
7708:  CALL   24CA
770C:  MOVLW  2C
770E:  MOVLB  5
7710:  MOVWF  xCB
7712:  MOVLB  0
7714:  CALL   24A8
7718:  MOVFF  45,5CB
771C:  CALL   24A8
7720:  MOVLW  10
7722:  MOVWF  FE9
7724:  MOVFF  571,5C3
7728:  MOVFF  570,5C2
772C:  CALL   24CA
7730:  MOVLW  0A
7732:  MOVLB  5
7734:  MOVWF  xCB
7736:  MOVLB  0
7738:  CALL   24A8
....................  
.................... 		for ( i=0 ; i<strlen(buff_decimal) ; i++ ) { 
773C:  MOVLB  5
773E:  CLRF   x6D
7740:  MOVLW  04
7742:  MOVWF  xA7
7744:  MOVLW  67
7746:  MOVWF  xA6
7748:  MOVLB  0
774A:  CALL   4748
774E:  MOVF   01,W
7750:  MOVLB  5
7752:  SUBWF  x6D,W
7754:  BC    7782
.................... 			/* rdLogger via builtin UART2 */ 
.................... 			fputc(buff_decimal[i],stream_sd); 
7756:  CLRF   03
7758:  MOVF   x6D,W
775A:  ADDLW  67
775C:  MOVWF  FE9
775E:  MOVLW  04
7760:  ADDWFC 03,W
7762:  MOVWF  FEA
7764:  MOVFF  FEF,570
7768:  MOVF   x70,W
776A:  MOVLB  0
776C:  CALL   4782
.................... 			delay_ms(1); 
7770:  MOVLW  01
7772:  MOVLB  5
7774:  MOVWF  xA6
7776:  MOVLB  0
7778:  CALL   1E58
.................... 		} 
777C:  MOVLB  5
777E:  INCF   x6D,F
7780:  BRA    7740
7782:  MOVLB  0
.................... 	} 
....................  
.................... } 
7784:  GOTO   79AC (RETURN)
....................  
....................  
.................... void log_dump(void) { 
.................... 	int16 l; 
.................... 	fprintf(stream_wireless,"# Dumping log\r\n"); 
....................  
.................... 	for ( l=0 ; l<DATAFLASH_PAGES ; l++ ) { 
.................... 		restart_wdt(); 
.................... 		wirelessOn(5); 
.................... 		dataflash_page_read(l); 
.................... 	} 
....................  
.................... 	fprintf(stream_wireless,"> done\r\n"); 
....................  
.................... } 
....................  
.................... /* a packet is 4 records (48 bytes) + headers + crc */ 
.................... void log_send_packet(int16 packetNumber, int16 buff_offset) { 
.................... 	int8 buff[58]; 
.................... 	int16 lCRC; 
.................... 	int8 i; 
....................  
.................... 	buff[0]='#'; 
*
55D2:  MOVLW  23
55D4:  MOVLB  4
55D6:  MOVWF  x63
.................... 	buff[1]=current.serial_prefix; 
55D8:  MOVFF  45,464
.................... 	buff[2]=current.serial_msb; 
55DC:  MOVFF  46,465
.................... 	buff[3]=current.serial_lsb; 
55E0:  MOVFF  47,466
.................... 	buff[4]=sizeof(buff); /* packet length */ 
55E4:  MOVLW  3A
55E6:  MOVWF  x67
.................... 	buff[5]=21; /* packet type */ 
55E8:  MOVLW  15
55EA:  MOVWF  x68
....................  
.................... 	buff[6]=make8(packetNumber,1); 
55EC:  MOVFF  460,469
.................... 	buff[7]=make8(packetNumber,0); 
55F0:  MOVFF  45F,46A
....................  
.................... 	for ( i=0 ; i<48 ; i++ ) { 
55F4:  CLRF   x9F
55F6:  MOVF   x9F,W
55F8:  SUBLW  2F
55FA:  BNC   5636
.................... 		buff[8+i]=log.buff_page[buff_offset+i]; 
55FC:  MOVLW  08
55FE:  ADDWF  x9F,W
5600:  CLRF   03
5602:  ADDLW  63
5604:  MOVWF  01
5606:  MOVLW  04
5608:  ADDWFC 03,F
560A:  MOVF   x9F,W
560C:  ADDWF  x61,W
560E:  MOVWF  xA2
5610:  MOVLW  00
5612:  ADDWFC x62,W
5614:  MOVWF  xA3
5616:  MOVLW  F2
5618:  ADDWF  xA2,W
561A:  MOVWF  FE9
561C:  MOVLW  01
561E:  ADDWFC xA3,W
5620:  MOVWF  FEA
5622:  MOVFF  FEF,4A4
5626:  MOVFF  03,FEA
562A:  MOVFF  01,FE9
562E:  MOVFF  4A4,FEF
.................... 	} 
5632:  INCF   x9F,F
5634:  BRA    55F6
....................  
.................... 	lCRC=crc_chk(buff+1,55); 
5636:  MOVLW  04
5638:  MOVLB  5
563A:  MOVWF  xA7
563C:  MOVLW  64
563E:  MOVWF  xA6
5640:  MOVLW  37
5642:  MOVWF  xA8
5644:  MOVLB  0
5646:  CALL   4128
564A:  MOVFF  02,49E
564E:  MOVFF  01,49D
.................... 	buff[56]=make8(lCRC,1); 
5652:  MOVLB  4
5654:  MOVFF  49E,49B
.................... 	buff[57]=make8(lCRC,0); 
5658:  MOVFF  49D,49C
....................  
.................... 	/* about 10 milliseconds to send all of this */ 
.................... 	for ( i=0 ; i<sizeof(buff) ; i++ ) { 
565C:  CLRF   x9F
565E:  MOVF   x9F,W
5660:  SUBLW  39
5662:  BNC   5684
.................... 		/* xbee modem */ 
.................... 		fputc(buff[i],stream_wireless); 
5664:  CLRF   03
5666:  MOVF   x9F,W
5668:  ADDLW  63
566A:  MOVWF  FE9
566C:  MOVLW  04
566E:  ADDWFC 03,W
5670:  MOVWF  FEA
5672:  MOVFF  FEF,4A0
5676:  MOVF   xA0,W
5678:  MOVLB  0
567A:  CALL   46BA
.................... 	}	 
567E:  MOVLB  4
5680:  INCF   x9F,F
5682:  BRA    565E
.................... } 
5684:  MOVLB  0
5686:  GOTO   573A (RETURN)
....................  
.................... void log_buff_page_dataflash(int16 page) { 
.................... 	int16 l; 
....................  
.................... 	/* read a page of dataflash into RAM */ 
.................... 	dataflash_select(); 
*
5484:  BCF    F95.2
5486:  BCF    F8C.2
5488:  NOP   
.................... 	spi_write2(0xD2); 
548A:  MOVF   F66,W
548C:  MOVLW  D2
548E:  MOVWF  F66
5490:  RRCF   F64,W
5492:  BNC   5490
.................... 	page = page << 2; 
5494:  MOVLB  4
5496:  RLCF   x5B,F
5498:  RLCF   x5C,F
549A:  RLCF   x5B,F
549C:  RLCF   x5C,F
549E:  MOVLW  FC
54A0:  ANDWF  x5B,F
.................... 	spi_write2(make8(page,1)); 
54A2:  MOVFF  45C,45F
54A6:  MOVF   F66,W
54A8:  MOVFF  45C,F66
54AC:  RRCF   F64,W
54AE:  BNC   54AC
.................... 	spi_write2(make8(page,0)); 
54B0:  MOVFF  45B,45F
54B4:  MOVF   F66,W
54B6:  MOVFF  45B,F66
54BA:  RRCF   F64,W
54BC:  BNC   54BA
.................... 	spi_write2(0x00);  
54BE:  MOVF   F66,W
54C0:  CLRF   F66
54C2:  RRCF   F64,W
54C4:  BNC   54C2
....................  
.................... 	/* four don't care bytes */ 
.................... 	spi_write2(0x00); 
54C6:  MOVF   F66,W
54C8:  CLRF   F66
54CA:  RRCF   F64,W
54CC:  BNC   54CA
.................... 	spi_write2(0x00); 
54CE:  MOVF   F66,W
54D0:  CLRF   F66
54D2:  RRCF   F64,W
54D4:  BNC   54D2
.................... 	spi_write2(0x00); 
54D6:  MOVF   F66,W
54D8:  CLRF   F66
54DA:  RRCF   F64,W
54DC:  BNC   54DA
.................... 	spi_write2(0x00); 
54DE:  MOVF   F66,W
54E0:  CLRF   F66
54E2:  RRCF   F64,W
54E4:  BNC   54E2
....................  
.................... 	/* start reading */ 
.................... 	for ( l=0 ; l< (int16) DATAFLASH_BYTES_PER_PAGE ; l++ ) { 
54E6:  CLRF   x5E
54E8:  CLRF   x5D
54EA:  MOVF   x5E,W
54EC:  SUBLW  02
54EE:  BNC   5518
54F0:  BNZ   54F8
54F2:  MOVF   x5D,W
54F4:  SUBLW  0F
54F6:  BNC   5518
.................... 		log.buff_page[l]=spi_read2(0x00); 
54F8:  MOVLW  F2
54FA:  ADDWF  x5D,W
54FC:  MOVWF  FE9
54FE:  MOVLW  01
5500:  ADDWFC x5E,W
5502:  MOVWF  FEA
5504:  MOVF   F66,W
5506:  CLRF   F66
5508:  RRCF   F64,W
550A:  BNC   5508
550C:  MOVFF  F66,FEF
.................... 	} 
5510:  INCF   x5D,F
5512:  BTFSC  FD8.2
5514:  INCF   x5E,F
5516:  BRA    54EA
.................... 	dataflash_unselect(); 
5518:  BCF    F95.2
551A:  BSF    F8C.2
551C:  NOP   
.................... } 
551E:  MOVLB  0
5520:  GOTO   56C8 (RETURN)
....................  
.................... void log_buff_page_fram(void) { 
.................... 	int16 l; 
.................... 	int16 stop; 
....................  
.................... 	stop = (int16) RECORD_LENGTH * (int16) read_ext_fram(FRAM_ADDR_RECORD_N); 
5524:  MOVLB  5
5526:  CLRF   x7B
5528:  CLRF   x7A
552A:  MOVLB  0
552C:  RCALL  51FE
552E:  CLRF   03
5530:  MOVFF  01,45F
5534:  MOVFF  03,460
5538:  MOVLB  5
553A:  CLRF   x7B
553C:  MOVLW  0C
553E:  MOVWF  x7A
5540:  MOVFF  03,57D
5544:  MOVFF  01,57C
5548:  MOVLB  0
554A:  CALL   25EC
554E:  MOVFF  02,45E
5552:  MOVFF  01,45D
....................  
.................... //	for ( l=0 ; l< (int16) DATAFLASH_BYTES_PER_PAGE ; l++ ) { 
....................  
.................... 	/* send all of the data we have */ 
.................... 	for ( l=0 ; l<stop ; l++ ) { 
5556:  MOVLB  4
5558:  CLRF   x5C
555A:  CLRF   x5B
555C:  MOVF   x5C,W
555E:  SUBWF  x5E,W
5560:  BNC   55A8
5562:  BNZ   556A
5564:  MOVF   x5D,W
5566:  SUBWF  x5B,W
5568:  BC    55A8
.................... 		log.buff_page[l]=read_ext_fram(l+ (int16) FRAM_ADDR_BUFFER_START); 
556A:  MOVLW  F2
556C:  ADDWF  x5B,W
556E:  MOVWF  01
5570:  MOVLW  01
5572:  ADDWFC x5C,W
5574:  MOVWF  03
5576:  MOVFF  01,45F
557A:  MOVWF  x60
557C:  MOVFF  45B,461
5580:  MOVLW  02
5582:  ADDWF  x5C,W
5584:  MOVWF  x62
5586:  MOVFF  FE8,57B
558A:  MOVFF  45B,57A
558E:  MOVLB  0
5590:  RCALL  51FE
5592:  MOVFF  460,FEA
5596:  MOVFF  45F,FE9
559A:  MOVFF  01,FEF
.................... 	} 
559E:  MOVLB  4
55A0:  INCF   x5B,F
55A2:  BTFSC  FD8.2
55A4:  INCF   x5C,F
55A6:  BRA    555C
.................... 	/* then send terminator records to round things out */ 
.................... 	for ( ; l < (int16) DATAFLASH_BYTES_PER_PAGE ; l++ ) { 
55A8:  MOVF   x5C,W
55AA:  SUBLW  02
55AC:  BNC   55CC
55AE:  BNZ   55B6
55B0:  MOVF   x5B,W
55B2:  SUBLW  0F
55B4:  BNC   55CC
.................... 		log.buff_page[l]=0xff; 
55B6:  MOVLW  F2
55B8:  ADDWF  x5B,W
55BA:  MOVWF  FE9
55BC:  MOVLW  01
55BE:  ADDWFC x5C,W
55C0:  MOVWF  FEA
55C2:  SETF   FEF
.................... 	} 
55C4:  INCF   x5B,F
55C6:  BTFSC  FD8.2
55C8:  INCF   x5C,F
55CA:  BRA    55A8
.................... } 
55CC:  MOVLB  0
55CE:  GOTO   56D0 (RETURN)
....................  
.................... /* just set log.page_requested, and this tick process will  
.................... send the page */ 
.................... void logSendTick(void) { 
.................... 	static int8 packet=0; 
....................  
.................... 	if ( log.page_requested > (DATAFLASH_PAGES+1 ) || 0==log.n_pages ) { 
*
568A:  MOVLB  4
568C:  MOVF   x03,W
568E:  SUBLW  0F
5690:  BC    569C
5692:  XORLW  FF
5694:  BNZ   56A4
5696:  MOVF   x02,W
5698:  SUBLW  01
569A:  BNC   56A4
569C:  MOVF   x04,F
569E:  BNZ   56AA
56A0:  MOVF   x05,F
56A2:  BNZ   56AA
.................... 		/* nothing to do */ 
.................... 		log.n_pages=0; 
56A4:  CLRF   x05
56A6:  CLRF   x04
.................... 		return; 
56A8:  BRA    5762
.................... 	} 
....................  
....................  
.................... 	if ( input(MODEM_CTS) ) { 
56AA:  BSF    F96.4
56AC:  BTFSS  F84.4
56AE:  BRA    56B2
.................... 		/* wireless modem is full, try next time */ 
.................... 		return; 
56B0:  BRA    5762
.................... 	} 
....................  
.................... 	if ( 0==packet ) { 
56B2:  MOVF   x1A,F
56B4:  BNZ   56D2
.................... //		output_high(AN1_FILTERED); 
.................... 		/* got a request for a new page */ 
.................... 		if ( log.page_requested < DATAFLASH_PAGES ) { 
56B6:  MOVF   x03,W
56B8:  SUBLW  0F
56BA:  BNC   56CC
.................... 			log_buff_page_dataflash(log.page_requested); 
56BC:  MOVFF  403,45C
56C0:  MOVFF  402,45B
56C4:  MOVLB  0
56C6:  BRA    5484
.................... 		} else { 
56C8:  BRA    56D0
56CA:  MOVLB  4
.................... 			log_buff_page_fram(); 
56CC:  MOVLB  0
56CE:  BRA    5524
56D0:  MOVLB  4
.................... 		} 
.................... //		output_low(AN1_FILTERED); 
.................... 	} 
....................  
.................... 	/* send the actual packet */ 
.................... 	wirelessOn(1); 
56D2:  MOVLW  01
56D4:  MOVWF  x5E
56D6:  MOVLB  0
56D8:  CALL   2424
.................... 	log_send_packet(log.page_requested*11+packet, ((int16) packet)*48); /* the int16 cast is important, for some reason! */ 
56DC:  MOVFF  403,57B
56E0:  MOVFF  402,57A
56E4:  MOVLB  5
56E6:  CLRF   x7D
56E8:  MOVLW  0B
56EA:  MOVWF  x7C
56EC:  MOVLB  0
56EE:  CALL   25EC
56F2:  MOVFF  02,45C
56F6:  MOVFF  01,45B
56FA:  MOVLB  4
56FC:  MOVF   x1A,W
56FE:  ADDWF  x5B,F
5700:  MOVLW  00
5702:  ADDWFC x5C,F
5704:  CLRF   x5E
5706:  MOVFF  41A,45D
570A:  MOVFF  45E,57B
570E:  MOVFF  41A,57A
5712:  MOVLB  5
5714:  CLRF   x7D
5716:  MOVLW  30
5718:  MOVWF  x7C
571A:  MOVLB  0
571C:  CALL   25EC
5720:  MOVFF  02,45E
5724:  MOVFF  01,45D
5728:  MOVFF  45C,460
572C:  MOVFF  45B,45F
5730:  MOVFF  02,462
5734:  MOVFF  01,461
5738:  BRA    55D2
.................... 	packet++; 
573A:  MOVLB  4
573C:  INCF   x1A,F
....................  
.................... 	if ( 11 == packet ) { 
573E:  MOVF   x1A,W
5740:  SUBLW  0B
5742:  BNZ   5762
.................... 		/* done with this page */ 
.................... 		packet=0; 
5744:  CLRF   x1A
....................  
.................... 		if ( log.n_pages > 0 ) { 
5746:  MOVF   x04,F
5748:  BNZ   574E
574A:  MOVF   x05,F
574C:  BZ    575E
.................... 			log.page_requested++; 
574E:  INCF   x02,F
5750:  BTFSC  FD8.2
5752:  INCF   x03,F
.................... 			log.n_pages--; 
5754:  MOVF   x04,W
5756:  BTFSC  FD8.2
5758:  DECF   x05,F
575A:  DECF   x04,F
.................... 		} else { 
575C:  BRA    5762
.................... 			log.page_requested=65535; 
575E:  SETF   x03
5760:  SETF   x02
.................... 		} 
.................... 	} 
.................... //	output_low(AN1_FILTERED); 
.................... } 
5762:  MOVLB  0
5764:  GOTO   7994 (RETURN)
....................  
.................... #include "adc.c" 
.................... #define MEDIAN_FILTER_WIDTH  7 
.................... #define MEAN_FILTER_WIDTH    16 
....................  
.................... //------------------------------------------ 
.................... // FUNCTION PROTOTYPES 
....................  
.................... int16 median_filter(int16 latest_element); 
.................... void Insertion_Sort_16(int16 *data, char array_size); 
.................... int16 mean_filter(int16 latest_element); 
....................  
....................  
.................... // filters.c 
.................... //------------------- 
.................... // median_filter: 
.................... // This function sorts an array of longs so it's in 
.................... // ascending order. It then returns the middle element. 
.................... // ie., If the array has 7 elements (0-6), it returns 
.................... // the element at index 3.  The user should ensure that 
.................... // the array has an odd number of elements. 
.................... // This function stores data from prior calls in a static 
.................... // buffer. 
....................  
.................... // The output of this function will always be N/2 +1 
.................... // elements behind the input data, where N is the filter width. 
....................  
.................... int16 median_filter(int16 latest_element) { 
.................... 	static int16 input_buffer[MEDIAN_FILTER_WIDTH]; 
.................... 	static char inbuf_index = 0; 
.................... 	static char num_elements = 0; 
.................... 	int16 sorted_data[MEDIAN_FILTER_WIDTH]; 
.................... 	int16 median; 
....................  
.................... 	// Insert incoming data element into circular input buffer. 
.................... 	input_buffer[inbuf_index] = latest_element; 
.................... 	inbuf_index++; 
.................... 	if(inbuf_index >= MEDIAN_FILTER_WIDTH)  // If index went past buffer end 
....................    	inbuf_index = 0;       // then reset it to start of buffer 
....................  
.................... 	if(num_elements < MEDIAN_FILTER_WIDTH) 
.................... 	   num_elements++; 
....................  
.................... 	// THIS LINE MAY NOT BE NEEDED IF SORTED DATA IS STATIC. 
.................... 	memset(sorted_data, 0, MEDIAN_FILTER_WIDTH * 2); 
....................  
.................... 	// Copy input data buffer to the (to be) sorted data array. 
.................... 	memcpy(sorted_data, input_buffer, num_elements * 2);   // memcpy works on bytes 
....................  
.................... 	// Then sort the data. 
.................... 	Insertion_Sort_16(sorted_data, MEDIAN_FILTER_WIDTH); 
....................  
.................... 	// During the first few calls to this function, we have fewer 
.................... 	// elements in the sorted data array than the filter width. 
.................... 	// So to compensate for that, we pick the median from the number 
.................... 	// of elements that are available.  ie, if we have 3 elements, 
.................... 	// we pick the middle one of those as the median. 
.................... 	// Also, because the sort function sorts the data from low to high, 
.................... 	// we have to calculate the index from the high end of the array. 
.................... 	median = sorted_data[MEDIAN_FILTER_WIDTH - 1 - num_elements/2]; 
....................  
.................... 	return(median); 
.................... } 
....................  
.................... //------------------------------------------------------------- 
.................... // This function calculates the Mean (average). 
....................  
.................... int16 mean_filter(int16 latest_element) { 
.................... 	static int16 input_buffer[MEAN_FILTER_WIDTH]; 
.................... 	static char inbuf_index = 0; 
.................... 	static char num_elements = 0; 
.................... 	int32 mean; 
.................... 	int32 sum; 
.................... 	char i; 
....................  
.................... 	// Insert incoming data element into circular input buffer. 
.................... 	input_buffer[inbuf_index] = latest_element; 
*
42DA:  BCF    FD8.0
42DC:  MOVLB  4
42DE:  RLCF   x4B,W
42E0:  CLRF   03
42E2:  ADDLW  2B
42E4:  MOVWF  FE9
42E6:  MOVLW  04
42E8:  ADDWFC 03,W
42EA:  MOVWF  FEA
42EC:  MOVFF  461,FEC
42F0:  MOVF   FED,F
42F2:  MOVFF  460,FEF
.................... 	inbuf_index++; 
42F6:  INCF   x4B,F
.................... 	if(inbuf_index >= MEAN_FILTER_WIDTH)  // If index went past buffer end 
42F8:  MOVF   x4B,W
42FA:  SUBLW  0F
42FC:  BC    4300
.................... 	   inbuf_index = 0;       // then reset it to start of buffer 
42FE:  CLRF   x4B
....................  
.................... 	if(num_elements < MEAN_FILTER_WIDTH) 
4300:  MOVF   x4C,W
4302:  SUBLW  0F
4304:  BNC   4308
.................... 	   num_elements++; 
4306:  INCF   x4C,F
....................  
.................... 	// Calculate the mean.  This is done by summing up the 
.................... 	// values and dividing by the number of elements. 
.................... 	sum = 0; 
4308:  CLRF   x69
430A:  CLRF   x68
430C:  CLRF   x67
430E:  CLRF   x66
.................... 	for(i = 0; i < num_elements; i++) 
4310:  CLRF   x6A
4312:  MOVF   x4C,W
4314:  SUBWF  x6A,W
4316:  BC    4340
.................... 		sum += input_buffer[i]; 
4318:  BCF    FD8.0
431A:  RLCF   x6A,W
431C:  CLRF   03
431E:  ADDLW  2B
4320:  MOVWF  FE9
4322:  MOVLW  04
4324:  ADDWFC 03,W
4326:  MOVWF  FEA
4328:  MOVFF  FEC,03
432C:  MOVF   FED,F
432E:  MOVF   FEF,W
4330:  ADDWF  x66,F
4332:  MOVF   03,W
4334:  ADDWFC x67,F
4336:  MOVLW  00
4338:  ADDWFC x68,F
433A:  ADDWFC x69,F
433C:  INCF   x6A,F
433E:  BRA    4312
....................  
.................... 	// Round-off the result by adding half the divisor to 
.................... 	// the numerator. 
.................... 	mean = (sum + (int32)(num_elements >> 1)) / num_elements; 
4340:  BCF    FD8.0
4342:  RRCF   x4C,W
4344:  MOVWF  00
4346:  CLRF   01
4348:  CLRF   02
434A:  CLRF   03
434C:  MOVF   00,W
434E:  ADDWF  x66,W
4350:  MOVWF  x6C
4352:  MOVF   01,W
4354:  ADDWFC x67,W
4356:  MOVWF  x6D
4358:  MOVF   02,W
435A:  ADDWFC x68,W
435C:  MOVWF  x6E
435E:  MOVF   03,W
4360:  ADDWFC x69,W
4362:  MOVWF  x6F
4364:  BCF    FD8.1
4366:  MOVWF  x73
4368:  MOVFF  46E,472
436C:  MOVFF  46D,471
4370:  MOVFF  46C,470
4374:  CLRF   x77
4376:  CLRF   x76
4378:  CLRF   x75
437A:  MOVFF  44C,474
437E:  MOVLB  0
4380:  RCALL  4246
4382:  MOVFF  03,465
4386:  MOVFF  02,464
438A:  MOVFF  01,463
438E:  MOVFF  00,462
....................  
.................... 	return((int16)mean); 
4392:  MOVLB  4
4394:  MOVFF  462,01
4398:  MOVFF  463,02
.................... } 
439C:  MOVLB  0
439E:  GOTO   45C2 (RETURN)
....................  
.................... //----------------------------------------------------- 
.................... void Insertion_Sort_16(int16 *data, char array_size) { 
.................... 	char i, j; 
.................... 	int16 index; 
....................  
.................... 	for(i = 1; i < array_size; i++) { 
.................... 		index = data[i]; 
.................... 		j = i; 
.................... 		 
.................... 		while ((j > 0) && (data[j-1] > index)) { 
.................... 			data[j] = data[j-1]; 
.................... 			j = j - 1; 
.................... 		} 
.................... 		 
.................... 		data[j] = index; 
.................... 	} 
.................... } 
....................  
.................... /*  
.................... convert wind direction to a 45 degree sector with 0 at North, 4 at South 
.................... see windDirection_sector.xls spreadsheet 
.................... */ 
.................... int8 wind_sector(int16 a) { 
.................... 	if ( a>=64 && a<192 ) 
*
448A:  MOVLB  4
448C:  MOVF   x5F,F
448E:  BNZ   4496
4490:  MOVF   x5E,W
4492:  SUBLW  3F
4494:  BC    44A6
4496:  MOVF   x5F,F
4498:  BNZ   44A6
449A:  MOVF   x5E,W
449C:  SUBLW  BF
449E:  BNC   44A6
.................... 		return 1; 
44A0:  MOVLW  01
44A2:  MOVWF  01
44A4:  BRA    457C
.................... 	if ( a>=192 && a<320 ) 
44A6:  MOVF   x5F,F
44A8:  BNZ   44B0
44AA:  MOVF   x5E,W
44AC:  SUBLW  BF
44AE:  BC    44C4
44B0:  MOVF   x5F,W
44B2:  SUBLW  01
44B4:  BNC   44C4
44B6:  BNZ   44BE
44B8:  MOVF   x5E,W
44BA:  SUBLW  3F
44BC:  BNC   44C4
.................... 		return 2; 
44BE:  MOVLW  02
44C0:  MOVWF  01
44C2:  BRA    457C
.................... 	if ( a>=320 && a<448 ) 
44C4:  MOVF   x5F,W
44C6:  SUBLW  00
44C8:  BC    44E8
44CA:  XORLW  FF
44CC:  BNZ   44D4
44CE:  MOVF   x5E,W
44D0:  SUBLW  3F
44D2:  BC    44E8
44D4:  MOVF   x5F,W
44D6:  SUBLW  01
44D8:  BNC   44E8
44DA:  BNZ   44E2
44DC:  MOVF   x5E,W
44DE:  SUBLW  BF
44E0:  BNC   44E8
.................... 		return 3; 
44E2:  MOVLW  03
44E4:  MOVWF  01
44E6:  BRA    457C
.................... 	if ( a>=448 && a<576 ) 
44E8:  MOVF   x5F,W
44EA:  SUBLW  00
44EC:  BC    450C
44EE:  XORLW  FF
44F0:  BNZ   44F8
44F2:  MOVF   x5E,W
44F4:  SUBLW  BF
44F6:  BC    450C
44F8:  MOVF   x5F,W
44FA:  SUBLW  02
44FC:  BNC   450C
44FE:  BNZ   4506
4500:  MOVF   x5E,W
4502:  SUBLW  3F
4504:  BNC   450C
.................... 		return 4; 
4506:  MOVLW  04
4508:  MOVWF  01
450A:  BRA    457C
.................... 	if ( a>=576 && a<704 ) 
450C:  MOVF   x5F,W
450E:  SUBLW  01
4510:  BC    4530
4512:  XORLW  FF
4514:  BNZ   451C
4516:  MOVF   x5E,W
4518:  SUBLW  3F
451A:  BC    4530
451C:  MOVF   x5F,W
451E:  SUBLW  02
4520:  BNC   4530
4522:  BNZ   452A
4524:  MOVF   x5E,W
4526:  SUBLW  BF
4528:  BNC   4530
.................... 		return 5; 
452A:  MOVLW  05
452C:  MOVWF  01
452E:  BRA    457C
.................... 	if ( a>=704 && a<832 ) 
4530:  MOVF   x5F,W
4532:  SUBLW  01
4534:  BC    4554
4536:  XORLW  FF
4538:  BNZ   4540
453A:  MOVF   x5E,W
453C:  SUBLW  BF
453E:  BC    4554
4540:  MOVF   x5F,W
4542:  SUBLW  03
4544:  BNC   4554
4546:  BNZ   454E
4548:  MOVF   x5E,W
454A:  SUBLW  3F
454C:  BNC   4554
.................... 		return 6; 
454E:  MOVLW  06
4550:  MOVWF  01
4552:  BRA    457C
.................... 	if ( a>=832 && a<960 ) 
4554:  MOVF   x5F,W
4556:  SUBLW  02
4558:  BC    4578
455A:  XORLW  FF
455C:  BNZ   4564
455E:  MOVF   x5E,W
4560:  SUBLW  3F
4562:  BC    4578
4564:  MOVF   x5F,W
4566:  SUBLW  03
4568:  BNC   4578
456A:  BNZ   4572
456C:  MOVF   x5E,W
456E:  SUBLW  BF
4570:  BNC   4578
.................... 		return 7; 
4572:  MOVLW  07
4574:  MOVWF  01
4576:  BRA    457C
....................  
.................... 	return 0; 
4578:  MOVLW  00
457A:  MOVWF  01
.................... } 
457C:  MOVLB  0
457E:  GOTO   4632 (RETURN)
....................  
.................... int8 battery_charge(int16 a) { 
.................... 	if ( a >= 325 ) return 10; 
*
43A2:  MOVLB  4
43A4:  MOVF   x5F,W
43A6:  SUBLW  00
43A8:  BC    43BA
43AA:  XORLW  FF
43AC:  BNZ   43B4
43AE:  MOVF   x5E,W
43B0:  SUBLW  44
43B2:  BC    43BA
43B4:  MOVLW  0A
43B6:  MOVWF  01
43B8:  BRA    4484
.................... 	if ( a >= 320 ) return 9; 
43BA:  MOVF   x5F,W
43BC:  SUBLW  00
43BE:  BC    43D0
43C0:  XORLW  FF
43C2:  BNZ   43CA
43C4:  MOVF   x5E,W
43C6:  SUBLW  3F
43C8:  BC    43D0
43CA:  MOVLW  09
43CC:  MOVWF  01
43CE:  BRA    4484
.................... 	if ( a >= 318 ) return 8; 
43D0:  MOVF   x5F,W
43D2:  SUBLW  00
43D4:  BC    43E6
43D6:  XORLW  FF
43D8:  BNZ   43E0
43DA:  MOVF   x5E,W
43DC:  SUBLW  3D
43DE:  BC    43E6
43E0:  MOVLW  08
43E2:  MOVWF  01
43E4:  BRA    4484
.................... 	if ( a >= 315 ) return 7; 
43E6:  MOVF   x5F,W
43E8:  SUBLW  00
43EA:  BC    43FC
43EC:  XORLW  FF
43EE:  BNZ   43F6
43F0:  MOVF   x5E,W
43F2:  SUBLW  3A
43F4:  BC    43FC
43F6:  MOVLW  07
43F8:  MOVWF  01
43FA:  BRA    4484
.................... 	if ( a >= 312 ) return 6; 
43FC:  MOVF   x5F,W
43FE:  SUBLW  00
4400:  BC    4412
4402:  XORLW  FF
4404:  BNZ   440C
4406:  MOVF   x5E,W
4408:  SUBLW  37
440A:  BC    4412
440C:  MOVLW  06
440E:  MOVWF  01
4410:  BRA    4484
.................... 	if ( a >= 308 ) return 5; 
4412:  MOVF   x5F,W
4414:  SUBLW  00
4416:  BC    4428
4418:  XORLW  FF
441A:  BNZ   4422
441C:  MOVF   x5E,W
441E:  SUBLW  33
4420:  BC    4428
4422:  MOVLW  05
4424:  MOVWF  01
4426:  BRA    4484
.................... 	if ( a >= 304 ) return 4; 
4428:  MOVF   x5F,W
442A:  SUBLW  00
442C:  BC    443E
442E:  XORLW  FF
4430:  BNZ   4438
4432:  MOVF   x5E,W
4434:  SUBLW  2F
4436:  BC    443E
4438:  MOVLW  04
443A:  MOVWF  01
443C:  BRA    4484
.................... 	if ( a >= 301 ) return 3; 
443E:  MOVF   x5F,W
4440:  SUBLW  00
4442:  BC    4454
4444:  XORLW  FF
4446:  BNZ   444E
4448:  MOVF   x5E,W
444A:  SUBLW  2C
444C:  BC    4454
444E:  MOVLW  03
4450:  MOVWF  01
4452:  BRA    4484
.................... 	if ( a >= 296 ) return 2; 
4454:  MOVF   x5F,W
4456:  SUBLW  00
4458:  BC    446A
445A:  XORLW  FF
445C:  BNZ   4464
445E:  MOVF   x5E,W
4460:  SUBLW  27
4462:  BC    446A
4464:  MOVLW  02
4466:  MOVWF  01
4468:  BRA    4484
.................... 	if ( a >= 289 ) return 1; 
446A:  MOVF   x5F,W
446C:  SUBLW  00
446E:  BC    4480
4470:  XORLW  FF
4472:  BNZ   447A
4474:  MOVF   x5E,W
4476:  SUBLW  20
4478:  BC    4480
447A:  MOVLW  01
447C:  MOVWF  01
447E:  BRA    4484
.................... 	return 0; 
4480:  MOVLW  00
4482:  MOVWF  01
.................... } 
4484:  MOVLB  0
4486:  GOTO   45E4 (RETURN)
....................  
.................... void sample_adc(void) { 
.................... 	int j; 
.................... 	int16 value; 
....................  
.................... 	/* battery voltage */ 
.................... 	set_adc_channel(ADC_AN_IN_VOLTS);	 
*
4582:  MOVLW  00
4584:  MOVWF  01
4586:  MOVF   FC2,W
4588:  ANDLW  C3
458A:  IORWF  01,W
458C:  MOVWF  FC2
.................... 	delay_ms(1); 
458E:  MOVLW  01
4590:  MOVLB  5
4592:  MOVWF  xA6
4594:  MOVLB  0
4596:  CALL   1E58
....................  
.................... 	/* sample 16 times and mean filter */ 
.................... 	for ( j=0 ; j<16 ; j++ ) { 
459A:  MOVLB  4
459C:  CLRF   x5B
459E:  MOVF   x5B,W
45A0:  SUBLW  0F
45A2:  BNC   45D0
.................... 		value = mean_filter(read_adc()); 
45A4:  BSF    FC2.1
45A6:  BTFSC  FC2.1
45A8:  BRA    45A6
45AA:  MOVFF  FC4,03
45AE:  MOVFF  FC3,45E
45B2:  MOVFF  FC4,45F
45B6:  MOVFF  FC4,461
45BA:  MOVFF  FC3,460
45BE:  MOVLB  0
45C0:  BRA    42DA
45C2:  MOVFF  02,45D
45C6:  MOVFF  01,45C
.................... 	} 
45CA:  MOVLB  4
45CC:  INCF   x5B,F
45CE:  BRA    459E
.................... 	current.input_voltage_adc=value; 
45D0:  MOVFF  45D,3E
45D4:  MOVFF  45C,3D
.................... 	current.battery_charge=battery_charge(value); 
45D8:  MOVFF  45D,45F
45DC:  MOVFF  45C,45E
45E0:  MOVLB  0
45E2:  BRA    43A2
45E4:  MOVFF  01,40
....................  
.................... 	/* wind direction */ 
.................... 	if ( HARDWARE_TYPE_RDLOGGERUNIVERSAL == current.hardware_type )  { 
45E8:  MOVF   4D,W
45EA:  SUBLW  02
45EC:  BNZ   45FC
.................... 		set_adc_channel(ADC_WV0_FILTERED); 
45EE:  MOVLW  04
45F0:  MOVWF  01
45F2:  MOVF   FC2,W
45F4:  ANDLW  C3
45F6:  IORWF  01,W
45F8:  MOVWF  FC2
.................... 	} else { 
45FA:  BRA    4608
.................... 		set_adc_channel(3); 
45FC:  MOVLW  0C
45FE:  MOVWF  01
4600:  MOVF   FC2,W
4602:  ANDLW  C3
4604:  IORWF  01,W
4606:  MOVWF  FC2
.................... 	} 
.................... 	delay_ms(1); 
4608:  MOVLW  01
460A:  MOVLB  5
460C:  MOVWF  xA6
460E:  MOVLB  0
4610:  CALL   1E58
.................... 	current.analog0_adc=read_adc(); 
4614:  BSF    FC2.1
4616:  BTFSC  FC2.1
4618:  BRA    4616
461A:  MOVFF  FC3,41
461E:  MOVFF  FC4,42
....................  
.................... 	if ( WIND_DIRECTION_SOURCE_CMPS12 != current.wind_direction_source ) { 
4622:  DECFSZ 51,W
4624:  BRA    4628
4626:  BRA    4636
.................... 		current.wind_direction_sector=wind_sector(current.analog0_adc); 
4628:  MOVFF  42,45F
462C:  MOVFF  41,45E
4630:  BRA    448A
4632:  MOVFF  01,3F
.................... 	} 
....................  
.................... 	set_adc_channel(ADC_WV1_FILTERED); 
4636:  MOVLW  08
4638:  MOVWF  01
463A:  MOVF   FC2,W
463C:  ANDLW  C3
463E:  IORWF  01,W
4640:  MOVWF  FC2
.................... 	delay_ms(1); 
4642:  MOVLW  01
4644:  MOVLB  5
4646:  MOVWF  xA6
4648:  MOVLB  0
464A:  CALL   1E58
.................... 	current.analog1_adc=read_adc(); 
464E:  BSF    FC2.1
4650:  BTFSC  FC2.1
4652:  BRA    4650
4654:  MOVFF  FC3,43
4658:  MOVFF  FC4,44
....................  
....................  
....................  
.................... } 
465C:  GOTO   51F0 (RETURN)
....................  
....................  
....................  
....................  
.................... #include "rtc.c" 
.................... /** rtc.c	Access the DS1307 realtime clock / NVRAM. 
....................  * @author James Jefferson Jarvis <jj@aprsworld.com> 
....................  */ 
....................  
.................... #define RTC_READ_CMD 0xd1 
.................... #define RTC_WRITE_CMD 0xd0 
....................  
.................... void write_rtc(int8 address, int8 data) { 
....................     short ackbit; 
....................  
....................     do { 
....................        i2c_start(); 
*
1FD6:  BSF    F94.4
1FD8:  NOP   
1FDA:  BSF    F94.3
1FDC:  NOP   
1FDE:  BCF    F8B.4
1FE0:  BCF    F94.4
1FE2:  NOP   
1FE4:  BCF    F8B.3
1FE6:  BCF    F94.3
....................        ackbit = i2c_write(0xd0); 
1FE8:  MOVLW  D0
1FEA:  MOVLB  5
1FEC:  MOVWF  x81
1FEE:  MOVLB  0
1FF0:  RCALL  1F84
1FF2:  MOVF   01,W
1FF4:  MOVLB  4
1FF6:  BCF    x7D.0
1FF8:  BTFSC  01.0
1FFA:  BSF    x7D.0
....................     } while(ackbit); 
1FFC:  BTFSS  x7D.0
1FFE:  BRA    2004
2000:  MOVLB  0
2002:  BRA    1FD6
....................  
....................     i2c_write(address); 
2004:  MOVFF  47B,581
2008:  MOVLB  0
200A:  RCALL  1F84
....................     i2c_write(data); 
200C:  MOVFF  47C,581
2010:  RCALL  1F84
....................     i2c_stop(); 
2012:  BCF    F94.4
2014:  NOP   
2016:  BSF    F94.3
2018:  BTFSS  F82.3
201A:  BRA    2018
201C:  NOP   
201E:  BRA    2020
2020:  NOP   
2022:  BSF    F94.4
2024:  NOP   
....................  
....................     return; 
.................... } 
2026:  RETURN 0
....................  
....................  
....................  
.................... int8 read_rtc(int8 address) { 
.................... 	int value; 
....................  
.................... 	// writer the read address for the seconds register (0x00) 
.................... 	do { 
.................... 		i2c_start(); 
*
2086:  BSF    F94.4
2088:  NOP   
208A:  BSF    F94.3
208C:  NOP   
208E:  BCF    F8B.4
2090:  BCF    F94.4
2092:  NOP   
2094:  BCF    F8B.3
2096:  BCF    F94.3
.................... 	} while (1 == i2c_write(0xd0)); // poll for ack 
2098:  MOVLW  D0
209A:  MOVLB  5
209C:  MOVWF  x81
209E:  MOVLB  0
20A0:  RCALL  1F84
20A2:  MOVF   01,W
20A4:  SUBLW  01
20A6:  BZ    2086
....................      
.................... 	i2c_write(address);                    // seconds address 
20A8:  MOVFF  47B,581
20AC:  RCALL  1F84
....................       
....................       // read the seconds from the RTC and output them to RS232 
....................  
.................... 	do { 
.................... 		i2c_start(); 
20AE:  BSF    F94.4
20B0:  NOP   
20B2:  BSF    F94.3
20B4:  NOP   
20B6:  BTFSS  F82.3
20B8:  BRA    20B6
20BA:  BCF    F8B.4
20BC:  BCF    F94.4
20BE:  NOP   
20C0:  BCF    F8B.3
20C2:  BCF    F94.3
.................... 	} while (1 == i2c_write(0xd1)); // poll for ack      
20C4:  MOVLW  D1
20C6:  MOVLB  5
20C8:  MOVWF  x81
20CA:  MOVLB  0
20CC:  RCALL  1F84
20CE:  MOVF   01,W
20D0:  SUBLW  01
20D2:  BZ    20AE
....................  
....................     value=i2c_read(0);     // read the hours 
20D4:  CLRF   00
20D6:  RCALL  203A
20D8:  MOVFF  01,47C
.................... 	i2c_stop();                         // end of transaction 
20DC:  BCF    F94.4
20DE:  NOP   
20E0:  BSF    F94.3
20E2:  BTFSS  F82.3
20E4:  BRA    20E2
20E6:  NOP   
20E8:  BRA    20EA
20EA:  NOP   
20EC:  BSF    F94.4
20EE:  NOP   
....................      
....................  
.................... 	return value; 
20F0:  MOVLB  4
20F2:  MOVFF  47C,01
.................... } 
20F6:  MOVLB  0
20F8:  RETURN 0
....................  
....................  
.................... typedef union { 
.................... 	int32 l; 
.................... 	float f; 
.................... } union_int32_float; 
....................  
....................  
.................... float rtc_read_float(int8 addr) { 
.................... 	int8 a,b,c,d; 
.................... 	union_int32_float u; 
....................  
.................... 	a=read_rtc(addr+0); // MSB 
.................... 	b=read_rtc(addr+1); 
.................... 	c=read_rtc(addr+2); 
.................... 	d=read_rtc(addr+3); // LSB 
....................  
....................  
.................... 	u.l = make32(a,b,c,d); 
....................  
.................... 	return u.f; 
.................... } 
....................  
.................... void rtc_write_float(int8 addr, union_int32_float u) { 
.................... 	write_rtc(addr+0,make8(u.l,3)); // MSB at address+0 
.................... 	write_rtc(addr+1,make8(u.l,2)); 
.................... 	write_rtc(addr+2,make8(u.l,1)); 
.................... 	write_rtc(addr+3,make8(u.l,0)); // LSB at address+3 
.................... } 
....................  
.................... int32 rtc_read_int32(int8 addr) { 
.................... 	int8 a,b,c,d; 
....................  
.................... 	a=read_rtc(addr+0); // MSB 
.................... 	b=read_rtc(addr+1); 
.................... 	c=read_rtc(addr+2); 
.................... 	d=read_rtc(addr+3); // LSB 
.................... 	return make32(a,b,c,d); 
.................... } 
....................  
.................... void rtc_write_int32(int8 addr, int32 val) { 
.................... 	write_rtc(addr+0,make8(val,3)); // MSB at address+0 
.................... 	write_rtc(addr+1,make8(val,2)); 
.................... 	write_rtc(addr+2,make8(val,1)); 
.................... 	write_rtc(addr+3,make8(val,0)); // LSB at address+3 
.................... } 
....................  
.................... int16 rtc_read_int16(int8 addr) { 
.................... 	int8 a,b; 
....................  
.................... 	a=read_rtc(addr+0); 
.................... 	b=read_rtc(addr+1); 
.................... 	return make16(a,b); 
.................... } 
....................  
.................... void rtc_write_int16(int8 addr, int16 val) { 
.................... 	write_rtc(addr+0,make8(val,1)); 
.................... 	write_rtc(addr+1,make8(val,0)); 
.................... } 
....................  
....................  
....................   
.................... void init_rtc(void) { 
.................... 	write_rtc(0x07, 0x10); /* enable SQWE with one second pulse */	 
*
2028:  MOVLW  07
202A:  MOVLB  4
202C:  MOVWF  x7B
202E:  MOVLW  10
2030:  MOVWF  x7C
2032:  MOVLB  0
2034:  RCALL  1FD6
.................... } 
2036:  GOTO   23EC (RETURN)
....................  
.................... /* Address map: 
.................... 00 Seconds 
.................... 01 Minutes 
.................... 02 Hours 
.................... 03 Day 
.................... 04 Date 
.................... 05 Month 
.................... 06 Year 
....................  
.................... 07 Control 
.................... 08 - 3F RAM 56x8 
.................... */	 
....................  
.................... char bin2bcd(char binary_value) { 
.................... 	char temp; 
.................... 	char retval; 
....................  
.................... 	temp = binary_value; 
*
65B2:  MOVFF  461,462
.................... 	retval = 0; 
65B6:  MOVLB  4
65B8:  CLRF   x63
....................  
.................... #IGNORE_WARNINGS 203  
.................... 	while(1) { 
.................... #IGNORE_WARNINGS NONE 
.................... 		if(temp >= 10) { 
65BA:  MOVF   x62,W
65BC:  SUBLW  09
65BE:  BC    65CA
.................... 			// Get the tens digit by doing multiple subtraction of 10 from the binary value 
.................... 			temp -= 10; 
65C0:  MOVLW  0A
65C2:  SUBWF  x62,F
.................... 			retval += 0x10; 
65C4:  MOVLW  10
65C6:  ADDWF  x63,F
.................... 		} else { 
65C8:  BRA    65D0
.................... 			// Get the ones digit by adding the remainder. 
.................... 			retval += temp; 
65CA:  MOVF   x62,W
65CC:  ADDWF  x63,F
.................... 			break; 
65CE:  BRA    65D2
.................... 		} 
.................... 	} 
65D0:  BRA    65BA
.................... 	return(retval); 
65D2:  MOVFF  463,01
.................... } 
65D6:  MOVLB  0
65D8:  RETURN 0
....................  
.................... int8 bcd2bin(int8 bcd_value) { 
.................... 	int8 tens; 
.................... 	int8 ones; 
....................  
.................... 	tens=bcd_value>>4; 
*
20FA:  MOVLB  4
20FC:  SWAPF  x7C,W
20FE:  MOVWF  x7D
2100:  MOVLW  0F
2102:  ANDWF  x7D,F
.................... 	ones=bcd_value&0x0f; 
2104:  MOVF   x7C,W
2106:  ANDLW  0F
2108:  MOVWF  x7E
....................  
.................... 	return (10*tens + ones); 
210A:  MOVF   x7D,W
210C:  MULLW  0A
210E:  MOVF   FF3,W
2110:  ADDWF  x7E,W
2112:  MOVWF  01
.................... } 
2114:  MOVLB  0
2116:  RETURN 0
....................  
.................... #inline 
.................... int get_second_rtc(void) { 
.................... 	return read_rtc(0x00) & 0b01111111; 
.................... } 
....................  
.................... #inline 
.................... int get_minute_rtc(void) { 
.................... 	return read_rtc(0x01); 
.................... } 
....................  
.................... #inline 
.................... int get_hour_rtc(void) { 
.................... 	return read_rtc(0x02) & 0b00111111 ; 
.................... } 
....................  
.................... #inline 
.................... int get_date_rtc(void) { 
.................... 	return read_rtc(0x04); 
.................... } 
....................  
.................... #inline  
.................... int get_month_rtc(void) { 
.................... 	return read_rtc(0x05); 
.................... } 
....................  
.................... #inline  
.................... int get_year_rtc(void) { 
.................... 	return read_rtc(0x06); 
.................... } 
....................  
....................  
.................... /* read real time clock and update timers structure */ 
.................... void update_time_rtc(void) { 
.................... 	timers.hour=bcd2bin(read_rtc(0x02) & 0b00111111); 
*
3A12:  MOVLW  02
3A14:  MOVLB  4
3A16:  MOVWF  x7B
3A18:  MOVLB  0
3A1A:  CALL   2086
3A1E:  MOVF   01,W
3A20:  ANDLW  3F
3A22:  MOVLB  4
3A24:  MOVWF  x5B
3A26:  MOVWF  x7C
3A28:  MOVLB  0
3A2A:  CALL   20FA
3A2E:  MOVFF  01,182
.................... 	timers.minute=bcd2bin(read_rtc(0x01)); 
3A32:  MOVLW  01
3A34:  MOVLB  4
3A36:  MOVWF  x7B
3A38:  MOVLB  0
3A3A:  CALL   2086
3A3E:  MOVFF  01,45B
3A42:  MOVFF  01,47C
3A46:  CALL   20FA
3A4A:  MOVFF  01,183
.................... 	timers.second=bcd2bin(read_rtc(0x00) & 0b01111111); 
3A4E:  MOVLB  4
3A50:  CLRF   x7B
3A52:  MOVLB  0
3A54:  CALL   2086
3A58:  MOVF   01,W
3A5A:  ANDLW  7F
3A5C:  MOVLB  4
3A5E:  MOVWF  x5B
3A60:  MOVWF  x7C
3A62:  MOVLB  0
3A64:  CALL   20FA
3A68:  MOVFF  01,184
.................... 	timers.day=bcd2bin(read_rtc(0x04)); 
3A6C:  MOVLW  04
3A6E:  MOVLB  4
3A70:  MOVWF  x7B
3A72:  MOVLB  0
3A74:  CALL   2086
3A78:  MOVFF  01,45B
3A7C:  MOVFF  01,47C
3A80:  CALL   20FA
3A84:  MOVFF  01,185
.................... 	timers.month=bcd2bin(read_rtc(0x05)); 
3A88:  MOVLW  05
3A8A:  MOVLB  4
3A8C:  MOVWF  x7B
3A8E:  MOVLB  0
3A90:  CALL   2086
3A94:  MOVFF  01,45B
3A98:  MOVFF  01,47C
3A9C:  CALL   20FA
3AA0:  MOVFF  01,186
.................... 	timers.year=bcd2bin(read_rtc(0x06)); 
3AA4:  MOVLW  06
3AA6:  MOVLB  4
3AA8:  MOVWF  x7B
3AAA:  MOVLB  0
3AAC:  CALL   2086
3AB0:  MOVFF  01,45B
3AB4:  MOVFF  01,47C
3AB8:  CALL   20FA
3ABC:  MOVFF  01,187
.................... } 
3AC0:  GOTO   4002 (RETURN)
....................  
....................  
.................... void reset_rtc(void) { 
.................... //		fputs("# invalid date, resetting clock",rs232); 
.................... 		write_rtc(0x00,0x00);	/* enable oscillator and set seconds to zero */ 
*
2118:  MOVLB  4
211A:  CLRF   x7B
211C:  CLRF   x7C
211E:  MOVLB  0
2120:  RCALL  1FD6
.................... 		write_rtc(0x06,0x0a);	/* 2010 */ 
2122:  MOVLW  06
2124:  MOVLB  4
2126:  MOVWF  x7B
2128:  MOVLW  0A
212A:  MOVWF  x7C
212C:  MOVLB  0
212E:  RCALL  1FD6
.................... 		write_rtc(0x05,0x01);	/* January */ 
2130:  MOVLW  05
2132:  MOVLB  4
2134:  MOVWF  x7B
2136:  MOVLW  01
2138:  MOVWF  x7C
213A:  MOVLB  0
213C:  RCALL  1FD6
.................... 		write_rtc(0x04,0x01);	/* 1st */ 
213E:  MOVLW  04
2140:  MOVLB  4
2142:  MOVWF  x7B
2144:  MOVLW  01
2146:  MOVWF  x7C
2148:  MOVLB  0
214A:  RCALL  1FD6
.................... 		write_rtc(0x02,0x00);   /* 00 */ 
214C:  MOVLW  02
214E:  MOVLB  4
2150:  MOVWF  x7B
2152:  CLRF   x7C
2154:  MOVLB  0
2156:  RCALL  1FD6
.................... 		write_rtc(0x01,0x00);   /* 00 */ 
2158:  MOVLW  01
215A:  MOVLB  4
215C:  MOVWF  x7B
215E:  CLRF   x7C
2160:  MOVLB  0
2162:  RCALL  1FD6
.................... } 
2164:  GOTO   2408 (RETURN)
....................  
....................  
....................  
.................... #include "cmps12.c" 
.................... /* Command register (write) / Software version (read) */ 
.................... #define CMPS12_REG_COMMAND_VERSION     0x00 
....................  
.................... /* Compass Bearing 8 bit, i.e. 0-255 for a full circle */ 
.................... #define CMPS12_REG_BEARING             0x01 
....................  
.................... /* Compass Bearing 16 bit, i.e. 0-3599, representing 0-359.9 degrees. register 2 being the  
.................... high byte. This is calculated by the processor from quaternion outputs of the BNO055 */ 
.................... #define CMPS12_REG_BEARING_MSB         0x02 
.................... #define CMPS12_REG_BEARING_LSB         0x03 
....................  
.................... /* Pitch angle - signed byte giving angle in degrees from the horizontal plane (+/- 90) */ 
.................... #define CMPS12_REG_PITCH               0x04 
....................  
.................... /* Roll angle - signed byte giving angle in degrees from the horizontal plane (+/- 90) */ 
.................... #define CMPS12_REG_ROLL                0x05 
....................  
.................... /* Magnetometer X axis raw output, 16 bit signed integer (register 0x06 high byte) */ 
.................... #define CMPS12_REG_MAGNETOMETER_X_MSB  0x06 
.................... #define CMPS12_REG_MAGNETOMETER_X_LSB  0x07 
....................  
.................... /* Magnetometer Y axis raw output, 16 bit signed integer (register 0x08 high byte) */ 
.................... #define CMPS12_REG_MAGNETOMETER_Y_MSB  0x08 
.................... #define CMPS12_REG_MAGNETOMETER_Y_LSB  0x09 
....................  
.................... /* Magnetometer Z axis raw output, 16 bit signed integer (register 0x0A high byte) */ 
.................... #define CMPS12_REG_MAGNETOMETER_Z_MSB  0x0A 
.................... #define CMPS12_REG_MAGNETOMETER_Z_LSB  0x0B 
....................  
.................... /* Accelerometer X axis raw output, 16 bit signed integer (register 0x0C high byte) */ 
.................... #define CMPS12_REG_ACCELEROMETER_X_MSB 0x0C 
.................... #define CMPS12_REG_ACCELEROMETER_X_LSB 0x0D 
....................  
.................... /* Accelerometer Y axis raw output, 16 bit signed integer (register 0x0E high byte) */ 
.................... #define CMPS12_REG_ACCELEROMETER_Y_MSB 0x0E 
.................... #define CMPS12_REG_ACCELEROMETER_Y_LSB 0x0F 
....................  
.................... /* Accelerometer Z axis raw output, 16 bit signed integer (register 0x10 high byte) */ 
.................... #define CMPS12_REG_ACCELEROMETER_Z_MSB 0x10 
.................... #define CMPS12_REG_ACCELEROMETER_Z_LSB 0x11 
....................  
.................... /* Gyro X axis raw output, 16 bit signed integer (register 0x12 high byte) */ 
.................... #define CMPS12_REG_GYRO_X_MSB          0x12 
.................... #define CMPS12_REG_GYRO_X_LSB          0x13 
....................  
.................... /* Gyro Y axis raw output, 16 bit signed integer (register 0x14 high byte) */ 
.................... #define CMPS12_REG_GYRO_Y_MSB          0x14 
.................... #define CMPS12_REG_GYRO_Y_LSB          0x15 
....................  
.................... /* Gyro Z axis raw output, 16 bit signed integer (register 0x16 high byte) */ 
.................... #define CMPS12_REG_GYRO_Z_MSB          0x16 
.................... #define CMPS12_REG_GYRO_Z_LSB          0x17 
....................  
.................... /* Temperature of the BNO055 in degrees centigrade */ 
.................... /* BUG? Seems to be a signed 8 bit number in LSB register */ 
.................... #define CMPS12_REG_TEMPERATURE_MSB     0x18 
.................... #define CMPS12_REG_TEMPERATURE_LSB     0x19 
....................  
.................... /* Compass Bearing 16 bit This is the angle Bosch generate in the BNO055 (0-5759),  
.................... divide by 16 for degrees */ 
.................... #define CMPS12_REG_BNO055_COMPASS_MSB  0x1A 
.................... #define CMPS12_REG_BNO055_COMPASS_LSB  0x1B 
....................  
.................... /* Pitch angle 16 bit - signed byte giving angle in degrees from the horizontal plane (+/-  
.................... 180) */ 
.................... #define CMPS12_REG_PITCH_ANGLE_MSB     0x1C 
.................... #define CMPS12_REG_PITCH_ANGLE_LSB     0x1D 
....................  
.................... /* Calibration state, bits 0 and 1 reflect the calibration status (0 un-calibrated, 3 fully  
.................... calibrated) */ 
.................... #define CMPS12_REG_CALIBRATION_STATE   0x1E 
....................  
.................... void cmps12_write_int8(int8 address, int8 data) { 
....................     short ackbit; 
....................  
....................     do { 
....................        i2c_start(); 
*
6E92:  BSF    F94.4
6E94:  NOP   
6E96:  BSF    F94.3
6E98:  NOP   
6E9A:  BCF    F8B.4
6E9C:  BCF    F94.4
6E9E:  NOP   
6EA0:  BCF    F8B.3
6EA2:  BCF    F94.3
....................        ackbit = i2c_write(I2C_ADDR_CMPS12); 
6EA4:  MOVLW  C0
6EA6:  MOVLB  5
6EA8:  MOVWF  x81
6EAA:  MOVLB  0
6EAC:  CALL   1F84
6EB0:  MOVF   01,W
6EB2:  MOVLB  4
6EB4:  BCF    x5E.0
6EB6:  BTFSC  01.0
6EB8:  BSF    x5E.0
....................     } while ( ackbit ); 
6EBA:  BTFSS  x5E.0
6EBC:  BRA    6EC2
6EBE:  MOVLB  0
6EC0:  BRA    6E92
....................  
....................     i2c_write(address); 
6EC2:  MOVFF  45C,581
6EC6:  MOVLB  0
6EC8:  CALL   1F84
....................     i2c_write(data); 
6ECC:  MOVFF  45D,581
6ED0:  CALL   1F84
....................     i2c_stop(); 
6ED4:  BCF    F94.4
6ED6:  NOP   
6ED8:  BSF    F94.3
6EDA:  BTFSS  F82.3
6EDC:  BRA    6EDA
6EDE:  NOP   
6EE0:  BRA    6EE2
6EE2:  NOP   
6EE4:  BSF    F94.4
6EE6:  NOP   
....................  
....................     return; 
.................... } 
6EE8:  RETURN 0
....................  
.................... void cmps12_save_calibration(void) { 
.................... 	/* To store a profile write the following to the command register: 
.................... 	   0xF0, 0xF5, 0xF6 with a 20ms delay after each of the three bytes. 
.................... 	*/ 
.................... 	cmps12_write_int8(0x00, 0xF0); 
*
6F36:  MOVLB  4
6F38:  CLRF   x5C
6F3A:  MOVLW  F0
6F3C:  MOVWF  x5D
6F3E:  MOVLB  0
6F40:  RCALL  6E92
.................... 	delay_ms(20); 
6F42:  MOVLW  14
6F44:  MOVLB  5
6F46:  MOVWF  xA6
6F48:  MOVLB  0
6F4A:  CALL   1E58
.................... 	cmps12_write_int8(0x00, 0xF5); 
6F4E:  MOVLB  4
6F50:  CLRF   x5C
6F52:  MOVLW  F5
6F54:  MOVWF  x5D
6F56:  MOVLB  0
6F58:  RCALL  6E92
.................... 	delay_ms(20); 
6F5A:  MOVLW  14
6F5C:  MOVLB  5
6F5E:  MOVWF  xA6
6F60:  MOVLB  0
6F62:  CALL   1E58
.................... 	cmps12_write_int8(0x00, 0xF6); 
6F66:  MOVLB  4
6F68:  CLRF   x5C
6F6A:  MOVLW  F6
6F6C:  MOVWF  x5D
6F6E:  MOVLB  0
6F70:  RCALL  6E92
.................... 	delay_ms(20); 
6F72:  MOVLW  14
6F74:  MOVLB  5
6F76:  MOVWF  xA6
6F78:  MOVLB  0
6F7A:  CALL   1E58
.................... } 
6F7E:  GOTO   702C (RETURN)
....................  
.................... void cmps12_erase_calibration(void) { 
.................... 	/* To erase the stored profileso your module powers into a default state write the  
.................... 	   following to the command register: 
.................... 	   0xE0, 0xE5, 0xE2 with a 20ms delay after each of the three bytes. 
.................... 	*/ 
....................  
.................... 	cmps12_write_int8(0x00, 0xE0); 
*
6EEA:  MOVLB  4
6EEC:  CLRF   x5C
6EEE:  MOVLW  E0
6EF0:  MOVWF  x5D
6EF2:  MOVLB  0
6EF4:  RCALL  6E92
.................... 	delay_ms(20); 
6EF6:  MOVLW  14
6EF8:  MOVLB  5
6EFA:  MOVWF  xA6
6EFC:  MOVLB  0
6EFE:  CALL   1E58
.................... 	cmps12_write_int8(0x00, 0xE5); 
6F02:  MOVLB  4
6F04:  CLRF   x5C
6F06:  MOVLW  E5
6F08:  MOVWF  x5D
6F0A:  MOVLB  0
6F0C:  RCALL  6E92
.................... 	delay_ms(20); 
6F0E:  MOVLW  14
6F10:  MOVLB  5
6F12:  MOVWF  xA6
6F14:  MOVLB  0
6F16:  CALL   1E58
.................... 	cmps12_write_int8(0x00, 0xE2); 
6F1A:  MOVLB  4
6F1C:  CLRF   x5C
6F1E:  MOVLW  E2
6F20:  MOVWF  x5D
6F22:  MOVLB  0
6F24:  RCALL  6E92
.................... 	delay_ms(20); 
6F26:  MOVLW  14
6F28:  MOVLB  5
6F2A:  MOVWF  xA6
6F2C:  MOVLB  0
6F2E:  CALL   1E58
.................... } 
6F32:  GOTO   6FEE (RETURN)
....................  
.................... int8 cmps12_read_int8(int8 addr) { 
.................... 	int8 value; 
....................  
.................... 	do { 
.................... 		i2c_start(); 
.................... 	} while (1 == i2c_write(I2C_ADDR_CMPS12));  
....................      
.................... 	/* address to read */ 
.................... 	i2c_write(addr);   
....................       
.................... 	do { 
.................... 		i2c_start(); 
.................... 	} while (1 == i2c_write(I2C_ADDR_CMPS12+1));  
....................  
....................     value=i2c_read(0); 
.................... 	i2c_stop(); 
....................      
.................... 	return value; 
.................... } 
....................  
.................... int8 cmps12_get_int8(int8 addr) { 
.................... 	return current.cmps12_register[addr]; 
*
46A2:  CLRF   03
46A4:  MOVLB  5
46A6:  MOVF   xC1,W
46A8:  ADDLW  56
46AA:  MOVWF  FE9
46AC:  MOVLW  00
46AE:  ADDWFC 03,W
46B0:  MOVWF  FEA
46B2:  MOVFF  FEF,01
.................... } 
46B6:  MOVLB  0
46B8:  RETURN 0
....................  
.................... int16 cmps12_get_int16(int8 addr) { 
.................... 	return make16(current.cmps12_register[addr],current.cmps12_register[addr+1]); 
*
3B72:  CLRF   03
3B74:  MOVLB  5
3B76:  MOVF   xBF,W
3B78:  ADDLW  56
3B7A:  MOVWF  FE9
3B7C:  MOVLW  00
3B7E:  ADDWFC 03,W
3B80:  MOVWF  FEA
3B82:  MOVFF  FEF,5C0
3B86:  MOVLW  01
3B88:  ADDWF  xBF,W
3B8A:  CLRF   03
3B8C:  ADDLW  56
3B8E:  MOVWF  FE9
3B90:  MOVLW  00
3B92:  ADDWFC 03,W
3B94:  MOVWF  FEA
3B96:  MOVFF  FEF,5C1
3B9A:  MOVFF  5C0,03
3B9E:  MOVFF  5C1,01
3BA2:  MOVFF  5C0,02
.................... } 
3BA6:  MOVLB  0
3BA8:  RETURN 0
....................  
.................... #inline 
.................... int8 cmps12_get_version() { 
.................... 	return cmps12_get_int8(CMPS12_REG_COMMAND_VERSION); 
.................... } 
....................  
....................  
....................  
.................... /* read all registers from the CMPS12 module and put into current.cmps12_register[] array */ 
.................... void cmps12_read_registers(void) { 
.................... 	int8 i; 
....................  
.................... #if 0 
.................... 	/* read one register at a time */ 
.................... 	for ( i=0 ; i<=0x1E  ; i++ ) { 
.................... 		current.cmps12_register[i]=cmps12_read_int8(i); 
.................... 	} 
.................... #else  
.................... 	/* read all in one I2C transaction */ 
.................... 	do { 
.................... 		i2c_start(); 
*
3ACC:  BSF    F94.4
3ACE:  NOP   
3AD0:  BSF    F94.3
3AD2:  NOP   
3AD4:  BCF    F8B.4
3AD6:  BCF    F94.4
3AD8:  NOP   
3ADA:  BCF    F8B.3
3ADC:  BCF    F94.3
.................... 	} while (1 == i2c_write(I2C_ADDR_CMPS12));  
3ADE:  MOVLW  C0
3AE0:  MOVLB  5
3AE2:  MOVWF  x81
3AE4:  MOVLB  0
3AE6:  CALL   1F84
3AEA:  MOVF   01,W
3AEC:  SUBLW  01
3AEE:  BZ    3ACC
....................      
.................... 	/* address to read */ 
.................... 	i2c_write(0);   
3AF0:  MOVLB  5
3AF2:  CLRF   x81
3AF4:  MOVLB  0
3AF6:  CALL   1F84
....................       
.................... 	do { 
.................... 		i2c_start(); 
3AFA:  BSF    F94.4
3AFC:  NOP   
3AFE:  BSF    F94.3
3B00:  NOP   
3B02:  BTFSS  F82.3
3B04:  BRA    3B02
3B06:  BCF    F8B.4
3B08:  BCF    F94.4
3B0A:  NOP   
3B0C:  BCF    F8B.3
3B0E:  BCF    F94.3
.................... 	} while (1 == i2c_write(I2C_ADDR_CMPS12+1));  
3B10:  MOVLW  C1
3B12:  MOVLB  5
3B14:  MOVWF  x81
3B16:  MOVLB  0
3B18:  CALL   1F84
3B1C:  MOVF   01,W
3B1E:  SUBLW  01
3B20:  BZ    3AFA
.................... 	  
.................... 	for ( i=0 ; i<0x1E  ; i++ ) { 
3B22:  MOVLB  4
3B24:  CLRF   x5B
3B26:  MOVF   x5B,W
3B28:  SUBLW  1D
3B2A:  BNC   3B4E
.................... 		/* ack */ 
.................... 		current.cmps12_register[i]=i2c_read(1); 
3B2C:  CLRF   03
3B2E:  MOVF   x5B,W
3B30:  ADDLW  56
3B32:  MOVWF  FE9
3B34:  MOVLW  00
3B36:  ADDWFC 03,W
3B38:  MOVWF  FEA
3B3A:  MOVLW  01
3B3C:  MOVWF  00
3B3E:  MOVLB  0
3B40:  CALL   203A
3B44:  MOVFF  01,FEF
.................... 	} 
3B48:  MOVLB  4
3B4A:  INCF   x5B,F
3B4C:  BRA    3B26
....................  
.................... 	/* don't ack last byte */ 
.................... 	current.cmps12_register[0x1e]=i2c_read(0); 
3B4E:  CLRF   00
3B50:  MOVLB  0
3B52:  CALL   203A
3B56:  MOVFF  01,74
....................  
.................... 	i2c_stop(); 
3B5A:  BCF    F94.4
3B5C:  NOP   
3B5E:  BSF    F94.3
3B60:  BTFSS  F82.3
3B62:  BRA    3B60
3B64:  NOP   
3B66:  BRA    3B68
3B68:  NOP   
3B6A:  BSF    F94.4
3B6C:  NOP   
....................      
.................... #endif 
.................... } 
3B6E:  GOTO   40B4 (RETURN)
....................  
.................... /* update current.wind_direction_sector and current.wind_direction_degrees */ 
.................... void cmps12_update_current(void) { 
.................... 	if ( WIND_DIRECTION_SOURCE_CMPS12 == current.wind_direction_source ) { 
*
3E96:  DECFSZ 51,W
3E98:  BRA    3FFC
.................... 		float f; 
.................... 		f=cmps12_get_int16(CMPS12_REG_BNO055_COMPASS_MSB) / 16 + 0.5; 
3E9A:  MOVLW  1A
3E9C:  MOVLB  5
3E9E:  MOVWF  xBF
3EA0:  MOVLB  0
3EA2:  RCALL  3B72
3EA4:  MOVFF  02,460
3EA8:  MOVFF  01,45F
3EAC:  MOVLB  4
3EAE:  RRCF   x60,F
3EB0:  RRCF   x5F,F
3EB2:  RRCF   x60,F
3EB4:  RRCF   x5F,F
3EB6:  RRCF   x60,F
3EB8:  RRCF   x5F,F
3EBA:  RRCF   x60,F
3EBC:  RRCF   x5F,F
3EBE:  MOVLW  0F
3EC0:  ANDWF  x60,F
3EC2:  MOVFF  460,462
3EC6:  MOVFF  45F,461
3ECA:  MOVLB  0
3ECC:  RCALL  3BAA
3ECE:  MOVFF  FEA,462
3ED2:  MOVFF  FE9,461
3ED6:  BCF    FD8.1
3ED8:  MOVFF  03,467
3EDC:  MOVFF  02,466
3EE0:  MOVFF  01,465
3EE4:  MOVFF  00,464
3EE8:  MOVLB  4
3EEA:  CLRF   x6B
3EEC:  CLRF   x6A
3EEE:  CLRF   x69
3EF0:  MOVLW  7E
3EF2:  MOVWF  x68
3EF4:  MOVLB  0
3EF6:  RCALL  3BE0
3EF8:  MOVFF  462,FEA
3EFC:  MOVFF  461,FE9
3F00:  MOVFF  03,45E
3F04:  MOVFF  02,45D
3F08:  MOVFF  01,45C
3F0C:  MOVFF  00,45B
....................  
.................... 		current.wind_direction_degrees = f + current.wind_direction_offset;		 
3F10:  MOVFF  53,462
3F14:  MOVFF  52,461
3F18:  RCALL  3BAA
3F1A:  BCF    FD8.1
3F1C:  MOVFF  45E,467
3F20:  MOVFF  45D,466
3F24:  MOVFF  45C,465
3F28:  MOVFF  45B,464
3F2C:  MOVFF  03,46B
3F30:  MOVFF  02,46A
3F34:  MOVFF  01,469
3F38:  MOVFF  00,468
3F3C:  RCALL  3BE0
3F3E:  MOVFF  03,462
3F42:  MOVFF  02,461
3F46:  MOVFF  01,460
3F4A:  MOVFF  00,45F
3F4E:  BRA    3E58
3F50:  MOVFF  02,55
3F54:  MOVFF  01,54
....................  
.................... 		if ( current.wind_direction_degrees > 359 ) { 
3F58:  MOVF   55,W
3F5A:  SUBLW  00
3F5C:  BC    3F70
3F5E:  XORLW  FF
3F60:  BNZ   3F68
3F62:  MOVF   54,W
3F64:  SUBLW  67
3F66:  BC    3F70
.................... 			current.wind_direction_degrees -= 360; 
3F68:  MOVLW  68
3F6A:  SUBWF  54,F
3F6C:  MOVLW  01
3F6E:  SUBWFB 55,F
.................... 		} 
....................  
.................... 		/* convert wind direction degrees to 0 to 7 sector. Sector is 45 degrees wide, offset halfway. IE sector 4 goes from 
.................... 		   157.5 (158) degrees to 202.5 (203) degrees */ 
....................  
.................... 		if ( current.wind_direction_degrees > 338 ) 
3F70:  MOVF   55,W
3F72:  SUBLW  00
3F74:  BC    3F84
3F76:  XORLW  FF
3F78:  BNZ   3F80
3F7A:  MOVF   54,W
3F7C:  SUBLW  52
3F7E:  BC    3F84
.................... 			current.wind_direction_sector=0; 
3F80:  CLRF   3F
.................... 		else if ( current.wind_direction_degrees > 293 ) 
3F82:  BRA    3FFC
3F84:  MOVF   55,W
3F86:  SUBLW  00
3F88:  BC    3F9A
3F8A:  XORLW  FF
3F8C:  BNZ   3F94
3F8E:  MOVF   54,W
3F90:  SUBLW  25
3F92:  BC    3F9A
.................... 			current.wind_direction_sector=7; 
3F94:  MOVLW  07
3F96:  MOVWF  3F
.................... 		else if ( current.wind_direction_degrees > 248 ) 
3F98:  BRA    3FFC
3F9A:  MOVF   55,F
3F9C:  BNZ   3FA4
3F9E:  MOVF   54,W
3FA0:  SUBLW  F8
3FA2:  BC    3FAA
.................... 			current.wind_direction_sector=6; 
3FA4:  MOVLW  06
3FA6:  MOVWF  3F
.................... 		else if ( current.wind_direction_degrees > 203 ) 
3FA8:  BRA    3FFC
3FAA:  MOVF   55,F
3FAC:  BNZ   3FB4
3FAE:  MOVF   54,W
3FB0:  SUBLW  CB
3FB2:  BC    3FBA
.................... 			current.wind_direction_sector=5; 
3FB4:  MOVLW  05
3FB6:  MOVWF  3F
.................... 		else if ( current.wind_direction_degrees > 158 ) 
3FB8:  BRA    3FFC
3FBA:  MOVF   55,F
3FBC:  BNZ   3FC4
3FBE:  MOVF   54,W
3FC0:  SUBLW  9E
3FC2:  BC    3FCA
.................... 			current.wind_direction_sector=4; 
3FC4:  MOVLW  04
3FC6:  MOVWF  3F
.................... 		else if ( current.wind_direction_degrees > 113 ) 
3FC8:  BRA    3FFC
3FCA:  MOVF   55,F
3FCC:  BNZ   3FD4
3FCE:  MOVF   54,W
3FD0:  SUBLW  71
3FD2:  BC    3FDA
.................... 			current.wind_direction_sector=3; 
3FD4:  MOVLW  03
3FD6:  MOVWF  3F
.................... 		else if ( current.wind_direction_degrees > 68 ) 
3FD8:  BRA    3FFC
3FDA:  MOVF   55,F
3FDC:  BNZ   3FE4
3FDE:  MOVF   54,W
3FE0:  SUBLW  44
3FE2:  BC    3FEA
.................... 			current.wind_direction_sector=2; 
3FE4:  MOVLW  02
3FE6:  MOVWF  3F
.................... 		else if ( current.wind_direction_degrees > 23 ) 
3FE8:  BRA    3FFC
3FEA:  MOVF   55,F
3FEC:  BNZ   3FF4
3FEE:  MOVF   54,W
3FF0:  SUBLW  17
3FF2:  BC    3FFA
.................... 			current.wind_direction_sector=1; 
3FF4:  MOVLW  01
3FF6:  MOVWF  3F
.................... 		else 
3FF8:  BRA    3FFC
.................... 			current.wind_direction_sector=0; 
3FFA:  CLRF   3F
....................  
....................  
.................... 	} 
....................  
.................... } 
3FFC:  GOTO   40B6 (RETURN)
....................  
.................... #include "screens.c" 
.................... void screen_download(void) { 
.................... 	printf(lcd_putch,"Page Req: %05lu",log.page_requested); 
*
697A:  MOVLW  9E
697C:  MOVWF  FF6
697E:  MOVLW  17
6980:  MOVWF  FF7
6982:  MOVLW  0A
6984:  MOVLB  4
6986:  MOVWF  x66
6988:  MOVLB  0
698A:  CALL   2480
698E:  MOVLW  08
6990:  MOVWF  FE9
6992:  MOVFF  403,461
6996:  MOVFF  402,460
699A:  CALL   32A0
.................... 	lcd_goto(LCD_LINE_TWO); 
699E:  MOVLW  40
69A0:  MOVLB  4
69A2:  MOVWF  x6D
69A4:  MOVLB  0
69A6:  CALL   2586
.................... 	printf(lcd_putch," N Pages: %05lu",log.n_pages); 
69AA:  MOVLW  AE
69AC:  MOVWF  FF6
69AE:  MOVLW  17
69B0:  MOVWF  FF7
69B2:  MOVLW  0A
69B4:  MOVLB  4
69B6:  MOVWF  x66
69B8:  MOVLB  0
69BA:  CALL   2480
69BE:  MOVLW  08
69C0:  MOVWF  FE9
69C2:  MOVFF  405,461
69C6:  MOVFF  404,460
69CA:  CALL   32A0
.................... } 
69CE:  GOTO   7298 (RETURN)
....................  
.................... void screen_uptime(void) { 
.................... 	printf(lcd_putch,"Unit Uptime:"); 
.................... 	lcd_goto(LCD_LINE_TWO); 
.................... 	printf(lcd_putch,"%lu minutes",current.uptime); 
.................... } 
....................  
.................... void screen_modem_seconds(void) { 
.................... 	printf(lcd_putch,"Wireless on:"); 
*
648C:  MOVLW  D8
648E:  MOVWF  FF6
6490:  MOVLW  17
6492:  MOVWF  FF7
6494:  CALL   2460
.................... 	lcd_goto(LCD_LINE_TWO); 
6498:  MOVLW  40
649A:  MOVLB  4
649C:  MOVWF  x6D
649E:  MOVLB  0
64A0:  CALL   2586
.................... 	printf(lcd_putch,"%u seconds",timers.modem_seconds); 
64A4:  MOVFF  189,461
64A8:  MOVLW  1B
64AA:  MOVLB  4
64AC:  MOVWF  x62
64AE:  MOVLB  0
64B0:  CALL   321A
64B4:  MOVLW  E8
64B6:  MOVWF  FF6
64B8:  MOVLW  17
64BA:  MOVWF  FF7
64BC:  MOVLW  08
64BE:  MOVLB  4
64C0:  MOVWF  x66
64C2:  MOVLB  0
64C4:  CALL   2480
.................... } 
64C8:  GOTO   7272 (RETURN)
....................  
....................  
.................... #if 0 
.................... void screen_gps_location(void) { 
.................... 	printf(lcd_putch,"Lat:  %02.4lf",gps.latitude); 
.................... 	lcd_goto(LCD_LINE_TWO); 
.................... 	printf(lcd_putch,"Lon: %03.4lf",gps.longitude); 
....................  
.................... 	if ( action.now_gps_update ) { 
.................... 		lcd_goto(LCD_LINE_ONE+15); lcd_putch('O'); 
.................... 		lcd_goto(LCD_LINE_TWO+15); lcd_putch('N'); 
.................... 	} 
....................  
.................... 	if ( action.select_now ) { 
.................... 		action.select_now=0; 
.................... 		action.now_gps_update=1; 
.................... 	} 
.................... } 
.................... #endif 
....................  
.................... void screen_sd(void) { 
.................... 	printf(lcd_putch,"SD Card Status:"); 
*
622E:  MOVLW  F2
6230:  MOVWF  FF6
6232:  MOVLW  17
6234:  MOVWF  FF7
6236:  CALL   2460
.................... 	lcd_goto(LCD_LINE_TWO); 
623A:  MOVLW  40
623C:  MOVLB  4
623E:  MOVWF  x6D
6240:  MOVLB  0
6242:  CALL   2586
.................... 	if ( ! input(MMC_STATUS_TO_HOST) ) { 
6246:  BSF    F96.1
6248:  BTFSC  F84.1
624A:  BRA    626C
.................... 		if ( SD_LOG_RATE_10 == current.sd_log_rate ) { 
624C:  DECFSZ 50,W
624E:  BRA    625E
.................... 			printf(lcd_putch,"Logging (10 sec)"); 
6250:  MOVLW  02
6252:  MOVWF  FF6
6254:  MOVLW  18
6256:  MOVWF  FF7
6258:  CALL   2460
.................... 		} else { 
625C:  BRA    626A
.................... 			printf(lcd_putch,"Logging (60 sec)",); 
625E:  MOVLW  14
6260:  MOVWF  FF6
6262:  MOVLW  18
6264:  MOVWF  FF7
6266:  CALL   2460
.................... //                            0123456789012345 
.................... 		} 
.................... 	} else { 
626A:  BRA    628A
.................... 		if ( SD_LOG_RATE_10 == current.sd_log_rate ) { 
626C:  DECFSZ 50,W
626E:  BRA    627E
.................... 			printf(lcd_putch,"Not ready! (10)",); 
6270:  MOVLW  26
6272:  MOVWF  FF6
6274:  MOVLW  18
6276:  MOVWF  FF7
6278:  CALL   2460
.................... 		} else { 
627C:  BRA    628A
.................... 			printf(lcd_putch,"Not ready! (60)",); 
627E:  MOVLW  36
6280:  MOVWF  FF6
6282:  MOVLW  18
6284:  MOVWF  FF7
6286:  CALL   2460
.................... //                            0123456789012345 
.................... 		} 
.................... 	} 
....................  
....................  
.................... 	if ( action.select_now ) { 
628A:  MOVLB  1
628C:  BTFSS  x80.4
628E:  BRA    6294
.................... 		action.select_now=0; 
6290:  BCF    x80.4
.................... 		action.now_live_status=1; 
6292:  BSF    x7F.5
.................... 	} 
.................... } 
6294:  MOVLB  0
6296:  GOTO   724A (RETURN)
....................  
.................... void screen_dataflash(void) { 
.................... 	printf(lcd_putch,"Internal Memory:"); 
*
61A6:  MOVLW  46
61A8:  MOVWF  FF6
61AA:  MOVLW  18
61AC:  MOVWF  FF7
61AE:  CALL   2460
.................... 	lcd_goto(LCD_LINE_TWO); 
61B2:  MOVLW  40
61B4:  MOVLB  4
61B6:  MOVWF  x6D
61B8:  MOVLB  0
61BA:  CALL   2586
.................... 	printf(lcd_putch,"%lu/%lu full",make16(read_ext_fram(FRAM_ADDR_DATAFLASH_PAGE+0),read_ext_fram(FRAM_ADDR_DATAFLASH_PAGE+1)),DATAFLASH_PAGES); 
61BE:  MOVLB  5
61C0:  CLRF   x7B
61C2:  MOVLW  02
61C4:  MOVWF  x7A
61C6:  MOVLB  0
61C8:  CALL   51FE
61CC:  MOVFF  01,45C
61D0:  MOVLB  5
61D2:  CLRF   x7B
61D4:  MOVLW  03
61D6:  MOVWF  x7A
61D8:  MOVLB  0
61DA:  CALL   51FE
61DE:  MOVFF  01,45D
61E2:  MOVFF  45C,45F
61E6:  MOVFF  01,45E
61EA:  MOVLW  10
61EC:  MOVWF  FE9
61EE:  MOVFF  45C,461
61F2:  MOVFF  01,460
61F6:  CALL   32A0
61FA:  MOVLW  2F
61FC:  MOVLB  4
61FE:  MOVWF  x6F
6200:  MOVLB  0
6202:  CALL   2454
6206:  MOVLW  10
6208:  MOVWF  FE9
620A:  MOVLB  4
620C:  MOVWF  x61
620E:  CLRF   x60
6210:  MOVLB  0
6212:  CALL   32A0
6216:  MOVLW  5F
6218:  MOVWF  FF6
621A:  MOVLW  18
621C:  MOVWF  FF7
621E:  MOVLW  05
6220:  MOVLB  4
6222:  MOVWF  x66
6224:  MOVLB  0
6226:  CALL   2480
.................... } 
622A:  GOTO   7240 (RETURN)
....................  
.................... void screen_analog(void) { 
.................... 	printf(lcd_putch,"Analog 0: %lu",current.analog0_adc); 
*
6364:  MOVLW  66
6366:  MOVWF  FF6
6368:  MOVLW  18
636A:  MOVWF  FF7
636C:  MOVLW  0A
636E:  MOVLB  4
6370:  MOVWF  x66
6372:  MOVLB  0
6374:  CALL   2480
6378:  MOVLW  10
637A:  MOVWF  FE9
637C:  MOVFF  42,461
6380:  MOVFF  41,460
6384:  CALL   32A0
.................... 	lcd_goto(LCD_LINE_TWO); 
6388:  MOVLW  40
638A:  MOVLB  4
638C:  MOVWF  x6D
638E:  MOVLB  0
6390:  CALL   2586
.................... 	printf(lcd_putch,"Analog 1: %lu",current.analog1_adc); 
6394:  MOVLW  74
6396:  MOVWF  FF6
6398:  MOVLW  18
639A:  MOVWF  FF7
639C:  MOVLW  0A
639E:  MOVLB  4
63A0:  MOVWF  x66
63A2:  MOVLB  0
63A4:  CALL   2480
63A8:  MOVLW  10
63AA:  MOVWF  FE9
63AC:  MOVFF  44,461
63B0:  MOVFF  43,460
63B4:  CALL   32A0
.................... //                    0123456789012345 
.................... }	 
63B8:  GOTO   725E (RETURN)
....................  
.................... void screen_power(void) {	 
.................... 	float voltage; 
....................  
.................... 	voltage=(40.0/1024)*current.input_voltage_adc; 
63BC:  MOVFF  3E,462
63C0:  MOVFF  3D,461
63C4:  CALL   3BAA
63C8:  MOVLB  4
63CA:  CLRF   x70
63CC:  CLRF   x6F
63CE:  MOVLW  20
63D0:  MOVWF  x6E
63D2:  MOVLW  7A
63D4:  MOVWF  x6D
63D6:  MOVFF  03,474
63DA:  MOVFF  02,473
63DE:  MOVFF  01,472
63E2:  MOVFF  00,471
63E6:  MOVLB  0
63E8:  CALL   58C6
63EC:  MOVFF  03,45F
63F0:  MOVFF  02,45E
63F4:  MOVFF  01,45D
63F8:  MOVFF  00,45C
.................... 	printf(lcd_putch,"Input: %0.1lf volts",voltage); 
63FC:  MOVLW  82
63FE:  MOVWF  FF6
6400:  MOVLW  18
6402:  MOVWF  FF7
6404:  MOVLW  07
6406:  MOVLB  4
6408:  MOVWF  x66
640A:  MOVLB  0
640C:  CALL   2480
6410:  MOVLW  C9
6412:  MOVWF  FE9
6414:  MOVFF  45F,463
6418:  MOVFF  45E,462
641C:  MOVFF  45D,461
6420:  MOVFF  45C,460
6424:  MOVLW  01
6426:  MOVLB  4
6428:  MOVWF  x64
642A:  MOVLB  0
642C:  CALL   5A00
6430:  MOVLW  8F
6432:  MOVWF  FF6
6434:  MOVLW  18
6436:  MOVWF  FF7
6438:  MOVLW  06
643A:  MOVLB  4
643C:  MOVWF  x66
643E:  MOVLB  0
6440:  CALL   2480
.................... 	//printf(lcd_putch,"Input: %lu volts",current.input_voltage_adc); 
.................... 	lcd_goto(LCD_LINE_TWO); 
6444:  MOVLW  40
6446:  MOVLB  4
6448:  MOVWF  x6D
644A:  MOVLB  0
644C:  CALL   2586
.................... 	 
.................... 	printf(lcd_putch,"Battery: %d%%",current.battery_charge*10); 
6450:  MOVF   40,W
6452:  MULLW  0A
6454:  MOVFF  FF3,460
6458:  MOVLB  4
645A:  MOVLW  96
645C:  MOVWF  FF6
645E:  MOVLW  18
6460:  MOVWF  FF7
6462:  MOVLW  09
6464:  MOVWF  x66
6466:  MOVLB  0
6468:  CALL   2480
646C:  MOVFF  460,466
6470:  MOVLW  18
6472:  MOVLB  4
6474:  MOVWF  x67
6476:  MOVLB  0
6478:  CALL   27DC
647C:  MOVLW  25
647E:  MOVLB  4
6480:  MOVWF  x6F
6482:  MOVLB  0
6484:  CALL   2454
.................... 	 
.................... } 
6488:  GOTO   7268 (RETURN)
....................  
.................... void screen_wind_direction(void) { 
.................... 	printf(lcd_putch,"Wind Direction:"); 
*
5F64:  MOVLW  A4
5F66:  MOVWF  FF6
5F68:  MOVLW  18
5F6A:  MOVWF  FF7
5F6C:  CALL   2460
.................... 	lcd_goto(LCD_LINE_TWO); 
5F70:  MOVLW  40
5F72:  MOVLB  4
5F74:  MOVWF  x6D
5F76:  MOVLB  0
5F78:  CALL   2586
....................  
.................... 	if ( WIND_DIRECTION_SOURCE_CMPS12 == current.wind_direction_source ) { 
5F7C:  DECFSZ 51,W
5F7E:  BRA    5FCE
.................... 		printf(lcd_putch,"%3lu%c (SECTOR=%u)",current.wind_direction_degrees,DEG_SYMBOL,current.wind_direction_sector); 
5F80:  MOVLW  02
5F82:  MOVWF  FE9
5F84:  MOVFF  55,461
5F88:  MOVFF  54,460
5F8C:  CALL   32A0
5F90:  MOVLW  DF
5F92:  MOVLB  4
5F94:  MOVWF  x6F
5F96:  MOVLB  0
5F98:  CALL   2454
5F9C:  MOVLW  BA
5F9E:  MOVWF  FF6
5FA0:  MOVLW  18
5FA2:  MOVWF  FF7
5FA4:  MOVLW  09
5FA6:  MOVLB  4
5FA8:  MOVWF  x66
5FAA:  MOVLB  0
5FAC:  CALL   2480
5FB0:  MOVFF  3F,461
5FB4:  MOVLW  1B
5FB6:  MOVLB  4
5FB8:  MOVWF  x62
5FBA:  MOVLB  0
5FBC:  CALL   321A
5FC0:  MOVLW  29
5FC2:  MOVLB  4
5FC4:  MOVWF  x6F
5FC6:  MOVLB  0
5FC8:  CALL   2454
....................  
.................... 	} else { 
5FCC:  BRA    609C
.................... 		printf(lcd_putch,"Sector %u (",current.wind_direction_sector); 
5FCE:  MOVLW  C8
5FD0:  MOVWF  FF6
5FD2:  MOVLW  18
5FD4:  MOVWF  FF7
5FD6:  MOVLW  07
5FD8:  MOVLB  4
5FDA:  MOVWF  x66
5FDC:  MOVLB  0
5FDE:  CALL   2480
5FE2:  MOVFF  3F,461
5FE6:  MOVLW  1B
5FE8:  MOVLB  4
5FEA:  MOVWF  x62
5FEC:  MOVLB  0
5FEE:  CALL   321A
5FF2:  MOVLW  20
5FF4:  MOVLB  4
5FF6:  MOVWF  x6F
5FF8:  MOVLB  0
5FFA:  CALL   2454
5FFE:  MOVLW  28
6000:  MOVLB  4
6002:  MOVWF  x6F
6004:  MOVLB  0
6006:  CALL   2454
....................  
.................... 		switch ( current.wind_direction_sector ) { 
600A:  MOVF   3F,W
600C:  ADDLW  F8
600E:  BC    6084
6010:  ADDLW  08
6012:  GOTO   60A0
.................... 			case 0: lcd_putch('0'); break; 
6016:  MOVLW  30
6018:  MOVLB  4
601A:  MOVWF  x6F
601C:  MOVLB  0
601E:  CALL   2454
6022:  BRA    6084
.................... 			case 1: lcd_putch("45"); break; 
6024:  MOVLW  D4
6026:  MOVWF  FF6
6028:  MOVLW  18
602A:  MOVWF  FF7
602C:  CALL   2460
6030:  BRA    6084
.................... 			case 2: lcd_putch("90"); break; 
6032:  MOVLW  D8
6034:  MOVWF  FF6
6036:  MOVLW  18
6038:  MOVWF  FF7
603A:  CALL   2460
603E:  BRA    6084
.................... 			case 3: lcd_putch("135"); break; 
6040:  MOVLW  DC
6042:  MOVWF  FF6
6044:  MOVLW  18
6046:  MOVWF  FF7
6048:  CALL   2460
604C:  BRA    6084
.................... 			case 4: lcd_putch("180"); break; 
604E:  MOVLW  E0
6050:  MOVWF  FF6
6052:  MOVLW  18
6054:  MOVWF  FF7
6056:  CALL   2460
605A:  BRA    6084
.................... 			case 5: lcd_putch("225"); break; 
605C:  MOVLW  E4
605E:  MOVWF  FF6
6060:  MOVLW  18
6062:  MOVWF  FF7
6064:  CALL   2460
6068:  BRA    6084
.................... 			case 6: lcd_putch("270"); break; 
606A:  MOVLW  E8
606C:  MOVWF  FF6
606E:  MOVLW  18
6070:  MOVWF  FF7
6072:  CALL   2460
6076:  BRA    6084
.................... 			case 7: lcd_putch("315"); break; 
6078:  MOVLW  EC
607A:  MOVWF  FF6
607C:  MOVLW  18
607E:  MOVWF  FF7
6080:  CALL   2460
.................... 		} 
....................  
.................... 		printf(lcd_putch,"%c)",DEG_SYMBOL); 
6084:  MOVLW  DF
6086:  MOVLB  4
6088:  MOVWF  x6F
608A:  MOVLB  0
608C:  CALL   2454
6090:  MOVLW  29
6092:  MOVLB  4
6094:  MOVWF  x6F
6096:  MOVLB  0
6098:  CALL   2454
.................... 	} 
.................... } 
609C:  GOTO   722C (RETURN)
....................  
.................... void screen_t(void) { 
.................... 	if ( ANEMOMETER_TYPE_THIES == current.anemometer_type ) { 
*
629A:  DECFSZ 4E,W
629C:  BRA    6300
.................... 		printf(lcd_putch,"%lu",current.pulse_period); 
629E:  MOVLW  10
62A0:  MOVWF  FE9
62A2:  MOVFF  36,461
62A6:  MOVFF  35,460
62AA:  CALL   32A0
.................... 		lcd_goto(LCD_LINE_ONE+6); 
62AE:  MOVLW  06
62B0:  MOVLB  4
62B2:  MOVWF  x6D
62B4:  MOVLB  0
62B6:  CALL   2586
.................... 		printf(lcd_putch,"%lu",current.pulse_min_period); 
62BA:  MOVLW  10
62BC:  MOVWF  FE9
62BE:  MOVFF  38,461
62C2:  MOVFF  37,460
62C6:  CALL   32A0
.................... 		lcd_goto(LCD_LINE_ONE+12); 
62CA:  MOVLW  0C
62CC:  MOVLB  4
62CE:  MOVWF  x6D
62D0:  MOVLB  0
62D2:  CALL   2586
.................... 		printf(lcd_putch,"%lu",current.pulse_count_live); 
62D6:  MOVLW  10
62D8:  MOVWF  FE9
62DA:  MOVFF  3C,461
62DE:  MOVFF  3B,460
62E2:  CALL   32A0
.................... 		 
.................... 		lcd_goto(LCD_LINE_TWO); 
62E6:  MOVLW  40
62E8:  MOVLB  4
62EA:  MOVWF  x6D
62EC:  MOVLB  0
62EE:  CALL   2586
.................... 		printf(lcd_putch,"F(Hz) FMax  Cnt"); 
62F2:  MOVLW  F0
62F4:  MOVWF  FF6
62F6:  MOVLW  18
62F8:  MOVWF  FF7
62FA:  CALL   2460
.................... //                        0123456789012345 
....................  
....................  
.................... 	} else { 
62FE:  BRA    6360
.................... 		printf(lcd_putch,"%05lu",current.pulse_period); 
6300:  MOVLW  08
6302:  MOVWF  FE9
6304:  MOVFF  36,461
6308:  MOVFF  35,460
630C:  CALL   32A0
.................... 		lcd_goto(LCD_LINE_ONE+6); 
6310:  MOVLW  06
6312:  MOVLB  4
6314:  MOVWF  x6D
6316:  MOVLB  0
6318:  CALL   2586
.................... 		printf(lcd_putch,"%05lu",current.pulse_min_period); 
631C:  MOVLW  08
631E:  MOVWF  FE9
6320:  MOVFF  38,461
6324:  MOVFF  37,460
6328:  CALL   32A0
.................... 		lcd_goto(LCD_LINE_ONE+12); 
632C:  MOVLW  0C
632E:  MOVLB  4
6330:  MOVWF  x6D
6332:  MOVLB  0
6334:  CALL   2586
.................... 		printf(lcd_putch,"%04lu",current.pulse_count_live); 
6338:  MOVLW  09
633A:  MOVWF  FE9
633C:  MOVFF  3C,461
6340:  MOVFF  3B,460
6344:  CALL   32A0
.................... 		 
.................... 		lcd_goto(LCD_LINE_TWO); 
6348:  MOVLW  40
634A:  MOVLB  4
634C:  MOVWF  x6D
634E:  MOVLB  0
6350:  CALL   2586
.................... 		 
.................... 		printf(lcd_putch,"T     Tmin Count"); 
6354:  MOVLW  00
6356:  MOVWF  FF6
6358:  MOVLW  19
635A:  MOVWF  FF7
635C:  CALL   2460
.................... 	} 
.................... } 
6360:  GOTO   7254 (RETURN)
....................  
.................... void screen_time_date(void) { 
.................... 	printf(lcd_putch,"Date: 20%02u-%02u-%02u",timers.year,timers.month,timers.day); 
*
60CA:  MOVLW  12
60CC:  MOVWF  FF6
60CE:  MOVLW  19
60D0:  MOVWF  FF7
60D2:  MOVLW  08
60D4:  MOVLB  4
60D6:  MOVWF  x66
60D8:  MOVLB  0
60DA:  CALL   2480
60DE:  MOVFF  187,461
60E2:  MOVLW  01
60E4:  MOVLB  4
60E6:  MOVWF  x62
60E8:  MOVLB  0
60EA:  CALL   321A
60EE:  MOVLW  2D
60F0:  MOVLB  4
60F2:  MOVWF  x6F
60F4:  MOVLB  0
60F6:  CALL   2454
60FA:  MOVFF  186,461
60FE:  MOVLW  01
6100:  MOVLB  4
6102:  MOVWF  x62
6104:  MOVLB  0
6106:  CALL   321A
610A:  MOVLW  2D
610C:  MOVLB  4
610E:  MOVWF  x6F
6110:  MOVLB  0
6112:  CALL   2454
6116:  MOVFF  185,461
611A:  MOVLW  01
611C:  MOVLB  4
611E:  MOVWF  x62
6120:  MOVLB  0
6122:  CALL   321A
.................... 	lcd_goto(LCD_LINE_TWO); 
6126:  MOVLW  40
6128:  MOVLB  4
612A:  MOVWF  x6D
612C:  MOVLB  0
612E:  CALL   2586
.................... 	printf(lcd_putch,"Now %02u:%02u:%02u UTC",timers.hour,timers.minute,timers.second); 
6132:  MOVLW  2A
6134:  MOVWF  FF6
6136:  MOVLW  19
6138:  MOVWF  FF7
613A:  MOVLW  04
613C:  MOVLB  4
613E:  MOVWF  x66
6140:  MOVLB  0
6142:  CALL   2480
6146:  MOVFF  182,461
614A:  MOVLW  01
614C:  MOVLB  4
614E:  MOVWF  x62
6150:  MOVLB  0
6152:  CALL   321A
6156:  MOVLW  3A
6158:  MOVLB  4
615A:  MOVWF  x6F
615C:  MOVLB  0
615E:  CALL   2454
6162:  MOVFF  183,461
6166:  MOVLW  01
6168:  MOVLB  4
616A:  MOVWF  x62
616C:  MOVLB  0
616E:  CALL   321A
6172:  MOVLW  3A
6174:  MOVLB  4
6176:  MOVWF  x6F
6178:  MOVLB  0
617A:  CALL   2454
617E:  MOVFF  184,461
6182:  MOVLW  01
6184:  MOVLB  4
6186:  MOVWF  x62
6188:  MOVLB  0
618A:  CALL   321A
618E:  MOVLW  3C
6190:  MOVWF  FF6
6192:  MOVLW  19
6194:  MOVWF  FF7
6196:  MOVLW  04
6198:  MOVLB  4
619A:  MOVWF  x66
619C:  MOVLB  0
619E:  CALL   2480
.................... } 
61A2:  GOTO   7236 (RETURN)
....................  
.................... void screen_version(void) { 
.................... 	printf(lcd_putch,"Firmware Version:"); 
*
69D2:  MOVLW  42
69D4:  MOVWF  FF6
69D6:  MOVLW  19
69D8:  MOVWF  FF7
69DA:  CALL   2460
.................... //                    0123456789012345 
.................... 	lcd_goto(LCD_LINE_TWO); 
69DE:  MOVLW  40
69E0:  MOVLB  4
69E2:  MOVWF  x6D
69E4:  MOVLB  0
69E6:  CALL   2586
.................... 	printf(lcd_putch,"%s  %s",__DATE__,__TIME__); 
69EA:  MOVLW  86
69EC:  MOVWF  FF6
69EE:  MOVLW  14
69F0:  MOVWF  FF7
69F2:  CALL   2460
69F6:  MOVLW  20
69F8:  MOVLB  4
69FA:  MOVWF  x6F
69FC:  MOVLB  0
69FE:  CALL   2454
6A02:  MOVLW  20
6A04:  MOVLB  4
6A06:  MOVWF  x6F
6A08:  MOVLB  0
6A0A:  CALL   2454
6A0E:  MOVLW  54
6A10:  MOVWF  FF6
6A12:  MOVLW  19
6A14:  MOVWF  FF7
6A16:  CALL   2460
.................... } 
6A1A:  GOTO   72A2 (RETURN)
....................  
....................  
....................  
.................... void screen_wind(void) { 
.................... 	float f; 
....................  
.................... 	if ( ANEMOMETER_TYPE_40HC == current.anemometer_type ) { 
*
5CDE:  MOVF   4E,F
5CE0:  BTFSS  FD8.2
5CE2:  BRA    5EA8
.................... 		if ( current.pulse_period>0 && current.pulse_period<65535 ) { 
5CE4:  MOVF   35,F
5CE6:  BNZ   5CEC
5CE8:  MOVF   36,F
5CEA:  BZ    5D6E
5CEC:  INCFSZ 35,W
5CEE:  BRA    5CF6
5CF0:  INCFSZ 36,W
5CF2:  BRA    5CF6
5CF4:  BRA    5D6E
.................... 			f = 7650.0 / current.pulse_period + 0.35; 
5CF6:  MOVFF  36,462
5CFA:  MOVFF  35,461
5CFE:  CALL   3BAA
5D02:  MOVLB  4
5D04:  CLRF   x63
5D06:  MOVLW  10
5D08:  MOVWF  x62
5D0A:  MOVLW  6F
5D0C:  MOVWF  x61
5D0E:  MOVLW  8B
5D10:  MOVWF  x60
5D12:  MOVFF  03,467
5D16:  MOVFF  02,466
5D1A:  MOVFF  01,465
5D1E:  MOVFF  00,464
5D22:  MOVLB  0
5D24:  RCALL  5768
5D26:  MOVFF  00,460
5D2A:  MOVFF  01,461
5D2E:  MOVFF  02,462
5D32:  MOVFF  03,463
5D36:  BCF    FD8.1
5D38:  MOVFF  03,467
5D3C:  MOVFF  02,466
5D40:  MOVFF  01,465
5D44:  MOVFF  00,464
5D48:  MOVLW  33
5D4A:  MOVLB  4
5D4C:  MOVWF  x6B
5D4E:  MOVWF  x6A
5D50:  MOVWF  x69
5D52:  MOVLW  7D
5D54:  MOVWF  x68
5D56:  MOVLB  0
5D58:  CALL   3BE0
5D5C:  MOVFF  03,45F
5D60:  MOVFF  02,45E
5D64:  MOVFF  01,45D
5D68:  MOVFF  00,45C
.................... 		} else { 
5D6C:  BRA    5D7A
.................... 			f = 0.0; 
5D6E:  MOVLB  4
5D70:  CLRF   x5F
5D72:  CLRF   x5E
5D74:  CLRF   x5D
5D76:  CLRF   x5C
5D78:  MOVLB  0
.................... 		} 
.................... 		printf(lcd_putch,"Speed: %02.1f m/s",f); 
5D7A:  MOVLW  5E
5D7C:  MOVWF  FF6
5D7E:  MOVLW  19
5D80:  MOVWF  FF7
5D82:  MOVLW  07
5D84:  MOVLB  4
5D86:  MOVWF  x66
5D88:  MOVLB  0
5D8A:  CALL   2480
5D8E:  MOVLW  41
5D90:  MOVWF  FE9
5D92:  MOVFF  45F,463
5D96:  MOVFF  45E,462
5D9A:  MOVFF  45D,461
5D9E:  MOVFF  45C,460
5DA2:  MOVLW  01
5DA4:  MOVLB  4
5DA6:  MOVWF  x64
5DA8:  MOVLB  0
5DAA:  RCALL  5A00
5DAC:  MOVLW  6B
5DAE:  MOVWF  FF6
5DB0:  MOVLW  19
5DB2:  MOVWF  FF7
5DB4:  MOVLW  04
5DB6:  MOVLB  4
5DB8:  MOVWF  x66
5DBA:  MOVLB  0
5DBC:  CALL   2480
....................  
.................... 		if ( current.pulse_min_period>0 && current.pulse_min_period<65535 ) { 
5DC0:  MOVF   37,F
5DC2:  BNZ   5DC8
5DC4:  MOVF   38,F
5DC6:  BZ    5E4A
5DC8:  INCFSZ 37,W
5DCA:  BRA    5DD2
5DCC:  INCFSZ 38,W
5DCE:  BRA    5DD2
5DD0:  BRA    5E4A
.................... 			f = 7650.0 / current.pulse_min_period + 0.35; 
5DD2:  MOVFF  38,462
5DD6:  MOVFF  37,461
5DDA:  CALL   3BAA
5DDE:  MOVLB  4
5DE0:  CLRF   x63
5DE2:  MOVLW  10
5DE4:  MOVWF  x62
5DE6:  MOVLW  6F
5DE8:  MOVWF  x61
5DEA:  MOVLW  8B
5DEC:  MOVWF  x60
5DEE:  MOVFF  03,467
5DF2:  MOVFF  02,466
5DF6:  MOVFF  01,465
5DFA:  MOVFF  00,464
5DFE:  MOVLB  0
5E00:  RCALL  5768
5E02:  MOVFF  00,460
5E06:  MOVFF  01,461
5E0A:  MOVFF  02,462
5E0E:  MOVFF  03,463
5E12:  BCF    FD8.1
5E14:  MOVFF  03,467
5E18:  MOVFF  02,466
5E1C:  MOVFF  01,465
5E20:  MOVFF  00,464
5E24:  MOVLW  33
5E26:  MOVLB  4
5E28:  MOVWF  x6B
5E2A:  MOVWF  x6A
5E2C:  MOVWF  x69
5E2E:  MOVLW  7D
5E30:  MOVWF  x68
5E32:  MOVLB  0
5E34:  CALL   3BE0
5E38:  MOVFF  03,45F
5E3C:  MOVFF  02,45E
5E40:  MOVFF  01,45D
5E44:  MOVFF  00,45C
.................... 		} else {  
5E48:  BRA    5E54
.................... 			f = 0.0; 
5E4A:  MOVLB  4
5E4C:  CLRF   x5F
5E4E:  CLRF   x5E
5E50:  CLRF   x5D
5E52:  CLRF   x5C
.................... 		} 
....................  
.................... 		lcd_goto(LCD_LINE_TWO); 
5E54:  MOVLW  40
5E56:  MOVLB  4
5E58:  MOVWF  x6D
5E5A:  MOVLB  0
5E5C:  CALL   2586
.................... 		printf(lcd_putch,"Gust:  %02.1f m/s",f); 
5E60:  MOVLW  70
5E62:  MOVWF  FF6
5E64:  MOVLW  19
5E66:  MOVWF  FF7
5E68:  MOVLW  07
5E6A:  MOVLB  4
5E6C:  MOVWF  x66
5E6E:  MOVLB  0
5E70:  CALL   2480
5E74:  MOVLW  41
5E76:  MOVWF  FE9
5E78:  MOVFF  45F,463
5E7C:  MOVFF  45E,462
5E80:  MOVFF  45D,461
5E84:  MOVFF  45C,460
5E88:  MOVLW  01
5E8A:  MOVLB  4
5E8C:  MOVWF  x64
5E8E:  MOVLB  0
5E90:  RCALL  5A00
5E92:  MOVLW  7D
5E94:  MOVWF  FF6
5E96:  MOVLW  19
5E98:  MOVWF  FF7
5E9A:  MOVLW  04
5E9C:  MOVLB  4
5E9E:  MOVWF  x66
5EA0:  MOVLB  0
5EA2:  CALL   2480
....................  
.................... 	} else if ( ANEMOMETER_TYPE_THIES == current.anemometer_type ) { 
5EA6:  BRA    5F60
5EA8:  DECFSZ 4E,W
5EAA:  BRA    5F60
.................... 		printf(lcd_putch,"Speed: %04.1w m/s",anemometer_thies_to_ws(current.pulse_period)); 
5EAC:  MOVFF  36,461
5EB0:  MOVFF  35,460
5EB4:  RCALL  5BB2
5EB6:  MOVFF  02,461
5EBA:  MOVFF  01,460
5EBE:  MOVLW  82
5EC0:  MOVWF  FF6
5EC2:  MOVLW  19
5EC4:  MOVWF  FF7
5EC6:  MOVLW  07
5EC8:  MOVLB  4
5ECA:  MOVWF  x66
5ECC:  MOVLB  0
5ECE:  CALL   2480
5ED2:  MOVLW  44
5ED4:  MOVWF  FE9
5ED6:  MOVLB  4
5ED8:  CLRF   x65
5EDA:  CLRF   x64
5EDC:  MOVFF  461,463
5EE0:  MOVFF  460,462
5EE4:  MOVLW  01
5EE6:  MOVWF  x66
5EE8:  MOVLB  0
5EEA:  RCALL  5BF4
5EEC:  MOVLW  8F
5EEE:  MOVWF  FF6
5EF0:  MOVLW  19
5EF2:  MOVWF  FF7
5EF4:  MOVLW  04
5EF6:  MOVLB  4
5EF8:  MOVWF  x66
5EFA:  MOVLB  0
5EFC:  CALL   2480
.................... 		lcd_goto(LCD_LINE_TWO); 
5F00:  MOVLW  40
5F02:  MOVLB  4
5F04:  MOVWF  x6D
5F06:  MOVLB  0
5F08:  CALL   2586
.................... 		printf(lcd_putch,"Gust:  %04.1w m/s",anemometer_thies_to_ws(current.pulse_min_period)); 
5F0C:  MOVFF  38,461
5F10:  MOVFF  37,460
5F14:  RCALL  5BB2
5F16:  MOVFF  02,461
5F1A:  MOVFF  01,460
5F1E:  MOVLW  94
5F20:  MOVWF  FF6
5F22:  MOVLW  19
5F24:  MOVWF  FF7
5F26:  MOVLW  07
5F28:  MOVLB  4
5F2A:  MOVWF  x66
5F2C:  MOVLB  0
5F2E:  CALL   2480
5F32:  MOVLW  44
5F34:  MOVWF  FE9
5F36:  MOVLB  4
5F38:  CLRF   x65
5F3A:  CLRF   x64
5F3C:  MOVFF  461,463
5F40:  MOVFF  460,462
5F44:  MOVLW  01
5F46:  MOVWF  x66
5F48:  MOVLB  0
5F4A:  RCALL  5BF4
5F4C:  MOVLW  A1
5F4E:  MOVWF  FF6
5F50:  MOVLW  19
5F52:  MOVWF  FF7
5F54:  MOVLW  04
5F56:  MOVLB  4
5F58:  MOVWF  x66
5F5A:  MOVLB  0
5F5C:  CALL   2480
.................... 	}  
.................... } 
5F60:  GOTO   7222 (RETURN)
....................  
.................... void prompt_prev_set_next(void) { 
.................... 	lcd_goto(LCD_LINE_TWO); 
*
6598:  MOVLW  40
659A:  MOVLB  4
659C:  MOVWF  x6D
659E:  MOVLB  0
65A0:  CALL   2586
.................... 	printf(lcd_putch,"Prev  Set   Next"); 
65A4:  MOVLW  A6
65A6:  MOVWF  FF6
65A8:  MOVLW  19
65AA:  MOVWF  FF7
65AC:  CALL   2460
.................... } 
65B0:  RETURN 0
.................... void prompt_minus_set_plus(void) { 
.................... 	lcd_goto(LCD_LINE_TWO); 
*
259A:  MOVLW  40
259C:  MOVLB  4
259E:  MOVWF  x6D
25A0:  MOVLB  0
25A2:  RCALL  2586
.................... 	printf(lcd_putch,"-     Set      +"); 
25A4:  MOVLW  B8
25A6:  MOVWF  FF6
25A8:  MOVLW  19
25AA:  MOVWF  FF7
25AC:  RCALL  2460
.................... } 
25AE:  RETURN 0
.................... void prompt_minus_next_plus(void) { 
.................... 	lcd_goto(LCD_LINE_TWO); 
.................... 	printf(lcd_putch,"-     Next     +"); 
.................... } 
.................... void prompt_no_yes(void) { 
.................... 	lcd_goto(LCD_LINE_TWO); 
.................... 	printf(lcd_putch,"NO    YES"); 
.................... } 
.................... void prompt_prev_enter_next(void) { 
.................... 	lcd_goto(LCD_LINE_TWO); 
.................... 	printf(lcd_putch,"Prev Enter  Next"); 
.................... } 
....................  
.................... short screen_get_int16() { 
.................... 	char n_str[6]; 
....................  
.................... 	sprintf(n_str,"%05lu",keypad.value); 
*
260E:  MOVLW  04
2610:  MOVLB  4
2612:  MOVWF  x19
2614:  MOVLW  66
2616:  MOVWF  x18
2618:  MOVLW  08
261A:  MOVWF  FE9
261C:  MOVFF  407,5C3
2620:  MOVFF  406,5C2
2624:  MOVLB  0
2626:  RCALL  24CA
....................  
.................... //	printf("current position value=%u field=%u\r\n",n_str[keypad.field]-'0',keypad.field); 
....................  
.................... 	/* print bottom line */ 
.................... 	prompt_minus_set_plus(); 
2628:  RCALL  259A
....................  
....................  
.................... 	/* print our value */ 
.................... 	lcd_goto(keypad.start_pos); 
262A:  MOVFF  40C,46D
262E:  RCALL  2586
.................... 	printf(lcd_putch,"%s",n_str); 
2630:  MOVLW  04
2632:  MOVWF  FEA
2634:  MOVLW  66
2636:  MOVWF  FE9
2638:  BRA    25B0
.................... 	/* put cursor on field being changed */ 
.................... 	lcd_goto(keypad.field + keypad.start_pos); 
263A:  MOVLB  4
263C:  MOVF   x0C,W
263E:  ADDWF  x0D,W
2640:  MOVWF  x6C
2642:  MOVWF  x6D
2644:  MOVLB  0
2646:  RCALL  2586
.................... 	lcd_cursor(LCD_CURSOR_ON); 
2648:  MOVLW  0E
264A:  MOVLB  4
264C:  MOVWF  x6C
264E:  MOVLB  0
2650:  RCALL  25D6
.................... 	 
....................  
.................... 	if ( 1 == action.up_now ) { 
2652:  MOVLB  1
2654:  BTFSS  x80.2
2656:  BRA    26EA
.................... 		action.up_now=0; 
2658:  BCF    x80.2
....................  
.................... 		if ( '5'==n_str[keypad.field] && 0==keypad.field )  
265A:  CLRF   03
265C:  MOVLB  4
265E:  MOVF   x0D,W
2660:  ADDLW  66
2662:  MOVWF  FE9
2664:  MOVLW  04
2666:  ADDWFC 03,W
2668:  MOVWF  FEA
266A:  MOVF   FEF,W
266C:  SUBLW  35
266E:  BNZ   267E
2670:  MOVF   x0D,F
2672:  BNZ   267E
.................... 			keypad.value -= 50000; 
2674:  MOVLW  50
2676:  SUBWF  x06,F
2678:  MOVLW  C3
267A:  SUBWFB x07,F
.................... 		else if ( '9' == n_str[keypad.field] ) 
267C:  BRA    26E6
267E:  CLRF   03
2680:  MOVF   x0D,W
2682:  ADDLW  66
2684:  MOVWF  FE9
2686:  MOVLW  04
2688:  ADDWFC 03,W
268A:  MOVWF  FEA
268C:  MOVF   FEF,W
268E:  SUBLW  39
2690:  BNZ   26CC
.................... 			keypad.value -= int16_tens[keypad.field]*9; 
2692:  BCF    FD8.0
2694:  RLCF   x0D,W
2696:  CLRF   03
2698:  MOVLB  0
269A:  CALL   017C
269E:  TBLRD*+
26A0:  MOVFF  FF5,03
26A4:  MOVLB  4
26A6:  MOVWF  x6C
26A8:  MOVFF  03,46D
26AC:  MOVFF  03,57B
26B0:  MOVFF  FE8,57A
26B4:  MOVLB  5
26B6:  CLRF   x7D
26B8:  MOVLW  09
26BA:  MOVWF  x7C
26BC:  MOVLB  0
26BE:  RCALL  25EC
26C0:  MOVF   01,W
26C2:  MOVLB  4
26C4:  SUBWF  x06,F
26C6:  MOVF   02,W
26C8:  SUBWFB x07,F
.................... 		else 
26CA:  BRA    26E6
.................... 			keypad.value += int16_tens[keypad.field]; 
26CC:  BCF    FD8.0
26CE:  RLCF   x0D,W
26D0:  CLRF   03
26D2:  MOVLB  0
26D4:  CALL   017C
26D8:  TBLRD*+
26DA:  MOVFF  FF5,03
26DE:  MOVLB  4
26E0:  ADDWF  x06,F
26E2:  MOVF   03,W
26E4:  ADDWFC x07,F
....................  
.................... 		action.now_redraw=1; 
26E6:  MOVLB  1
26E8:  BSF    x7F.0
.................... 	} 
.................... 	if ( 1 == action.down_now ) { 
26EA:  BTFSS  x80.3
26EC:  BRA    2780
.................... 		action.down_now=0; 
26EE:  BCF    x80.3
.................... 		if ( '0'==n_str[keypad.field] && 0==keypad.field )  
26F0:  CLRF   03
26F2:  MOVLB  4
26F4:  MOVF   x0D,W
26F6:  ADDLW  66
26F8:  MOVWF  FE9
26FA:  MOVLW  04
26FC:  ADDWFC 03,W
26FE:  MOVWF  FEA
2700:  MOVF   FEF,W
2702:  SUBLW  30
2704:  BNZ   2714
2706:  MOVF   x0D,F
2708:  BNZ   2714
.................... 			keypad.value += 50000; 
270A:  MOVLW  50
270C:  ADDWF  x06,F
270E:  MOVLW  C3
2710:  ADDWFC x07,F
.................... 		else if ( '0' == n_str[keypad.field] )  
2712:  BRA    277C
2714:  CLRF   03
2716:  MOVF   x0D,W
2718:  ADDLW  66
271A:  MOVWF  FE9
271C:  MOVLW  04
271E:  ADDWFC 03,W
2720:  MOVWF  FEA
2722:  MOVF   FEF,W
2724:  SUBLW  30
2726:  BNZ   2762
.................... 			keypad.value += int16_tens[keypad.field]*9; 
2728:  BCF    FD8.0
272A:  RLCF   x0D,W
272C:  CLRF   03
272E:  MOVLB  0
2730:  CALL   017C
2734:  TBLRD*+
2736:  MOVFF  FF5,03
273A:  MOVLB  4
273C:  MOVWF  x6C
273E:  MOVFF  03,46D
2742:  MOVFF  03,57B
2746:  MOVFF  FE8,57A
274A:  MOVLB  5
274C:  CLRF   x7D
274E:  MOVLW  09
2750:  MOVWF  x7C
2752:  MOVLB  0
2754:  RCALL  25EC
2756:  MOVF   01,W
2758:  MOVLB  4
275A:  ADDWF  x06,F
275C:  MOVF   02,W
275E:  ADDWFC x07,F
.................... 		else	 
2760:  BRA    277C
.................... 			keypad.value -= int16_tens[keypad.field]; 
2762:  BCF    FD8.0
2764:  RLCF   x0D,W
2766:  CLRF   03
2768:  MOVLB  0
276A:  CALL   017C
276E:  TBLRD*+
2770:  MOVFF  FF5,03
2774:  MOVLB  4
2776:  SUBWF  x06,F
2778:  MOVF   03,W
277A:  SUBWFB x07,F
....................  
.................... 		action.now_redraw=1; 
277C:  MOVLB  1
277E:  BSF    x7F.0
.................... 	} 
.................... 	if ( 1 == action.select_now ) { 
2780:  BTFSS  x80.4
2782:  BRA    278E
.................... 		action.select_now=0; 
2784:  BCF    x80.4
.................... 		keypad.field++; 
2786:  MOVLB  4
2788:  INCF   x0D,F
.................... 		action.now_redraw=1; 
278A:  MOVLB  1
278C:  BSF    x7F.0
.................... 	} 
....................  
.................... 	if ( 5 == keypad.field ) { 
278E:  MOVLB  4
2790:  MOVF   x0D,W
2792:  SUBLW  05
2794:  BNZ   27A6
.................... 		lcd_cursor(LCD_CURSOR_OFF); 
2796:  MOVLW  0C
2798:  MOVWF  x6C
279A:  MOVLB  0
279C:  RCALL  25D6
.................... 		return 1; 
279E:  MOVLW  01
27A0:  MOVWF  01
27A2:  BRA    27AA
27A4:  MOVLB  4
.................... 	} 
....................  
.................... 	return 0; 
27A6:  MOVLW  00
27A8:  MOVWF  01
27AA:  MOVLB  0
.................... } 
27AC:  GOTO   2AEA (RETURN)
....................  
.................... void screen_set_serial(short reset) { 
.................... 	int8 serial_prefix; 
.................... 	int16 serial; 
.................... 	int8 hwtype; 
.................... 	int8 antype; 
.................... 	int8 sdrate; 
.................... 	int8 livetype; 
.................... 	int8 wdsource; 
.................... 	int16 last_serial_number; 
....................  
.................... 	if ( reset ) { 
*
289C:  MOVLB  4
289E:  MOVF   x5B,F
28A0:  BTFSC  FD8.2
28A2:  BRA    2A0C
.................... 		write_eeprom(EE_SERIAL_PREFIX,'R'); 
28A4:  MOVF   FF2,W
28A6:  MOVWF  00
28A8:  BCF    FF2.6
28AA:  BCF    FF2.7
28AC:  CLRF   FAA
28AE:  MOVLW  10
28B0:  MOVWF  FA9
28B2:  MOVLW  52
28B4:  MOVWF  FA8
28B6:  BCF    FA6.6
28B8:  BCF    FA6.7
28BA:  BSF    FA6.2
28BC:  MOVLB  F
28BE:  MOVLW  55
28C0:  MOVWF  FA7
28C2:  MOVLW  AA
28C4:  MOVWF  FA7
28C6:  BSF    FA6.1
28C8:  BTFSC  FA6.1
28CA:  BRA    28C8
28CC:  BCF    FA6.2
28CE:  MOVF   00,W
28D0:  IORWF  FF2,F
.................... 		write_eeprom(EE_SERIAL_MSB,0x00); 
28D2:  MOVFF  FF2,00
28D6:  BCF    FF2.6
28D8:  BCF    FF2.7
28DA:  CLRF   FAA
28DC:  MOVLW  11
28DE:  MOVWF  FA9
28E0:  CLRF   FA8
28E2:  BCF    FA6.6
28E4:  BCF    FA6.7
28E6:  BSF    FA6.2
28E8:  MOVLW  55
28EA:  MOVWF  FA7
28EC:  MOVLW  AA
28EE:  MOVWF  FA7
28F0:  BSF    FA6.1
28F2:  BTFSC  FA6.1
28F4:  BRA    28F2
28F6:  BCF    FA6.2
28F8:  MOVF   00,W
28FA:  IORWF  FF2,F
.................... 		write_eeprom(EE_SERIAL_LSB,0x00); 
28FC:  MOVFF  FF2,00
2900:  BCF    FF2.6
2902:  BCF    FF2.7
2904:  CLRF   FAA
2906:  MOVLW  12
2908:  MOVWF  FA9
290A:  CLRF   FA8
290C:  BCF    FA6.6
290E:  BCF    FA6.7
2910:  BSF    FA6.2
2912:  MOVLW  55
2914:  MOVWF  FA7
2916:  MOVLW  AA
2918:  MOVWF  FA7
291A:  BSF    FA6.1
291C:  BTFSC  FA6.1
291E:  BRA    291C
2920:  BCF    FA6.2
2922:  MOVF   00,W
2924:  IORWF  FF2,F
.................... 		write_eeprom(EE_HW_TYPE,HARDWARE_TYPE_RDLOGGERUNIVERSAL); 
2926:  MOVFF  FF2,00
292A:  BCF    FF2.6
292C:  BCF    FF2.7
292E:  CLRF   FAA
2930:  MOVLW  13
2932:  MOVWF  FA9
2934:  MOVLW  02
2936:  MOVWF  FA8
2938:  BCF    FA6.6
293A:  BCF    FA6.7
293C:  BSF    FA6.2
293E:  MOVLW  55
2940:  MOVWF  FA7
2942:  MOVLW  AA
2944:  MOVWF  FA7
2946:  BSF    FA6.1
2948:  BTFSC  FA6.1
294A:  BRA    2948
294C:  BCF    FA6.2
294E:  MOVF   00,W
2950:  IORWF  FF2,F
.................... 		write_eeprom(EE_ANEMOMETER_TYPE,ANEMOMETER_TYPE_40HC); 
2952:  MOVFF  FF2,00
2956:  BCF    FF2.6
2958:  BCF    FF2.7
295A:  CLRF   FAA
295C:  MOVLW  14
295E:  MOVWF  FA9
2960:  CLRF   FA8
2962:  BCF    FA6.6
2964:  BCF    FA6.7
2966:  BSF    FA6.2
2968:  MOVLW  55
296A:  MOVWF  FA7
296C:  MOVLW  AA
296E:  MOVWF  FA7
2970:  BSF    FA6.1
2972:  BTFSC  FA6.1
2974:  BRA    2972
2976:  BCF    FA6.2
2978:  MOVF   00,W
297A:  IORWF  FF2,F
.................... 		write_eeprom(EE_SD_LOG_RATE,SD_LOG_RATE_60); 
297C:  MOVFF  FF2,00
2980:  BCF    FF2.6
2982:  BCF    FF2.7
2984:  CLRF   FAA
2986:  MOVLW  15
2988:  MOVWF  FA9
298A:  CLRF   FA8
298C:  BCF    FA6.6
298E:  BCF    FA6.7
2990:  BSF    FA6.2
2992:  MOVLW  55
2994:  MOVWF  FA7
2996:  MOVLW  AA
2998:  MOVWF  FA7
299A:  BSF    FA6.1
299C:  BTFSC  FA6.1
299E:  BRA    299C
29A0:  BCF    FA6.2
29A2:  MOVF   00,W
29A4:  IORWF  FF2,F
.................... 		write_eeprom(EE_WIND_DIRECTION_SOURCE, WIND_DIRECTION_SOURCE_ADC); 
29A6:  MOVFF  FF2,00
29AA:  BCF    FF2.6
29AC:  BCF    FF2.7
29AE:  CLRF   FAA
29B0:  MOVLW  17
29B2:  MOVWF  FA9
29B4:  CLRF   FA8
29B6:  BCF    FA6.6
29B8:  BCF    FA6.7
29BA:  BSF    FA6.2
29BC:  MOVLW  55
29BE:  MOVWF  FA7
29C0:  MOVLW  AA
29C2:  MOVWF  FA7
29C4:  BSF    FA6.1
29C6:  BTFSC  FA6.1
29C8:  BRA    29C6
29CA:  BCF    FA6.2
29CC:  MOVF   00,W
29CE:  IORWF  FF2,F
.................... 		write_eeprom_int16(EE_WIND_DIRECTION_OFFSET_MSB,0); 
29D0:  MOVLB  4
29D2:  CLRF   x7C
29D4:  MOVLW  18
29D6:  MOVWF  x7B
29D8:  CLRF   x7E
29DA:  CLRF   x7D
29DC:  MOVLB  0
29DE:  CALL   1DB8
....................  
....................  
.................... 		lcd_clear(); 
29E2:  RCALL  243A
.................... 		lcd_putch("Wrote Default SN"); 
29E4:  MOVLW  F8
29E6:  MOVWF  FF6
29E8:  MOVLW  19
29EA:  MOVWF  FF7
29EC:  RCALL  2460
.................... 		delay_ms(1000); 
29EE:  MOVLW  04
29F0:  MOVLB  4
29F2:  MOVWF  x66
29F4:  MOVLW  FA
29F6:  MOVLB  5
29F8:  MOVWF  xA6
29FA:  MOVLB  0
29FC:  CALL   1E58
2A00:  MOVLB  4
2A02:  DECFSZ x66,F
2A04:  BRA    29F4
.................... 		lcd_clear(); 
2A06:  MOVLB  0
2A08:  RCALL  243A
2A0A:  MOVLB  4
.................... 	} 
.................... 	 
.................... 	serial_prefix=read_eeprom(EE_SERIAL_PREFIX); 
2A0C:  MOVFF  FF2,466
2A10:  BCF    FF2.6
2A12:  BCF    FF2.7
2A14:  CLRF   FAA
2A16:  MOVLW  10
2A18:  MOVWF  FA9
2A1A:  BCF    FA6.6
2A1C:  BCF    FA6.7
2A1E:  BSF    FA6.0
2A20:  MOVF   FA8,W
2A22:  BTFSC  x66.6
2A24:  BSF    FF2.6
2A26:  BTFSC  x66.7
2A28:  BSF    FF2.7
2A2A:  MOVWF  x5C
.................... 	serial=make16(read_eeprom(EE_SERIAL_MSB),read_eeprom(EE_SERIAL_LSB)); 
2A2C:  MOVFF  FF2,466
2A30:  BCF    FF2.6
2A32:  BCF    FF2.7
2A34:  CLRF   FAA
2A36:  MOVLW  11
2A38:  MOVWF  FA9
2A3A:  BCF    FA6.6
2A3C:  BCF    FA6.7
2A3E:  BSF    FA6.0
2A40:  MOVF   FA8,W
2A42:  BTFSC  x66.6
2A44:  BSF    FF2.6
2A46:  BTFSC  x66.7
2A48:  BSF    FF2.7
2A4A:  MOVWF  x67
2A4C:  MOVFF  FF2,468
2A50:  BCF    FF2.6
2A52:  BCF    FF2.7
2A54:  CLRF   FAA
2A56:  MOVLW  12
2A58:  MOVWF  FA9
2A5A:  BCF    FA6.6
2A5C:  BCF    FA6.7
2A5E:  BSF    FA6.0
2A60:  MOVF   FA8,W
2A62:  BTFSC  x68.6
2A64:  BSF    FF2.6
2A66:  BTFSC  x68.7
2A68:  BSF    FF2.7
2A6A:  MOVWF  x69
2A6C:  MOVFF  467,45E
2A70:  MOVFF  469,45D
....................  
.................... 	action.select_now=action.up_now=action.down_now=0; 
2A74:  MOVLB  1
2A76:  BCF    x80.3
2A78:  BCF    x80.2
2A7A:  BCF    x80.4
....................  
.................... 	lcd_clear(); 
2A7C:  MOVLB  0
2A7E:  RCALL  243A
....................  
.................... 	printf(lcd_putch,"Setting SN..."); 
2A80:  MOVLW  0A
2A82:  MOVWF  FF6
2A84:  MOVLW  1A
2A86:  MOVWF  FF7
2A88:  RCALL  2460
.................... 	delay_ms(2500); 
2A8A:  MOVLW  0A
2A8C:  MOVLB  4
2A8E:  MOVWF  x66
2A90:  MOVLW  FA
2A92:  MOVLB  5
2A94:  MOVWF  xA6
2A96:  MOVLB  0
2A98:  CALL   1E58
2A9C:  MOVLB  4
2A9E:  DECFSZ x66,F
2AA0:  BRA    2A90
....................  
.................... 	/* set our values for next state */ 
.................... 	keypad.value=serial;  
2AA2:  MOVFF  45E,407
2AA6:  MOVFF  45D,406
.................... 	keypad.field=0; 
2AAA:  CLRF   x0D
.................... 	keypad.start_pos=9; 
2AAC:  MOVLW  09
2AAE:  MOVWF  x0C
....................  
.................... 	last_serial_number=65535; 
2AB0:  SETF   x65
2AB2:  SETF   x64
....................  
.................... #ignore_warnings 203 
.................... 	while ( 1 ) { 
.................... #ignore_warnings NONE 
.................... 		restart_wdt(); 
2AB4:  CLRWDT
....................  
.................... 		if ( last_serial_number != keypad.value ) { 
2AB6:  MOVF   x06,W
2AB8:  SUBWF  x64,W
2ABA:  BNZ   2AC2
2ABC:  MOVF   x07,W
2ABE:  SUBWF  x65,W
2AC0:  BZ    2AE6
.................... 			lcd_clear(); 
2AC2:  MOVLB  0
2AC4:  RCALL  243A
.................... 			printf(lcd_putch,"Serial: %c",serial_prefix); 
2AC6:  MOVLW  18
2AC8:  MOVWF  FF6
2ACA:  MOVLW  1A
2ACC:  MOVWF  FF7
2ACE:  MOVLW  08
2AD0:  MOVLB  4
2AD2:  MOVWF  x66
2AD4:  MOVLB  0
2AD6:  RCALL  2480
2AD8:  MOVFF  45C,46F
2ADC:  RCALL  2454
.................... 			last_serial_number=keypad.value; 
2ADE:  MOVFF  407,465
2AE2:  MOVFF  406,464
.................... 		} 
....................  
.................... 		if ( screen_get_int16() ) { 
2AE6:  MOVLB  0
2AE8:  BRA    260E
2AEA:  MOVF   01,F
2AEC:  BZ    2AF8
.................... 			serial=keypad.value; 
2AEE:  MOVFF  407,45E
2AF2:  MOVFF  406,45D
.................... 			break; 
2AF6:  BRA    2AFE
.................... 		} 
.................... 	} 
2AF8:  MOVLB  4
2AFA:  BRA    2AB4
2AFC:  MOVLB  0
....................  
....................  
....................  
.................... 	/* write the new serial number */ 
.................... 	write_eeprom(EE_SERIAL_PREFIX,'R'); 
2AFE:  MOVF   FF2,W
2B00:  MOVWF  00
2B02:  BCF    FF2.6
2B04:  BCF    FF2.7
2B06:  CLRF   FAA
2B08:  MOVLW  10
2B0A:  MOVWF  FA9
2B0C:  MOVLW  52
2B0E:  MOVWF  FA8
2B10:  BCF    FA6.6
2B12:  BCF    FA6.7
2B14:  BSF    FA6.2
2B16:  MOVLB  F
2B18:  MOVLW  55
2B1A:  MOVWF  FA7
2B1C:  MOVLW  AA
2B1E:  MOVWF  FA7
2B20:  BSF    FA6.1
2B22:  BTFSC  FA6.1
2B24:  BRA    2B22
2B26:  BCF    FA6.2
2B28:  MOVF   00,W
2B2A:  IORWF  FF2,F
.................... 	write_eeprom(EE_SERIAL_MSB,make8(serial,1)); 
2B2C:  MOVFF  45E,466
2B30:  MOVFF  FF2,00
2B34:  BCF    FF2.6
2B36:  BCF    FF2.7
2B38:  CLRF   FAA
2B3A:  MOVLW  11
2B3C:  MOVWF  FA9
2B3E:  MOVFF  45E,FA8
2B42:  BCF    FA6.6
2B44:  BCF    FA6.7
2B46:  BSF    FA6.2
2B48:  MOVLW  55
2B4A:  MOVWF  FA7
2B4C:  MOVLW  AA
2B4E:  MOVWF  FA7
2B50:  BSF    FA6.1
2B52:  BTFSC  FA6.1
2B54:  BRA    2B52
2B56:  BCF    FA6.2
2B58:  MOVF   00,W
2B5A:  IORWF  FF2,F
.................... 	write_eeprom(EE_SERIAL_LSB,make8(serial,0)); 
2B5C:  MOVFF  45D,466
2B60:  MOVFF  FF2,00
2B64:  BCF    FF2.6
2B66:  BCF    FF2.7
2B68:  CLRF   FAA
2B6A:  MOVLW  12
2B6C:  MOVWF  FA9
2B6E:  MOVFF  45D,FA8
2B72:  BCF    FA6.6
2B74:  BCF    FA6.7
2B76:  BSF    FA6.2
2B78:  MOVLW  55
2B7A:  MOVWF  FA7
2B7C:  MOVLW  AA
2B7E:  MOVWF  FA7
2B80:  BSF    FA6.1
2B82:  BTFSC  FA6.1
2B84:  BRA    2B82
2B86:  BCF    FA6.2
2B88:  MOVF   00,W
2B8A:  IORWF  FF2,F
.................... 	write_eeprom(EE_HW_TYPE,hwtype); 
2B8C:  MOVFF  FF2,00
2B90:  BCF    FF2.6
2B92:  BCF    FF2.7
2B94:  CLRF   FAA
2B96:  MOVLW  13
2B98:  MOVWF  FA9
2B9A:  MOVFF  45F,FA8
2B9E:  BCF    FA6.6
2BA0:  BCF    FA6.7
2BA2:  BSF    FA6.2
2BA4:  MOVLW  55
2BA6:  MOVWF  FA7
2BA8:  MOVLW  AA
2BAA:  MOVWF  FA7
2BAC:  BSF    FA6.1
2BAE:  BTFSC  FA6.1
2BB0:  BRA    2BAE
2BB2:  BCF    FA6.2
2BB4:  MOVF   00,W
2BB6:  IORWF  FF2,F
.................... 	write_eeprom(EE_ANEMOMETER_TYPE,antype); 
2BB8:  MOVFF  FF2,00
2BBC:  BCF    FF2.6
2BBE:  BCF    FF2.7
2BC0:  CLRF   FAA
2BC2:  MOVLW  14
2BC4:  MOVWF  FA9
2BC6:  MOVFF  460,FA8
2BCA:  BCF    FA6.6
2BCC:  BCF    FA6.7
2BCE:  BSF    FA6.2
2BD0:  MOVLW  55
2BD2:  MOVWF  FA7
2BD4:  MOVLW  AA
2BD6:  MOVWF  FA7
2BD8:  BSF    FA6.1
2BDA:  BTFSC  FA6.1
2BDC:  BRA    2BDA
2BDE:  BCF    FA6.2
2BE0:  MOVF   00,W
2BE2:  IORWF  FF2,F
....................  
.................... 	/* read it back out */ 
.................... 	current.serial_prefix=read_eeprom(EE_SERIAL_PREFIX); 
2BE4:  MOVFF  FF2,466
2BE8:  BCF    FF2.6
2BEA:  BCF    FF2.7
2BEC:  CLRF   FAA
2BEE:  MOVLW  10
2BF0:  MOVWF  FA9
2BF2:  BCF    FA6.6
2BF4:  BCF    FA6.7
2BF6:  BSF    FA6.0
2BF8:  MOVF   FA8,W
2BFA:  MOVLB  4
2BFC:  BTFSC  x66.6
2BFE:  BSF    FF2.6
2C00:  BTFSC  x66.7
2C02:  BSF    FF2.7
2C04:  MOVWF  45
.................... 	current.serial_msb=read_eeprom(EE_SERIAL_MSB); 
2C06:  MOVFF  FF2,466
2C0A:  BCF    FF2.6
2C0C:  BCF    FF2.7
2C0E:  CLRF   FAA
2C10:  MOVLW  11
2C12:  MOVWF  FA9
2C14:  BCF    FA6.6
2C16:  BCF    FA6.7
2C18:  BSF    FA6.0
2C1A:  MOVF   FA8,W
2C1C:  BTFSC  x66.6
2C1E:  BSF    FF2.6
2C20:  BTFSC  x66.7
2C22:  BSF    FF2.7
2C24:  MOVWF  46
.................... 	current.serial_lsb=read_eeprom(EE_SERIAL_LSB); 
2C26:  MOVFF  FF2,466
2C2A:  BCF    FF2.6
2C2C:  BCF    FF2.7
2C2E:  CLRF   FAA
2C30:  MOVLW  12
2C32:  MOVWF  FA9
2C34:  BCF    FA6.6
2C36:  BCF    FA6.7
2C38:  BSF    FA6.0
2C3A:  MOVF   FA8,W
2C3C:  BTFSC  x66.6
2C3E:  BSF    FF2.6
2C40:  BTFSC  x66.7
2C42:  BSF    FF2.7
2C44:  MOVWF  47
.................... 	current.hardware_type=read_eeprom(EE_HW_TYPE); 
2C46:  MOVFF  FF2,466
2C4A:  BCF    FF2.6
2C4C:  BCF    FF2.7
2C4E:  CLRF   FAA
2C50:  MOVLW  13
2C52:  MOVWF  FA9
2C54:  BCF    FA6.6
2C56:  BCF    FA6.7
2C58:  BSF    FA6.0
2C5A:  MOVF   FA8,W
2C5C:  BTFSC  x66.6
2C5E:  BSF    FF2.6
2C60:  BTFSC  x66.7
2C62:  BSF    FF2.7
2C64:  MOVWF  4D
.................... 	current.anemometer_type=read_eeprom(EE_ANEMOMETER_TYPE); 
2C66:  MOVFF  FF2,466
2C6A:  BCF    FF2.6
2C6C:  BCF    FF2.7
2C6E:  CLRF   FAA
2C70:  MOVLW  14
2C72:  MOVWF  FA9
2C74:  BCF    FA6.6
2C76:  BCF    FA6.7
2C78:  BSF    FA6.0
2C7A:  MOVF   FA8,W
2C7C:  BTFSC  x66.6
2C7E:  BSF    FF2.6
2C80:  BTFSC  x66.7
2C82:  BSF    FF2.7
2C84:  MOVWF  4E
....................  
....................  
.................... 	lcd_clear(); 
2C86:  MOVLB  0
2C88:  CALL   243A
.................... 	lcd_putch("Wrote SN"); 
2C8C:  MOVLW  24
2C8E:  MOVWF  FF6
2C90:  MOVLW  1A
2C92:  MOVWF  FF7
2C94:  CALL   2460
.................... 	delay_ms(1000); 
2C98:  MOVLW  04
2C9A:  MOVLB  4
2C9C:  MOVWF  x66
2C9E:  MOVLW  FA
2CA0:  MOVLB  5
2CA2:  MOVWF  xA6
2CA4:  MOVLB  0
2CA6:  CALL   1E58
2CAA:  MOVLB  4
2CAC:  DECFSZ x66,F
2CAE:  BRA    2C9E
.................... 	lcd_clear(); 
2CB0:  MOVLB  0
2CB2:  CALL   243A
....................  
....................  
.................... 	/* set hardware type */ 
.................... 	for ( ; ; ) { 
....................  
.................... 		lcd_goto(LCD_LINE_ONE); 
2CB6:  MOVLB  4
2CB8:  CLRF   x6D
2CBA:  MOVLB  0
2CBC:  RCALL  2586
.................... 		printf(lcd_putch," - HW TYPE - "); 
2CBE:  MOVLW  2E
2CC0:  MOVWF  FF6
2CC2:  MOVLW  1A
2CC4:  MOVWF  FF7
2CC6:  CALL   2460
.................... 		lcd_goto(LCD_LINE_TWO); 
2CCA:  MOVLW  40
2CCC:  MOVLB  4
2CCE:  MOVWF  x6D
2CD0:  MOVLB  0
2CD2:  RCALL  2586
.................... 		printf(lcd_putch,"RDL         RDLU"); 
2CD4:  MOVLW  3C
2CD6:  MOVWF  FF6
2CD8:  MOVLW  1A
2CDA:  MOVWF  FF7
2CDC:  CALL   2460
....................  
.................... 		if ( action.select_now ) { 
2CE0:  MOVLB  1
2CE2:  BTFSS  x80.4
2CE4:  BRA    2CE8
.................... 			action.select_now=0; 
2CE6:  BCF    x80.4
.................... 		} 
....................  
.................... 		if ( action.up_now ) { 
2CE8:  BTFSS  x80.2
2CEA:  BRA    2CF8
.................... 			action.up_now=0; 
2CEC:  BCF    x80.2
.................... 			hwtype=HARDWARE_TYPE_RDLOGGERUNIVERSAL; 
2CEE:  MOVLW  02
2CF0:  MOVLB  4
2CF2:  MOVWF  x5F
.................... 			break; 
2CF4:  BRA    2D16
2CF6:  MOVLB  1
.................... 		} 
....................  
.................... 		if ( action.down_now ) { 
2CF8:  BTFSS  x80.3
2CFA:  BRA    2D04
.................... 			action.down_now=0; 
2CFC:  BCF    x80.3
.................... 			hwtype=HARDWARE_TYPE_RDLOGGER; 
2CFE:  MOVLB  4
2D00:  CLRF   x5F
.................... 			break; 
2D02:  BRA    2D16
.................... 		} 
....................  
.................... 		delay_ms(20); 
2D04:  MOVLW  14
2D06:  MOVLB  5
2D08:  MOVWF  xA6
2D0A:  MOVLB  0
2D0C:  CALL   1E58
.................... 		restart_wdt(); 
2D10:  CLRWDT
.................... 	} 
2D12:  BRA    2CB6
2D14:  MOVLB  4
....................  
....................  
.................... 	/* write the new hardware type */ 
.................... 	write_eeprom(EE_HW_TYPE,hwtype); 
2D16:  MOVF   FF2,W
2D18:  MOVWF  00
2D1A:  BCF    FF2.6
2D1C:  BCF    FF2.7
2D1E:  CLRF   FAA
2D20:  MOVLW  13
2D22:  MOVWF  FA9
2D24:  MOVFF  45F,FA8
2D28:  BCF    FA6.6
2D2A:  BCF    FA6.7
2D2C:  BSF    FA6.2
2D2E:  MOVLB  F
2D30:  MOVLW  55
2D32:  MOVWF  FA7
2D34:  MOVLW  AA
2D36:  MOVWF  FA7
2D38:  BSF    FA6.1
2D3A:  BTFSC  FA6.1
2D3C:  BRA    2D3A
2D3E:  BCF    FA6.2
2D40:  MOVF   00,W
2D42:  IORWF  FF2,F
....................  
.................... 	/* read it back out */ 
.................... 	current.hardware_type=read_eeprom(EE_HW_TYPE); 
2D44:  MOVFF  FF2,466
2D48:  BCF    FF2.6
2D4A:  BCF    FF2.7
2D4C:  CLRF   FAA
2D4E:  MOVLW  13
2D50:  MOVWF  FA9
2D52:  BCF    FA6.6
2D54:  BCF    FA6.7
2D56:  BSF    FA6.0
2D58:  MOVF   FA8,W
2D5A:  MOVLB  4
2D5C:  BTFSC  x66.6
2D5E:  BSF    FF2.6
2D60:  BTFSC  x66.7
2D62:  BSF    FF2.7
2D64:  MOVWF  4D
....................  
....................  
.................... 	lcd_clear(); 
2D66:  MOVLB  0
2D68:  CALL   243A
.................... 	lcd_putch("Wrote HW Type"); 
2D6C:  MOVLW  4E
2D6E:  MOVWF  FF6
2D70:  MOVLW  1A
2D72:  MOVWF  FF7
2D74:  CALL   2460
.................... 	delay_ms(1000); 
2D78:  MOVLW  04
2D7A:  MOVLB  4
2D7C:  MOVWF  x66
2D7E:  MOVLW  FA
2D80:  MOVLB  5
2D82:  MOVWF  xA6
2D84:  MOVLB  0
2D86:  CALL   1E58
2D8A:  MOVLB  4
2D8C:  DECFSZ x66,F
2D8E:  BRA    2D7E
.................... 	lcd_clear(); 
2D90:  MOVLB  0
2D92:  CALL   243A
....................  
....................  
.................... 	/* set anemometer type */ 
.................... 	for ( ; ; ) { 
....................  
.................... 		lcd_goto(LCD_LINE_ONE); 
2D96:  MOVLB  4
2D98:  CLRF   x6D
2D9A:  MOVLB  0
2D9C:  CALL   2586
.................... 		printf(lcd_putch," - ANEMO TYPE - "); 
2DA0:  MOVLW  5C
2DA2:  MOVWF  FF6
2DA4:  MOVLW  1A
2DA6:  MOVWF  FF7
2DA8:  CALL   2460
.................... 		lcd_goto(LCD_LINE_TWO); 
2DAC:  MOVLW  40
2DAE:  MOVLB  4
2DB0:  MOVWF  x6D
2DB2:  MOVLB  0
2DB4:  CALL   2586
.................... 		printf(lcd_putch,"#40HC      THIES"); 
2DB8:  MOVLW  6E
2DBA:  MOVWF  FF6
2DBC:  MOVLW  1A
2DBE:  MOVWF  FF7
2DC0:  CALL   2460
.................... //                        0123456789012345 
....................  
.................... 		if ( action.select_now ) { 
2DC4:  MOVLB  1
2DC6:  BTFSS  x80.4
2DC8:  BRA    2DCC
.................... 			action.select_now=0; 
2DCA:  BCF    x80.4
.................... 		} 
....................  
.................... 		if ( action.up_now ) { 
2DCC:  BTFSS  x80.2
2DCE:  BRA    2DDC
.................... 			action.up_now=0; 
2DD0:  BCF    x80.2
.................... 			antype=ANEMOMETER_TYPE_THIES; 
2DD2:  MOVLW  01
2DD4:  MOVLB  4
2DD6:  MOVWF  x60
.................... 			break; 
2DD8:  BRA    2DFA
2DDA:  MOVLB  1
.................... 		} 
....................  
.................... 		if ( action.down_now ) { 
2DDC:  BTFSS  x80.3
2DDE:  BRA    2DE8
.................... 			action.down_now=0; 
2DE0:  BCF    x80.3
.................... 			antype=ANEMOMETER_TYPE_40HC; 
2DE2:  MOVLB  4
2DE4:  CLRF   x60
.................... 			break; 
2DE6:  BRA    2DFA
.................... 		} 
....................  
.................... 		delay_ms(20); 
2DE8:  MOVLW  14
2DEA:  MOVLB  5
2DEC:  MOVWF  xA6
2DEE:  MOVLB  0
2DF0:  CALL   1E58
.................... 		restart_wdt(); 
2DF4:  CLRWDT
.................... 	} 
2DF6:  BRA    2D96
2DF8:  MOVLB  4
....................  
....................  
.................... 	/* write the new hardware type */ 
.................... 	write_eeprom(EE_ANEMOMETER_TYPE,antype); 
2DFA:  MOVF   FF2,W
2DFC:  MOVWF  00
2DFE:  BCF    FF2.6
2E00:  BCF    FF2.7
2E02:  CLRF   FAA
2E04:  MOVLW  14
2E06:  MOVWF  FA9
2E08:  MOVFF  460,FA8
2E0C:  BCF    FA6.6
2E0E:  BCF    FA6.7
2E10:  BSF    FA6.2
2E12:  MOVLB  F
2E14:  MOVLW  55
2E16:  MOVWF  FA7
2E18:  MOVLW  AA
2E1A:  MOVWF  FA7
2E1C:  BSF    FA6.1
2E1E:  BTFSC  FA6.1
2E20:  BRA    2E1E
2E22:  BCF    FA6.2
2E24:  MOVF   00,W
2E26:  IORWF  FF2,F
....................  
.................... 	/* read it back out */ 
.................... 	current.anemometer_type=read_eeprom(EE_ANEMOMETER_TYPE); 
2E28:  MOVFF  FF2,466
2E2C:  BCF    FF2.6
2E2E:  BCF    FF2.7
2E30:  CLRF   FAA
2E32:  MOVLW  14
2E34:  MOVWF  FA9
2E36:  BCF    FA6.6
2E38:  BCF    FA6.7
2E3A:  BSF    FA6.0
2E3C:  MOVF   FA8,W
2E3E:  MOVLB  4
2E40:  BTFSC  x66.6
2E42:  BSF    FF2.6
2E44:  BTFSC  x66.7
2E46:  BSF    FF2.7
2E48:  MOVWF  4E
....................  
....................  
.................... 	lcd_clear(); 
2E4A:  MOVLB  0
2E4C:  CALL   243A
.................... 	lcd_putch("Wrote Anemo Type"); 
2E50:  MOVLW  80
2E52:  MOVWF  FF6
2E54:  MOVLW  1A
2E56:  MOVWF  FF7
2E58:  CALL   2460
.................... 	delay_ms(1000); 
2E5C:  MOVLW  04
2E5E:  MOVLB  4
2E60:  MOVWF  x66
2E62:  MOVLW  FA
2E64:  MOVLB  5
2E66:  MOVWF  xA6
2E68:  MOVLB  0
2E6A:  CALL   1E58
2E6E:  MOVLB  4
2E70:  DECFSZ x66,F
2E72:  BRA    2E62
.................... 	lcd_clear(); 
2E74:  MOVLB  0
2E76:  CALL   243A
....................  
....................  
....................  
.................... 	/* set SD card log interval */ 
.................... 	for ( ; ; ) { 
....................  
.................... 		lcd_goto(LCD_LINE_ONE); 
2E7A:  MOVLB  4
2E7C:  CLRF   x6D
2E7E:  MOVLB  0
2E80:  CALL   2586
.................... 		printf(lcd_putch," - SD LOG RATE - "); 
2E84:  MOVLW  92
2E86:  MOVWF  FF6
2E88:  MOVLW  1A
2E8A:  MOVWF  FF7
2E8C:  CALL   2460
.................... 		lcd_goto(LCD_LINE_TWO); 
2E90:  MOVLW  40
2E92:  MOVLB  4
2E94:  MOVWF  x6D
2E96:  MOVLB  0
2E98:  CALL   2586
.................... 		printf(lcd_putch,"60 sec    10 sec"); 
2E9C:  MOVLW  A4
2E9E:  MOVWF  FF6
2EA0:  MOVLW  1A
2EA2:  MOVWF  FF7
2EA4:  CALL   2460
.................... //                        0123456789012345 
....................  
.................... 		if ( action.select_now ) { 
2EA8:  MOVLB  1
2EAA:  BTFSS  x80.4
2EAC:  BRA    2EB0
.................... 			action.select_now=0; 
2EAE:  BCF    x80.4
.................... 		} 
....................  
.................... 		if ( action.up_now ) { 
2EB0:  BTFSS  x80.2
2EB2:  BRA    2EC0
.................... 			action.up_now=0; 
2EB4:  BCF    x80.2
.................... 			sdrate=SD_LOG_RATE_10; 
2EB6:  MOVLW  01
2EB8:  MOVLB  4
2EBA:  MOVWF  x61
.................... 			break; 
2EBC:  BRA    2EDE
2EBE:  MOVLB  1
.................... 		} 
....................  
.................... 		if ( action.down_now ) { 
2EC0:  BTFSS  x80.3
2EC2:  BRA    2ECC
.................... 			action.down_now=0; 
2EC4:  BCF    x80.3
.................... 			sdrate=SD_LOG_RATE_60; 
2EC6:  MOVLB  4
2EC8:  CLRF   x61
.................... 			break; 
2ECA:  BRA    2EDE
.................... 		} 
....................  
.................... 		delay_ms(20); 
2ECC:  MOVLW  14
2ECE:  MOVLB  5
2ED0:  MOVWF  xA6
2ED2:  MOVLB  0
2ED4:  CALL   1E58
.................... 		restart_wdt(); 
2ED8:  CLRWDT
.................... 	} 
2EDA:  BRA    2E7A
2EDC:  MOVLB  4
....................  
....................  
.................... 	/* write the new hlog rate */ 
.................... 	write_eeprom(EE_SD_LOG_RATE,sdrate); 
2EDE:  MOVF   FF2,W
2EE0:  MOVWF  00
2EE2:  BCF    FF2.6
2EE4:  BCF    FF2.7
2EE6:  CLRF   FAA
2EE8:  MOVLW  15
2EEA:  MOVWF  FA9
2EEC:  MOVFF  461,FA8
2EF0:  BCF    FA6.6
2EF2:  BCF    FA6.7
2EF4:  BSF    FA6.2
2EF6:  MOVLB  F
2EF8:  MOVLW  55
2EFA:  MOVWF  FA7
2EFC:  MOVLW  AA
2EFE:  MOVWF  FA7
2F00:  BSF    FA6.1
2F02:  BTFSC  FA6.1
2F04:  BRA    2F02
2F06:  BCF    FA6.2
2F08:  MOVF   00,W
2F0A:  IORWF  FF2,F
....................  
.................... 	/* read it back out */ 
.................... 	current.sd_log_rate=read_eeprom(EE_SD_LOG_RATE); 
2F0C:  MOVFF  FF2,466
2F10:  BCF    FF2.6
2F12:  BCF    FF2.7
2F14:  CLRF   FAA
2F16:  MOVLW  15
2F18:  MOVWF  FA9
2F1A:  BCF    FA6.6
2F1C:  BCF    FA6.7
2F1E:  BSF    FA6.0
2F20:  MOVF   FA8,W
2F22:  MOVLB  4
2F24:  BTFSC  x66.6
2F26:  BSF    FF2.6
2F28:  BTFSC  x66.7
2F2A:  BSF    FF2.7
2F2C:  MOVWF  50
....................  
....................  
.................... 	lcd_clear(); 
2F2E:  MOVLB  0
2F30:  CALL   243A
.................... 	lcd_putch("Wrote SD rate"); 
2F34:  MOVLW  B6
2F36:  MOVWF  FF6
2F38:  MOVLW  1A
2F3A:  MOVWF  FF7
2F3C:  CALL   2460
.................... 	delay_ms(1000); 
2F40:  MOVLW  04
2F42:  MOVLB  4
2F44:  MOVWF  x66
2F46:  MOVLW  FA
2F48:  MOVLB  5
2F4A:  MOVWF  xA6
2F4C:  MOVLB  0
2F4E:  CALL   1E58
2F52:  MOVLB  4
2F54:  DECFSZ x66,F
2F56:  BRA    2F46
.................... 	lcd_clear(); 
2F58:  MOVLB  0
2F5A:  CALL   243A
....................  
....................  
....................  
....................  
.................... 	/* set live data format */ 
.................... 	for ( ; ; ) { 
....................  
.................... 		lcd_goto(LCD_LINE_ONE); 
2F5E:  MOVLB  4
2F60:  CLRF   x6D
2F62:  MOVLB  0
2F64:  CALL   2586
.................... 		printf(lcd_putch," - LIVE FORMAT - "); 
2F68:  MOVLW  C4
2F6A:  MOVWF  FF6
2F6C:  MOVLW  1A
2F6E:  MOVWF  FF7
2F70:  CALL   2460
.................... 		lcd_goto(LCD_LINE_TWO); 
2F74:  MOVLW  40
2F76:  MOVLB  4
2F78:  MOVWF  x6D
2F7A:  MOVLB  0
2F7C:  CALL   2586
.................... 		printf(lcd_putch,"SHORT CMPS12 FULL"); 
2F80:  MOVLW  D6
2F82:  MOVWF  FF6
2F84:  MOVLW  1A
2F86:  MOVWF  FF7
2F88:  CALL   2460
.................... //                        0123456789012345 
....................  
.................... 		if ( action.select_now ) { 
2F8C:  MOVLB  1
2F8E:  BTFSS  x80.4
2F90:  BRA    2F9E
.................... 			action.select_now=0; 
2F92:  BCF    x80.4
.................... 			livetype=LIVE_TYPE_CMPS12; 
2F94:  MOVLW  02
2F96:  MOVLB  4
2F98:  MOVWF  x62
.................... 			break; 
2F9A:  BRA    2FCC
2F9C:  MOVLB  1
.................... 		} 
....................  
.................... 		if ( action.up_now ) { 
2F9E:  BTFSS  x80.2
2FA0:  BRA    2FAE
.................... 			action.up_now=0; 
2FA2:  BCF    x80.2
.................... 			livetype=LIVE_TYPE_FULL; 
2FA4:  MOVLW  01
2FA6:  MOVLB  4
2FA8:  MOVWF  x62
.................... 			break; 
2FAA:  BRA    2FCC
2FAC:  MOVLB  1
.................... 		} 
....................  
.................... 		if ( action.down_now ) { 
2FAE:  BTFSS  x80.3
2FB0:  BRA    2FBA
.................... 			action.down_now=0; 
2FB2:  BCF    x80.3
.................... 			livetype=LIVE_TYPE_SHORT; 
2FB4:  MOVLB  4
2FB6:  CLRF   x62
.................... 			break; 
2FB8:  BRA    2FCC
.................... 		} 
....................  
.................... 		delay_ms(20); 
2FBA:  MOVLW  14
2FBC:  MOVLB  5
2FBE:  MOVWF  xA6
2FC0:  MOVLB  0
2FC2:  CALL   1E58
.................... 		restart_wdt(); 
2FC6:  CLRWDT
.................... 	} 
2FC8:  BRA    2F5E
2FCA:  MOVLB  4
....................  
....................  
.................... 	/* write the new live type */ 
.................... 	write_eeprom(EE_LIVE_TYPE,livetype); 
2FCC:  MOVF   FF2,W
2FCE:  MOVWF  00
2FD0:  BCF    FF2.6
2FD2:  BCF    FF2.7
2FD4:  CLRF   FAA
2FD6:  MOVLW  16
2FD8:  MOVWF  FA9
2FDA:  MOVFF  462,FA8
2FDE:  BCF    FA6.6
2FE0:  BCF    FA6.7
2FE2:  BSF    FA6.2
2FE4:  MOVLB  F
2FE6:  MOVLW  55
2FE8:  MOVWF  FA7
2FEA:  MOVLW  AA
2FEC:  MOVWF  FA7
2FEE:  BSF    FA6.1
2FF0:  BTFSC  FA6.1
2FF2:  BRA    2FF0
2FF4:  BCF    FA6.2
2FF6:  MOVF   00,W
2FF8:  IORWF  FF2,F
....................  
.................... 	/* read it back out */ 
.................... 	current.live_type=read_eeprom(EE_LIVE_TYPE); 
2FFA:  MOVFF  FF2,466
2FFE:  BCF    FF2.6
3000:  BCF    FF2.7
3002:  CLRF   FAA
3004:  MOVLW  16
3006:  MOVWF  FA9
3008:  BCF    FA6.6
300A:  BCF    FA6.7
300C:  BSF    FA6.0
300E:  MOVF   FA8,W
3010:  MOVLB  4
3012:  BTFSC  x66.6
3014:  BSF    FF2.6
3016:  BTFSC  x66.7
3018:  BSF    FF2.7
301A:  MOVWF  4F
....................  
....................  
.................... 	lcd_clear(); 
301C:  MOVLB  0
301E:  CALL   243A
.................... 	printf(lcd_putch,"Wrote live %d",livetype); 
3022:  MOVLW  E8
3024:  MOVWF  FF6
3026:  MOVLW  1A
3028:  MOVWF  FF7
302A:  MOVLW  0B
302C:  MOVLB  4
302E:  MOVWF  x66
3030:  MOVLB  0
3032:  CALL   2480
3036:  MOVFF  462,466
303A:  MOVLW  18
303C:  MOVLB  4
303E:  MOVWF  x67
3040:  MOVLB  0
3042:  CALL   27DC
.................... //                    0123456789012345 
.................... //	lcd_putch("Wrote live type"); 
.................... 	delay_ms(2000); 
3046:  MOVLW  08
3048:  MOVLB  4
304A:  MOVWF  x66
304C:  MOVLW  FA
304E:  MOVLB  5
3050:  MOVWF  xA6
3052:  MOVLB  0
3054:  CALL   1E58
3058:  MOVLB  4
305A:  DECFSZ x66,F
305C:  BRA    304C
.................... 	lcd_clear(); 
305E:  MOVLB  0
3060:  CALL   243A
....................  
....................  
.................... 	/* set wind direction source */ 
.................... 	for ( ; ; ) { 
....................  
.................... 		lcd_goto(LCD_LINE_ONE); 
3064:  MOVLB  4
3066:  CLRF   x6D
3068:  MOVLB  0
306A:  CALL   2586
.................... 		printf(lcd_putch,"- WIND DIR SRC -"); 
306E:  MOVLW  F6
3070:  MOVWF  FF6
3072:  MOVLW  1A
3074:  MOVWF  FF7
3076:  CALL   2460
.................... 		lcd_goto(LCD_LINE_TWO); 
307A:  MOVLW  40
307C:  MOVLB  4
307E:  MOVWF  x6D
3080:  MOVLB  0
3082:  CALL   2586
.................... 		printf(lcd_putch,"ADC       CMPS12"); 
3086:  MOVLW  08
3088:  MOVWF  FF6
308A:  MOVLW  1B
308C:  MOVWF  FF7
308E:  CALL   2460
.................... //                        0123456789012345 
....................  
.................... 		if ( action.select_now ) { 
3092:  MOVLB  1
3094:  BTFSS  x80.4
3096:  BRA    309A
.................... 			action.select_now=0; 
3098:  BCF    x80.4
.................... 		} 
....................  
.................... 		if ( action.up_now ) { 
309A:  BTFSS  x80.2
309C:  BRA    30AA
.................... 			action.up_now=0; 
309E:  BCF    x80.2
.................... 			wdsource=WIND_DIRECTION_SOURCE_CMPS12; 
30A0:  MOVLW  01
30A2:  MOVLB  4
30A4:  MOVWF  x63
.................... 			break; 
30A6:  BRA    30C8
30A8:  MOVLB  1
.................... 		} 
....................  
.................... 		if ( action.down_now ) { 
30AA:  BTFSS  x80.3
30AC:  BRA    30B6
.................... 			action.down_now=0; 
30AE:  BCF    x80.3
.................... 			wdsource=WIND_DIRECTION_SOURCE_ADC; 
30B0:  MOVLB  4
30B2:  CLRF   x63
.................... 			break; 
30B4:  BRA    30C8
.................... 		} 
....................  
.................... 		delay_ms(20); 
30B6:  MOVLW  14
30B8:  MOVLB  5
30BA:  MOVWF  xA6
30BC:  MOVLB  0
30BE:  CALL   1E58
.................... 		restart_wdt(); 
30C2:  CLRWDT
.................... 	} 
30C4:  BRA    3064
30C6:  MOVLB  4
....................  
....................  
.................... 	/* write the new live type */ 
.................... 	write_eeprom(EE_WIND_DIRECTION_SOURCE,wdsource); 
30C8:  MOVF   FF2,W
30CA:  MOVWF  00
30CC:  BCF    FF2.6
30CE:  BCF    FF2.7
30D0:  CLRF   FAA
30D2:  MOVLW  17
30D4:  MOVWF  FA9
30D6:  MOVFF  463,FA8
30DA:  BCF    FA6.6
30DC:  BCF    FA6.7
30DE:  BSF    FA6.2
30E0:  MOVLB  F
30E2:  MOVLW  55
30E4:  MOVWF  FA7
30E6:  MOVLW  AA
30E8:  MOVWF  FA7
30EA:  BSF    FA6.1
30EC:  BTFSC  FA6.1
30EE:  BRA    30EC
30F0:  BCF    FA6.2
30F2:  MOVF   00,W
30F4:  IORWF  FF2,F
....................  
.................... 	/* read it back out */ 
.................... 	current.wind_direction_source=read_eeprom(EE_WIND_DIRECTION_SOURCE); 
30F6:  MOVFF  FF2,466
30FA:  BCF    FF2.6
30FC:  BCF    FF2.7
30FE:  CLRF   FAA
3100:  MOVLW  17
3102:  MOVWF  FA9
3104:  BCF    FA6.6
3106:  BCF    FA6.7
3108:  BSF    FA6.0
310A:  MOVF   FA8,W
310C:  MOVLB  4
310E:  BTFSC  x66.6
3110:  BSF    FF2.6
3112:  BTFSC  x66.7
3114:  BSF    FF2.7
3116:  MOVWF  51
....................  
....................  
.................... 	lcd_clear(); 
3118:  MOVLB  0
311A:  CALL   243A
.................... 	printf(lcd_putch,"Wrote wdsrc %d",livetype); 
311E:  MOVLW  1A
3120:  MOVWF  FF6
3122:  MOVLW  1B
3124:  MOVWF  FF7
3126:  MOVLW  0C
3128:  MOVLB  4
312A:  MOVWF  x66
312C:  MOVLB  0
312E:  CALL   2480
3132:  MOVFF  462,466
3136:  MOVLW  18
3138:  MOVLB  4
313A:  MOVWF  x67
313C:  MOVLB  0
313E:  CALL   27DC
.................... //                    0123456789012345 
.................... //	lcd_putch("Wrote live type"); 
.................... 	delay_ms(2000); 
3142:  MOVLW  08
3144:  MOVLB  4
3146:  MOVWF  x66
3148:  MOVLW  FA
314A:  MOVLB  5
314C:  MOVWF  xA6
314E:  MOVLB  0
3150:  CALL   1E58
3154:  MOVLB  4
3156:  DECFSZ x66,F
3158:  BRA    3148
.................... 	lcd_clear(); 
315A:  MOVLB  0
315C:  CALL   243A
....................  
.................... } 
3160:  RETURN 0
....................  
....................  
.................... short screen_set_date(void) { 
*
65DA:  MOVLB  4
65DC:  BCF    x60.0
.................... 	static short got_buttons=0; 
.................... 	static int field=0; 
.................... 	int spos; 
.................... 	int min,max; 
.................... 	signed int value; 
.................... 	short save=0; 
....................  
.................... 	switch ( field ) { 
65DE:  MOVF   x4D,W
65E0:  XORLW  00
65E2:  MOVLB  0
65E4:  BZ    65F0
65E6:  XORLW  01
65E8:  BZ    6604
65EA:  XORLW  03
65EC:  BZ    6618
65EE:  BRA    662C
.................... 		case 0: 
.................... 			/* year */ 
.................... 			min=0; 
65F0:  MOVLB  4
65F2:  CLRF   x5D
.................... 			max=99; 
65F4:  MOVLW  63
65F6:  MOVWF  x5E
.................... 			spos=9; 
65F8:  MOVLW  09
65FA:  MOVWF  x5C
.................... 			value=timers.year; 
65FC:  MOVFF  187,45F
.................... 			break; 
6600:  MOVLB  0
6602:  BRA    662C
.................... 		case 1: 
.................... 			/* month */ 
.................... 			min=1; 
6604:  MOVLW  01
6606:  MOVLB  4
6608:  MOVWF  x5D
.................... 			max=12; 
660A:  MOVLW  0C
660C:  MOVWF  x5E
.................... 			spos=12; 
660E:  MOVWF  x5C
.................... 			value=timers.month; 
6610:  MOVFF  186,45F
.................... 			break; 
6614:  MOVLB  0
6616:  BRA    662C
.................... 		case 2: 
.................... 			/* day */ 
.................... 			min=1; 
6618:  MOVLW  01
661A:  MOVLB  4
661C:  MOVWF  x5D
.................... 			max=31; 
661E:  MOVLW  1F
6620:  MOVWF  x5E
.................... 			spos=15; 
6622:  MOVLW  0F
6624:  MOVWF  x5C
.................... 			value=timers.day; 
6626:  MOVFF  185,45F
.................... 			break; 
662A:  MOVLB  0
.................... 	} 
....................  
.................... 	printf(lcd_putch,"Date: 20%02d-%02d-%02d",timers.year,timers.month,timers.day); 
662C:  MOVLW  2A
662E:  MOVWF  FF6
6630:  MOVLW  1B
6632:  MOVWF  FF7
6634:  MOVLW  08
6636:  MOVLB  4
6638:  MOVWF  x66
663A:  MOVLB  0
663C:  CALL   2480
6640:  MOVFF  187,461
6644:  MOVLW  01
6646:  MOVLB  4
6648:  MOVWF  x62
664A:  MOVLB  0
664C:  RCALL  64CC
664E:  MOVLW  2D
6650:  MOVLB  4
6652:  MOVWF  x6F
6654:  MOVLB  0
6656:  CALL   2454
665A:  MOVFF  186,461
665E:  MOVLW  01
6660:  MOVLB  4
6662:  MOVWF  x62
6664:  MOVLB  0
6666:  RCALL  64CC
6668:  MOVLW  2D
666A:  MOVLB  4
666C:  MOVWF  x6F
666E:  MOVLB  0
6670:  CALL   2454
6674:  MOVFF  185,461
6678:  MOVLW  01
667A:  MOVLB  4
667C:  MOVWF  x62
667E:  MOVLB  0
6680:  RCALL  64CC
....................  
....................  
.................... 	if ( 0 == got_buttons ) { 
6682:  MOVLB  4
6684:  BTFSC  x17.2
6686:  BRA    66A0
.................... 		if ( 1 == action.select_now ) { 
6688:  MOVLB  1
668A:  BTFSS  x80.4
668C:  BRA    6698
.................... 			/* set button pressed */ 
.................... 			got_buttons=1; 
668E:  MOVLB  4
6690:  BSF    x17.2
.................... 			action.select_now=0; 
6692:  MOVLB  1
6694:  BCF    x80.4
.................... 		} else { 
6696:  BRA    669E
.................... 			/* prompt to set */ 
.................... 			prompt_prev_set_next(); 
6698:  MOVLB  0
669A:  RCALL  6598
669C:  MOVLB  1
669E:  MOVLB  4
.................... 		} 
.................... 	}  
....................  
.................... 	if ( 1 == got_buttons ) { 
66A0:  BTFSS  x17.2
66A2:  BRA    6702
.................... 		prompt_minus_set_plus(); 
66A4:  MOVLB  0
66A6:  CALL   259A
.................... 		lcd_goto(spos); 
66AA:  MOVFF  45C,46D
66AE:  CALL   2586
.................... 		lcd_cursor(LCD_CURSOR_ON); 
66B2:  MOVLW  0E
66B4:  MOVLB  4
66B6:  MOVWF  x6C
66B8:  MOVLB  0
66BA:  CALL   25D6
....................  
.................... 		if ( 1 == action.up_now ) { 
66BE:  MOVLB  1
66C0:  BTFSS  x80.2
66C2:  BRA    66DC
.................... 			action.up_now=0; 
66C4:  BCF    x80.2
.................... 			value++; 
66C6:  MOVLB  4
66C8:  INCF   x5F,F
.................... 			if ( value > max ) 
66CA:  BTFSC  x5F.7
66CC:  BRA    66D8
66CE:  MOVF   x5F,W
66D0:  SUBWF  x5E,W
66D2:  BC    66D8
.................... 				value=min; 
66D4:  MOVFF  45D,45F
.................... 			save=1; 
66D8:  BSF    x60.0
66DA:  MOVLB  1
.................... 		} 
.................... 		if ( 1 == action.down_now ) { 
66DC:  BTFSS  x80.3
66DE:  BRA    66F8
.................... 			action.down_now=0; 
66E0:  BCF    x80.3
.................... 			value--; 
66E2:  MOVLB  4
66E4:  DECF   x5F,F
.................... 			if ( value < min ) 
66E6:  BTFSC  x5F.7
66E8:  BRA    66F0
66EA:  MOVF   x5D,W
66EC:  SUBWF  x5F,W
66EE:  BC    66F4
.................... 				value=max; 
66F0:  MOVFF  45E,45F
.................... 			save=1; 
66F4:  BSF    x60.0
66F6:  MOVLB  1
.................... 		} 
.................... 		if ( 1 == action.select_now ) { 
66F8:  BTFSS  x80.4
66FA:  BRA    6704
.................... 			action.select_now=0; 
66FC:  BCF    x80.4
.................... 			field++; 
66FE:  MOVLB  4
6700:  INCF   x4D,F
6702:  MOVLB  1
.................... 		} 
.................... 	} 
.................... 	 
.................... 	if ( save ) { 
6704:  MOVLB  4
6706:  BTFSS  x60.0
6708:  BRA    6782
.................... 		/* redraw our screen ASAP */ 
.................... 		action.now_redraw=1; 
670A:  MOVLB  1
670C:  BSF    x7F.0
....................  
.................... 		switch ( field ) { 
670E:  MOVLB  4
6710:  MOVF   x4D,W
6712:  XORLW  00
6714:  MOVLB  0
6716:  BZ    6722
6718:  XORLW  01
671A:  BZ    6742
671C:  XORLW  03
671E:  BZ    6762
6720:  BRA    6780
.................... 			case 0: 
.................... 				/* write year */ 
.................... 				timers.year=value; 
6722:  MOVFF  45F,187
.................... 				write_rtc(0x06,bin2bcd(timers.year)); 
6726:  MOVFF  187,461
672A:  RCALL  65B2
672C:  MOVFF  01,461
6730:  MOVLW  06
6732:  MOVLB  4
6734:  MOVWF  x7B
6736:  MOVFF  01,47C
673A:  MOVLB  0
673C:  CALL   1FD6
.................... //				puts("# writing year"); 
.................... 				break; 
6740:  BRA    6780
.................... 			case 1: 
.................... 				/* write month */ 
.................... 				timers.month=value; 
6742:  MOVFF  45F,186
.................... 				write_rtc(0x05,bin2bcd(timers.month)); 
6746:  MOVFF  186,461
674A:  RCALL  65B2
674C:  MOVFF  01,461
6750:  MOVLW  05
6752:  MOVLB  4
6754:  MOVWF  x7B
6756:  MOVFF  01,47C
675A:  MOVLB  0
675C:  CALL   1FD6
.................... //				puts("# writing month"); 
.................... 				break; 
6760:  BRA    6780
.................... 			case 2: 
.................... 				/* write day */ 
.................... 				timers.day=value; 
6762:  MOVFF  45F,185
.................... 				write_rtc(0x04,bin2bcd(timers.day)); 
6766:  MOVFF  185,461
676A:  RCALL  65B2
676C:  MOVFF  01,461
6770:  MOVLW  04
6772:  MOVLB  4
6774:  MOVWF  x7B
6776:  MOVFF  01,47C
677A:  MOVLB  0
677C:  CALL   1FD6
.................... //				puts("# writing day"); 
.................... 				break; 
6780:  MOVLB  4
.................... 		} 
.................... 	} 
....................  
....................  
.................... 	if ( 3 == field ) { 
6782:  MOVF   x4D,W
6784:  SUBLW  03
6786:  BNZ   6798
.................... //		puts("# done"); 
.................... 		got_buttons=0; 
6788:  BCF    x17.2
.................... 		field=0; 
678A:  CLRF   x4D
.................... 		lcd_cursor(LCD_CURSOR_OFF); 
678C:  MOVLW  0C
678E:  MOVWF  x6C
6790:  MOVLB  0
6792:  CALL   25D6
6796:  MOVLB  4
.................... 	} 
....................  
....................  
.................... 	return got_buttons; 
6798:  MOVLW  00
679A:  BTFSC  x17.2
679C:  MOVLW  01
679E:  MOVWF  01
.................... } 
67A0:  MOVLB  0
67A2:  GOTO   727C (RETURN)
....................  
.................... short screen_set_time(void) { 
67A6:  MOVLB  4
67A8:  BCF    x60.0
.................... 	static short got_buttons=0; 
.................... 	static int field=0; 
.................... 	int spos; 
.................... 	int min,max; 
.................... 	signed int value; 
.................... 	short save=0; 
....................  
.................... 	switch ( field ) { 
67AA:  MOVF   x4E,W
67AC:  XORLW  00
67AE:  MOVLB  0
67B0:  BZ    67BC
67B2:  XORLW  01
67B4:  BZ    67D0
67B6:  XORLW  03
67B8:  BZ    67E4
67BA:  BRA    67F6
.................... 		case 0: 
.................... 			/* hour */ 
.................... 			min=0; 
67BC:  MOVLB  4
67BE:  CLRF   x5D
.................... 			max=23; 
67C0:  MOVLW  17
67C2:  MOVWF  x5E
.................... 			spos=7; 
67C4:  MOVLW  07
67C6:  MOVWF  x5C
.................... 			value=timers.hour; 
67C8:  MOVFF  182,45F
.................... 			break; 
67CC:  MOVLB  0
67CE:  BRA    67F6
.................... 		case 1: 
.................... 			/* minute */ 
.................... 			min=0; 
67D0:  MOVLB  4
67D2:  CLRF   x5D
.................... 			max=59; 
67D4:  MOVLW  3B
67D6:  MOVWF  x5E
.................... 			spos=10; 
67D8:  MOVLW  0A
67DA:  MOVWF  x5C
.................... 			value=timers.minute; 
67DC:  MOVFF  183,45F
.................... 			break; 
67E0:  MOVLB  0
67E2:  BRA    67F6
.................... 		case 2: 
.................... 			/* second */ 
.................... 			min=0; 
67E4:  MOVLB  4
67E6:  CLRF   x5D
.................... 			max=59; 
67E8:  MOVLW  3B
67EA:  MOVWF  x5E
.................... 			spos=13; 
67EC:  MOVLW  0D
67EE:  MOVWF  x5C
.................... 			value=timers.second; 
67F0:  MOVFF  184,45F
.................... 			break; 
67F4:  MOVLB  0
.................... 	} 
....................  
.................... 	printf(lcd_putch,"Time: %02d:%02d:%02d",timers.hour,timers.minute,timers.second); 
67F6:  MOVLW  42
67F8:  MOVWF  FF6
67FA:  MOVLW  1B
67FC:  MOVWF  FF7
67FE:  MOVLW  06
6800:  MOVLB  4
6802:  MOVWF  x66
6804:  MOVLB  0
6806:  CALL   2480
680A:  MOVFF  182,461
680E:  MOVLW  01
6810:  MOVLB  4
6812:  MOVWF  x62
6814:  MOVLB  0
6816:  RCALL  64CC
6818:  MOVLW  3A
681A:  MOVLB  4
681C:  MOVWF  x6F
681E:  MOVLB  0
6820:  CALL   2454
6824:  MOVFF  183,461
6828:  MOVLW  01
682A:  MOVLB  4
682C:  MOVWF  x62
682E:  MOVLB  0
6830:  RCALL  64CC
6832:  MOVLW  3A
6834:  MOVLB  4
6836:  MOVWF  x6F
6838:  MOVLB  0
683A:  CALL   2454
683E:  MOVFF  184,461
6842:  MOVLW  01
6844:  MOVLB  4
6846:  MOVWF  x62
6848:  MOVLB  0
684A:  RCALL  64CC
....................  
....................  
.................... 	if ( 0 == got_buttons ) { 
684C:  MOVLB  4
684E:  BTFSC  x17.3
6850:  BRA    686C
.................... 		if ( action.select_now ) { 
6852:  MOVLB  1
6854:  BTFSS  x80.4
6856:  BRA    6864
.................... 			/* set button pressed */ 
.................... 			got_buttons=1; 
6858:  MOVLB  4
685A:  BSF    x17.3
.................... 			action.select_now=0; 
685C:  MOVLB  1
685E:  BCF    x80.4
.................... 			action.now_redraw=1; 
6860:  BSF    x7F.0
.................... 		} else { 
6862:  BRA    686A
.................... 			/* prompt to set */ 
.................... 			prompt_prev_set_next(); 
6864:  MOVLB  0
6866:  RCALL  6598
6868:  MOVLB  1
686A:  MOVLB  4
.................... 		} 
.................... 	}  
....................  
.................... 	if ( 1 == got_buttons ) { 
686C:  BTFSS  x17.3
686E:  BRA    68D8
.................... 		prompt_minus_set_plus(); 
6870:  MOVLB  0
6872:  CALL   259A
.................... 		lcd_goto(spos); 
6876:  MOVFF  45C,46D
687A:  CALL   2586
.................... 		lcd_cursor(LCD_CURSOR_ON); 
687E:  MOVLW  0E
6880:  MOVLB  4
6882:  MOVWF  x6C
6884:  MOVLB  0
6886:  CALL   25D6
....................  
.................... 		if ( action.up_now ) { 
688A:  MOVLB  1
688C:  BTFSS  x80.2
688E:  BRA    68AA
.................... 			action.up_now=0; 
6890:  BCF    x80.2
.................... 			value++; 
6892:  MOVLB  4
6894:  INCF   x5F,F
.................... 			if ( value > max ) 
6896:  BTFSC  x5F.7
6898:  BRA    68A4
689A:  MOVF   x5F,W
689C:  SUBWF  x5E,W
689E:  BC    68A4
.................... 				value=min; 
68A0:  MOVFF  45D,45F
.................... 			save=1; 
68A4:  BSF    x60.0
.................... 			action.now_redraw=1; 
68A6:  MOVLB  1
68A8:  BSF    x7F.0
.................... 		} 
.................... 		if ( action.down_now ) { 
68AA:  BTFSS  x80.3
68AC:  BRA    68C8
.................... 			action.down_now=0; 
68AE:  BCF    x80.3
.................... 			value--; 
68B0:  MOVLB  4
68B2:  DECF   x5F,F
.................... 			if ( value < min ) 
68B4:  BTFSC  x5F.7
68B6:  BRA    68BE
68B8:  MOVF   x5D,W
68BA:  SUBWF  x5F,W
68BC:  BC    68C2
.................... 				value=max; 
68BE:  MOVFF  45E,45F
.................... 			save=1; 
68C2:  BSF    x60.0
.................... 			action.now_redraw=1; 
68C4:  MOVLB  1
68C6:  BSF    x7F.0
.................... 		} 
.................... 		if ( action.select_now ) { 
68C8:  BTFSS  x80.4
68CA:  BRA    68D6
.................... 			action.select_now=0; 
68CC:  BCF    x80.4
.................... 			field++; 
68CE:  MOVLB  4
68D0:  INCF   x4E,F
.................... 			action.now_redraw=1; 
68D2:  MOVLB  1
68D4:  BSF    x7F.0
68D6:  MOVLB  4
.................... 		} 
.................... 	} 
.................... 	 
.................... 	if ( save ) { 
68D8:  BTFSS  x60.0
68DA:  BRA    6952
.................... 		/* redraw our screen ASAP */ 
.................... 		action.now_redraw=1; 
68DC:  MOVLB  1
68DE:  BSF    x7F.0
....................  
.................... 		switch ( field ) { 
68E0:  MOVLB  4
68E2:  MOVF   x4E,W
68E4:  XORLW  00
68E6:  MOVLB  0
68E8:  BZ    68F4
68EA:  XORLW  01
68EC:  BZ    6914
68EE:  XORLW  03
68F0:  BZ    6934
68F2:  BRA    6950
.................... 			case 0: 
.................... 				/* write hour */ 
.................... 				timers.hour=value; 
68F4:  MOVFF  45F,182
.................... 				write_rtc(0x02,bin2bcd(timers.hour)); 
68F8:  MOVFF  182,461
68FC:  RCALL  65B2
68FE:  MOVFF  01,461
6902:  MOVLW  02
6904:  MOVLB  4
6906:  MOVWF  x7B
6908:  MOVFF  01,47C
690C:  MOVLB  0
690E:  CALL   1FD6
.................... //				puts("writing hour"); 
.................... 				break; 
6912:  BRA    6950
.................... 			case 1: 
.................... 				/* write minute */ 
.................... 				timers.minute=value; 
6914:  MOVFF  45F,183
.................... 				write_rtc(0x01,bin2bcd(timers.minute)); 
6918:  MOVFF  183,461
691C:  RCALL  65B2
691E:  MOVFF  01,461
6922:  MOVLW  01
6924:  MOVLB  4
6926:  MOVWF  x7B
6928:  MOVFF  01,47C
692C:  MOVLB  0
692E:  CALL   1FD6
.................... //				puts("writing minute"); 
.................... 				break; 
6932:  BRA    6950
.................... 			case 2: 
.................... 				/* write second */ 
.................... 				timers.second=value; 
6934:  MOVFF  45F,184
.................... 				write_rtc(0x00,0b01111111 & bin2bcd(timers.second)); 
6938:  MOVFF  184,461
693C:  RCALL  65B2
693E:  MOVF   01,W
6940:  ANDLW  7F
6942:  MOVLB  4
6944:  MOVWF  x61
6946:  CLRF   x7B
6948:  MOVWF  x7C
694A:  MOVLB  0
694C:  CALL   1FD6
.................... //				puts("writing second"); 
.................... 				break; 
6950:  MOVLB  4
.................... 		} 
.................... 	} 
....................  
.................... 	/* done with all fields */ 
.................... 	if ( 3 == field ) { 
6952:  MOVF   x4E,W
6954:  SUBLW  03
6956:  BNZ   696C
.................... 		got_buttons=0; 
6958:  BCF    x17.3
.................... 		field=0; 
695A:  CLRF   x4E
.................... 		lcd_cursor(LCD_CURSOR_OFF); 
695C:  MOVLW  0C
695E:  MOVWF  x6C
6960:  MOVLB  0
6962:  CALL   25D6
.................... 		action.now_redraw=1; 
6966:  MOVLB  1
6968:  BSF    x7F.0
696A:  MOVLB  4
.................... 	} 
.................... //	action.redraw_next=1; 
....................  
.................... 	return got_buttons; 
696C:  MOVLW  00
696E:  BTFSC  x17.3
6970:  MOVLW  01
6972:  MOVWF  01
.................... } 
6974:  MOVLB  0
6976:  GOTO   728A (RETURN)
....................  
.................... /* CMPS12 screens */ 
.................... void screen_cmps12_version_temperature(void) { 
.................... 	printf(lcd_putch,"CMPS Vers: 0x%02X", cmps12_get_int8(CMPS12_REG_COMMAND_VERSION) ); 
*
6A68:  MOVLB  5
6A6A:  CLRF   xC1
6A6C:  MOVLB  0
6A6E:  CALL   46A2
6A72:  MOVFF  01,45C
6A76:  MOVLW  58
6A78:  MOVWF  FF6
6A7A:  MOVLW  1B
6A7C:  MOVWF  FF7
6A7E:  MOVLW  0D
6A80:  MOVLB  4
6A82:  MOVWF  x66
6A84:  MOVLB  0
6A86:  CALL   2480
6A8A:  MOVFF  45C,461
6A8E:  MOVLW  37
6A90:  MOVLB  4
6A92:  MOVWF  x62
6A94:  MOVLB  0
6A96:  RCALL  6A1E
.................... //                    0123456789012345 
.................... 	lcd_goto(LCD_LINE_TWO); 
6A98:  MOVLW  40
6A9A:  MOVLB  4
6A9C:  MOVWF  x6D
6A9E:  MOVLB  0
6AA0:  CALL   2586
.................... 	printf(lcd_putch,"CMPS Temp: %d%cC", cmps12_get_int8(CMPS12_REG_TEMPERATURE_LSB), DEG_SYMBOL ); 
6AA4:  MOVLW  19
6AA6:  MOVLB  5
6AA8:  MOVWF  xC1
6AAA:  MOVLB  0
6AAC:  CALL   46A2
6AB0:  MOVFF  01,45C
6AB4:  MOVLW  6A
6AB6:  MOVWF  FF6
6AB8:  MOVLW  1B
6ABA:  MOVWF  FF7
6ABC:  MOVLW  0B
6ABE:  MOVLB  4
6AC0:  MOVWF  x66
6AC2:  MOVLB  0
6AC4:  CALL   2480
6AC8:  MOVFF  45C,466
6ACC:  MOVLW  18
6ACE:  MOVLB  4
6AD0:  MOVWF  x67
6AD2:  MOVLB  0
6AD4:  CALL   27DC
6AD8:  MOVLW  DF
6ADA:  MOVLB  4
6ADC:  MOVWF  x6F
6ADE:  MOVLB  0
6AE0:  CALL   2454
6AE4:  MOVLW  43
6AE6:  MOVLB  4
6AE8:  MOVWF  x6F
6AEA:  MOVLB  0
6AEC:  CALL   2454
.................... } 
6AF0:  GOTO   72AC (RETURN)
....................  
.................... void screen_cmps12_calibration(void) { 
.................... 	printf(lcd_putch,"CMPS SY GY AC MA"); 
6AF4:  MOVLW  7C
6AF6:  MOVWF  FF6
6AF8:  MOVLW  1B
6AFA:  MOVWF  FF7
6AFC:  CALL   2460
.................... //                    0123456789012345 
.................... 	 
.................... 	int8 cal=cmps12_get_int8(CMPS12_REG_CALIBRATION_STATE); 
6B00:  MOVLW  1E
6B02:  MOVLB  5
6B04:  MOVWF  xC1
6B06:  MOVLB  0
6B08:  CALL   46A2
6B0C:  MOVFF  01,45C
....................  
.................... 	lcd_goto(LCD_LINE_TWO); 
6B10:  MOVLW  40
6B12:  MOVLB  4
6B14:  MOVWF  x6D
6B16:  MOVLB  0
6B18:  CALL   2586
.................... 	printf(lcd_putch,"%02Xh  %u  %u  %u  %u", 
.................... 		cal, 
.................... 		(cal>>6) & 0b11, /* system */ 
.................... 		(cal>>4) & 0b11, /* gyro */ 
.................... 		(cal>>2) & 0b11, /* accel */ 
.................... 		cal & 0b11       /* magnetometer */ 
.................... 	); 
6B1C:  MOVLB  4
6B1E:  SWAPF  x5C,W
6B20:  MOVWF  00
6B22:  RRCF   00,F
6B24:  RRCF   00,F
6B26:  MOVLW  03
6B28:  ANDWF  00,F
6B2A:  MOVF   00,W
6B2C:  ANDLW  03
6B2E:  MOVWF  x5D
6B30:  SWAPF  x5C,W
6B32:  MOVWF  00
6B34:  MOVLW  0F
6B36:  ANDWF  00,F
6B38:  MOVF   00,W
6B3A:  ANDLW  03
6B3C:  MOVWF  x5E
6B3E:  RRCF   x5C,W
6B40:  MOVWF  00
6B42:  RRCF   00,F
6B44:  MOVLW  3F
6B46:  ANDWF  00,F
6B48:  MOVF   00,W
6B4A:  ANDLW  03
6B4C:  MOVWF  x5F
6B4E:  MOVF   x5C,W
6B50:  ANDLW  03
6B52:  MOVWF  x60
6B54:  MOVFF  45C,461
6B58:  MOVLW  37
6B5A:  MOVWF  x62
6B5C:  MOVLB  0
6B5E:  RCALL  6A1E
6B60:  MOVLW  92
6B62:  MOVWF  FF6
6B64:  MOVLW  1B
6B66:  MOVWF  FF7
6B68:  MOVLW  03
6B6A:  MOVLB  4
6B6C:  MOVWF  x66
6B6E:  MOVLB  0
6B70:  CALL   2480
6B74:  MOVFF  45D,461
6B78:  MOVLW  1B
6B7A:  MOVLB  4
6B7C:  MOVWF  x62
6B7E:  MOVLB  0
6B80:  CALL   321A
6B84:  MOVLW  20
6B86:  MOVLB  4
6B88:  MOVWF  x6F
6B8A:  MOVLB  0
6B8C:  CALL   2454
6B90:  MOVLW  20
6B92:  MOVLB  4
6B94:  MOVWF  x6F
6B96:  MOVLB  0
6B98:  CALL   2454
6B9C:  MOVFF  45E,461
6BA0:  MOVLW  1B
6BA2:  MOVLB  4
6BA4:  MOVWF  x62
6BA6:  MOVLB  0
6BA8:  CALL   321A
6BAC:  MOVLW  20
6BAE:  MOVLB  4
6BB0:  MOVWF  x6F
6BB2:  MOVLB  0
6BB4:  CALL   2454
6BB8:  MOVLW  20
6BBA:  MOVLB  4
6BBC:  MOVWF  x6F
6BBE:  MOVLB  0
6BC0:  CALL   2454
6BC4:  MOVFF  45F,461
6BC8:  MOVLW  1B
6BCA:  MOVLB  4
6BCC:  MOVWF  x62
6BCE:  MOVLB  0
6BD0:  CALL   321A
6BD4:  MOVLW  20
6BD6:  MOVLB  4
6BD8:  MOVWF  x6F
6BDA:  MOVLB  0
6BDC:  CALL   2454
6BE0:  MOVLW  20
6BE2:  MOVLB  4
6BE4:  MOVWF  x6F
6BE6:  MOVLB  0
6BE8:  CALL   2454
6BEC:  MOVFF  460,461
6BF0:  MOVLW  1B
6BF2:  MOVLB  4
6BF4:  MOVWF  x62
6BF6:  MOVLB  0
6BF8:  CALL   321A
.................... } 
6BFC:  GOTO   72B4 (RETURN)
....................  
.................... void screen_cmps12_bearings(void) { 
.................... //	printf(lcd_putch,"%03lu%c %02d%c   %02d%c",  
.................... //                    285.3d    291.3d 
.................... //                    CMPS12d   BOSCHd 
.................... //                    0123456789012345 
.................... 	printf(lcd_putch,"%03.1lw%c     %03lu%c",  
.................... 		cmps12_get_int16(CMPS12_REG_BEARING_MSB), DEG_SYMBOL, 
.................... 		cmps12_get_int16(CMPS12_REG_BNO055_COMPASS_MSB) >> 4, DEG_SYMBOL 
.................... 	); 
6C00:  MOVLW  02
6C02:  MOVLB  5
6C04:  MOVWF  xBF
6C06:  MOVLB  0
6C08:  CALL   3B72
6C0C:  MOVFF  02,45D
6C10:  MOVFF  01,45C
6C14:  MOVLW  1A
6C16:  MOVLB  5
6C18:  MOVWF  xBF
6C1A:  MOVLB  0
6C1C:  CALL   3B72
6C20:  MOVFF  02,45F
6C24:  MOVFF  01,45E
6C28:  MOVLB  4
6C2A:  RRCF   x5F,F
6C2C:  RRCF   x5E,F
6C2E:  RRCF   x5F,F
6C30:  RRCF   x5E,F
6C32:  RRCF   x5F,F
6C34:  RRCF   x5E,F
6C36:  RRCF   x5F,F
6C38:  RRCF   x5E,F
6C3A:  MOVLW  0F
6C3C:  ANDWF  x5F,F
6C3E:  MOVLW  43
6C40:  MOVWF  FE9
6C42:  CLRF   x65
6C44:  CLRF   x64
6C46:  MOVFF  45D,463
6C4A:  MOVFF  45C,462
6C4E:  MOVLW  01
6C50:  MOVWF  x66
6C52:  MOVLB  0
6C54:  CALL   5BF4
6C58:  MOVLW  DF
6C5A:  MOVLB  4
6C5C:  MOVWF  x6F
6C5E:  MOVLB  0
6C60:  CALL   2454
6C64:  MOVLW  AD
6C66:  MOVWF  FF6
6C68:  MOVLW  1B
6C6A:  MOVWF  FF7
6C6C:  MOVLW  05
6C6E:  MOVLB  4
6C70:  MOVWF  x66
6C72:  MOVLB  0
6C74:  CALL   2480
6C78:  MOVLW  0A
6C7A:  MOVWF  FE9
6C7C:  MOVFF  45F,461
6C80:  MOVFF  45E,460
6C84:  CALL   32A0
6C88:  MOVLW  DF
6C8A:  MOVLB  4
6C8C:  MOVWF  x6F
6C8E:  MOVLB  0
6C90:  CALL   2454
.................... //                    0123456789012345 
.................... //                    345d 25d   89d 
.................... 	lcd_goto(LCD_LINE_TWO); 
6C94:  MOVLW  40
6C96:  MOVLB  4
6C98:  MOVWF  x6D
6C9A:  MOVLB  0
6C9C:  CALL   2586
....................  
.................... 	printf(lcd_putch,"CMPS12%c   BOSCH%c",DEG_SYMBOL,DEG_SYMBOL); 
6CA0:  MOVLW  BA
6CA2:  MOVWF  FF6
6CA4:  MOVLW  1B
6CA6:  MOVWF  FF7
6CA8:  MOVLW  06
6CAA:  MOVLB  4
6CAC:  MOVWF  x66
6CAE:  MOVLB  0
6CB0:  CALL   2480
6CB4:  MOVLW  DF
6CB6:  MOVLB  4
6CB8:  MOVWF  x6F
6CBA:  MOVLB  0
6CBC:  CALL   2454
6CC0:  MOVLW  C2
6CC2:  MOVWF  FF6
6CC4:  MOVLW  1B
6CC6:  MOVWF  FF7
6CC8:  MOVLW  08
6CCA:  MOVLB  4
6CCC:  MOVWF  x66
6CCE:  MOVLB  0
6CD0:  CALL   2480
6CD4:  MOVLW  DF
6CD6:  MOVLB  4
6CD8:  MOVWF  x6F
6CDA:  MOVLB  0
6CDC:  CALL   2454
....................  
....................  
.................... } 
6CE0:  GOTO   72BC (RETURN)
....................  
....................  
....................  
.................... void screen_cmps12_angles(void) {  
....................  
.................... 	printf(lcd_putch,"%ld%c",cmps12_get_int16(CMPS12_REG_PITCH_ANGLE_MSB), DEG_SYMBOL 
.................... 	); 
*
6DDA:  MOVLW  1C
6DDC:  MOVLB  5
6DDE:  MOVWF  xBF
6DE0:  MOVLB  0
6DE2:  CALL   3B72
6DE6:  MOVFF  02,45D
6DEA:  MOVFF  01,45C
6DEE:  MOVLW  10
6DF0:  MOVWF  FE9
6DF2:  MOVFF  02,45F
6DF6:  MOVFF  01,45E
6DFA:  RCALL  6CE4
6DFC:  MOVLW  DF
6DFE:  MOVLB  4
6E00:  MOVWF  x6F
6E02:  MOVLB  0
6E04:  CALL   2454
....................  
.................... 	lcd_goto(11); 
6E08:  MOVLW  0B
6E0A:  MOVLB  4
6E0C:  MOVWF  x6D
6E0E:  MOVLB  0
6E10:  CALL   2586
.................... 	printf(lcd_putch,"%d%c",cmps12_get_int8(CMPS12_REG_ROLL), DEG_SYMBOL); 
6E14:  MOVLW  05
6E16:  MOVLB  5
6E18:  MOVWF  xC1
6E1A:  MOVLB  0
6E1C:  CALL   46A2
6E20:  MOVFF  01,45C
6E24:  MOVFF  01,466
6E28:  MOVLW  18
6E2A:  MOVLB  4
6E2C:  MOVWF  x67
6E2E:  MOVLB  0
6E30:  CALL   27DC
6E34:  MOVLW  DF
6E36:  MOVLB  4
6E38:  MOVWF  x6F
6E3A:  MOVLB  0
6E3C:  CALL   2454
....................  
....................  
.................... //                    0123456789012345 
.................... //                    345d 25d   89d 
.................... 	lcd_goto(LCD_LINE_TWO); 
6E40:  MOVLW  40
6E42:  MOVLB  4
6E44:  MOVWF  x6D
6E46:  MOVLB  0
6E48:  CALL   2586
....................  
.................... 	printf(lcd_putch,"PITCH       ROLL"); 
6E4C:  MOVLW  CE
6E4E:  MOVWF  FF6
6E50:  MOVLW  1B
6E52:  MOVWF  FF7
6E54:  CALL   2460
....................  
....................  
.................... } 
6E58:  GOTO   72C4 (RETURN)
....................  
.................... void screen_wind_direction_offset(void) { 
.................... 	printf(lcd_putch,"%ld%c",current.wind_direction_offset, DEG_SYMBOL); 
6E5C:  MOVLW  10
6E5E:  MOVWF  FE9
6E60:  MOVFF  53,45F
6E64:  MOVFF  52,45E
6E68:  RCALL  6CE4
6E6A:  MOVLW  DF
6E6C:  MOVLB  4
6E6E:  MOVWF  x6F
6E70:  MOVLB  0
6E72:  CALL   2454
....................  
....................  
.................... //                    0123456789012345 
.................... //                    345d 25d   89d 
.................... 	lcd_goto(LCD_LINE_TWO); 
6E76:  MOVLW  40
6E78:  MOVLB  4
6E7A:  MOVWF  x6D
6E7C:  MOVLB  0
6E7E:  CALL   2586
....................  
.................... 	printf(lcd_putch,"WIND DIR OFFSET"); 
6E82:  MOVLW  E0
6E84:  MOVWF  FF6
6E86:  MOVLW  1B
6E88:  MOVWF  FF7
6E8A:  CALL   2460
....................  
....................  
.................... } 
6E8E:  GOTO   72CC (RETURN)
....................  
.................... short screen_cmps12_set_calibration(void) { 
.................... 	static short got_buttons=0; 
....................  
.................... 	printf(lcd_putch,"CMPS12 Cal"); 
*
6F82:  MOVLW  F0
6F84:  MOVWF  FF6
6F86:  MOVLW  1B
6F88:  MOVWF  FF7
6F8A:  CALL   2460
.................... //                    0123456789012345 
....................  
....................  
.................... 	if ( 0 == got_buttons ) { 
6F8E:  MOVLB  4
6F90:  BTFSC  x17.4
6F92:  BRA    6FB0
.................... 		if ( action.select_now ) { 
6F94:  MOVLB  1
6F96:  BTFSS  x80.4
6F98:  BRA    6FA6
.................... 			/* set button pressed */ 
.................... 			got_buttons=1; 
6F9A:  MOVLB  4
6F9C:  BSF    x17.4
.................... 			action.select_now=0; 
6F9E:  MOVLB  1
6FA0:  BCF    x80.4
.................... 			action.now_redraw=1; 
6FA2:  BSF    x7F.0
.................... 		} else { 
6FA4:  BRA    6FAE
.................... 			/* prompt to set */ 
.................... 			prompt_prev_set_next(); 
6FA6:  MOVLB  0
6FA8:  CALL   6598
6FAC:  MOVLB  1
6FAE:  MOVLB  4
.................... 		} 
.................... 	}  
....................  
.................... 	if ( 1 == got_buttons ) { 
6FB0:  BTFSS  x17.4
6FB2:  BRA    7054
.................... 		lcd_goto(LCD_LINE_TWO); 
6FB4:  MOVLW  40
6FB6:  MOVWF  x6D
6FB8:  MOVLB  0
6FBA:  CALL   2586
.................... 		printf(lcd_putch,"Store Exit Erase"); 
6FBE:  MOVLW  FC
6FC0:  MOVWF  FF6
6FC2:  MOVLW  1B
6FC4:  MOVWF  FF7
6FC6:  CALL   2460
.................... //                        0123456789012345 
....................  
.................... 		if ( action.up_now ) { 
6FCA:  MOVLB  1
6FCC:  BTFSS  x80.2
6FCE:  BRA    700A
.................... 			action.up_now=0; 
6FD0:  BCF    x80.2
.................... 			action.now_redraw=1; 
6FD2:  BSF    x7F.0
....................  
.................... 			lcd_goto(LCD_LINE_TWO); 
6FD4:  MOVLW  40
6FD6:  MOVLB  4
6FD8:  MOVWF  x6D
6FDA:  MOVLB  0
6FDC:  CALL   2586
.................... 			printf(lcd_putch,"RESETTING CALIBR"); 
6FE0:  MOVLW  0E
6FE2:  MOVWF  FF6
6FE4:  MOVLW  1C
6FE6:  MOVWF  FF7
6FE8:  CALL   2460
.................... //                            0123456789012345 
.................... 			cmps12_erase_calibration(); 
6FEC:  BRA    6EEA
.................... 			delay_ms(500); 
6FEE:  MOVLW  02
6FF0:  MOVLB  4
6FF2:  MOVWF  x5C
6FF4:  MOVLW  FA
6FF6:  MOVLB  5
6FF8:  MOVWF  xA6
6FFA:  MOVLB  0
6FFC:  CALL   1E58
7000:  MOVLB  4
7002:  DECFSZ x5C,F
7004:  BRA    6FF4
.................... 			got_buttons=0; 
7006:  BCF    x17.4
7008:  MOVLB  1
.................... 		} 
.................... 		if ( action.down_now ) { 
700A:  BTFSS  x80.3
700C:  BRA    7048
.................... 			action.down_now=0; 
700E:  BCF    x80.3
.................... 			action.now_redraw=1; 
7010:  BSF    x7F.0
....................  
.................... 			lcd_goto(LCD_LINE_TWO); 
7012:  MOVLW  40
7014:  MOVLB  4
7016:  MOVWF  x6D
7018:  MOVLB  0
701A:  CALL   2586
.................... 			printf(lcd_putch,"SAVING CALIBRATI"); 
701E:  MOVLW  20
7020:  MOVWF  FF6
7022:  MOVLW  1C
7024:  MOVWF  FF7
7026:  CALL   2460
.................... //                            0123456789012345 
.................... 			cmps12_save_calibration(); 
702A:  BRA    6F36
.................... 			delay_ms(500); 
702C:  MOVLW  02
702E:  MOVLB  4
7030:  MOVWF  x5C
7032:  MOVLW  FA
7034:  MOVLB  5
7036:  MOVWF  xA6
7038:  MOVLB  0
703A:  CALL   1E58
703E:  MOVLB  4
7040:  DECFSZ x5C,F
7042:  BRA    7032
.................... 			got_buttons=0; 
7044:  BCF    x17.4
7046:  MOVLB  1
.................... 		} 
.................... 		if ( action.select_now ) { 
7048:  BTFSS  x80.4
704A:  BRA    7056
.................... 			action.select_now=0; 
704C:  BCF    x80.4
.................... 			action.now_redraw=1; 
704E:  BSF    x7F.0
.................... 			got_buttons=0; 
7050:  MOVLB  4
7052:  BCF    x17.4
7054:  MOVLB  1
.................... 		} 
.................... 	} 
....................  
.................... 	return got_buttons; 
7056:  MOVLW  00
7058:  MOVLB  4
705A:  BTFSC  x17.4
705C:  MOVLW  01
705E:  MOVWF  01
.................... } 
7060:  MOVLB  0
7062:  GOTO   72D2 (RETURN)
....................  
.................... short screen_cmps12_set_direction_offset(void) { 
.................... 	static short got_buttons=0; 
.................... 	int16 now; 
....................  
.................... 	printf(lcd_putch,"CMPS12 North Set"); 
7066:  MOVLW  32
7068:  MOVWF  FF6
706A:  MOVLW  1C
706C:  MOVWF  FF7
706E:  CALL   2460
.................... //                    0123456789012345 
....................  
....................  
.................... 	if ( 0 == got_buttons ) { 
7072:  MOVLB  4
7074:  BTFSC  x17.5
7076:  BRA    7094
.................... 		if ( action.select_now ) { 
7078:  MOVLB  1
707A:  BTFSS  x80.4
707C:  BRA    708A
.................... 			/* set button pressed */ 
.................... 			got_buttons=1; 
707E:  MOVLB  4
7080:  BSF    x17.5
.................... 			action.select_now=0; 
7082:  MOVLB  1
7084:  BCF    x80.4
.................... 			action.now_redraw=1; 
7086:  BSF    x7F.0
.................... 		} else { 
7088:  BRA    7092
.................... 			/* prompt to set */ 
.................... 			prompt_prev_set_next(); 
708A:  MOVLB  0
708C:  CALL   6598
7090:  MOVLB  1
7092:  MOVLB  4
.................... 		} 
.................... 	}  
....................  
.................... 	if ( 1 == got_buttons ) { 
7094:  BTFSS  x17.5
7096:  BRA    71AA
.................... 		lcd_goto(LCD_LINE_TWO); 
7098:  MOVLW  40
709A:  MOVWF  x6D
709C:  MOVLB  0
709E:  CALL   2586
.................... 		printf(lcd_putch,"Set   Exit Clear"); 
70A2:  MOVLW  44
70A4:  MOVWF  FF6
70A6:  MOVLW  1C
70A8:  MOVWF  FF7
70AA:  CALL   2460
.................... //                        0123456789012345 
....................  
.................... 		if ( action.up_now ) { 
70AE:  MOVLB  1
70B0:  BTFSS  x80.2
70B2:  BRA    70F6
.................... 			action.up_now=0; 
70B4:  BCF    x80.2
.................... 			action.now_redraw=1; 
70B6:  BSF    x7F.0
....................  
....................  
.................... 			current.wind_direction_offset=0; 
70B8:  CLRF   53
70BA:  CLRF   52
.................... 			write_eeprom_int16(EE_WIND_DIRECTION_OFFSET_MSB,0); 
70BC:  MOVLB  4
70BE:  CLRF   x7C
70C0:  MOVLW  18
70C2:  MOVWF  x7B
70C4:  CLRF   x7E
70C6:  CLRF   x7D
70C8:  MOVLB  0
70CA:  CALL   1DB8
....................  
.................... 			printf(lcd_putch,"OFFSET ZEROED"); 
70CE:  MOVLW  56
70D0:  MOVWF  FF6
70D2:  MOVLW  1C
70D4:  MOVWF  FF7
70D6:  CALL   2460
.................... //                            0123456789012345 
....................  
.................... 			delay_ms(500); 
70DA:  MOVLW  02
70DC:  MOVLB  4
70DE:  MOVWF  x5E
70E0:  MOVLW  FA
70E2:  MOVLB  5
70E4:  MOVWF  xA6
70E6:  MOVLB  0
70E8:  CALL   1E58
70EC:  MOVLB  4
70EE:  DECFSZ x5E,F
70F0:  BRA    70E0
....................  
.................... 			got_buttons=0; 
70F2:  BCF    x17.5
70F4:  MOVLB  1
.................... 		} 
.................... 		if ( action.down_now ) { 
70F6:  BTFSS  x80.3
70F8:  BRA    719E
.................... 			action.down_now=0; 
70FA:  BCF    x80.3
.................... 			action.now_redraw=1; 
70FC:  BSF    x7F.0
....................  
.................... 			now = (cmps12_get_int16(CMPS12_REG_BNO055_COMPASS_MSB) / 16); 
70FE:  MOVLW  1A
7100:  MOVLB  5
7102:  MOVWF  xBF
7104:  MOVLB  0
7106:  CALL   3B72
710A:  MOVLB  4
710C:  RRCF   02,W
710E:  MOVWF  x5D
7110:  RRCF   01,W
7112:  MOVWF  x5C
7114:  RRCF   x5D,F
7116:  RRCF   x5C,F
7118:  RRCF   x5D,F
711A:  RRCF   x5C,F
711C:  RRCF   x5D,F
711E:  RRCF   x5C,F
7120:  MOVLW  0F
7122:  ANDWF  x5D,F
....................  
.................... 			current.wind_direction_offset = 360 - now; 
7124:  MOVLW  68
7126:  BSF    FD8.0
7128:  SUBFWB x5C,W
712A:  MOVWF  52
712C:  MOVLW  01
712E:  SUBFWB x5D,W
7130:  MOVWF  53
.................... 			write_eeprom_int16(EE_WIND_DIRECTION_OFFSET_MSB,current.wind_direction_offset); 
7132:  CLRF   x7C
7134:  MOVLW  18
7136:  MOVWF  x7B
7138:  MOVFF  53,47E
713C:  MOVFF  52,47D
7140:  MOVLB  0
7142:  CALL   1DB8
....................  
.................... 	 
.................... 			lcd_goto(LCD_LINE_TWO); 
7146:  MOVLW  40
7148:  MOVLB  4
714A:  MOVWF  x6D
714C:  MOVLB  0
714E:  CALL   2586
.................... 			printf(lcd_putch,"OFFSET IS %lu%c",current.wind_direction_offset,DEG_SYMBOL); 
7152:  MOVLW  64
7154:  MOVWF  FF6
7156:  MOVLW  1C
7158:  MOVWF  FF7
715A:  MOVLW  0A
715C:  MOVLB  4
715E:  MOVWF  x66
7160:  MOVLB  0
7162:  CALL   2480
7166:  MOVLW  10
7168:  MOVWF  FE9
716A:  MOVFF  53,461
716E:  MOVFF  52,460
7172:  CALL   32A0
7176:  MOVLW  DF
7178:  MOVLB  4
717A:  MOVWF  x6F
717C:  MOVLB  0
717E:  CALL   2454
.................... //                            0123456789012345 
....................  
.................... 			delay_ms(500); 
7182:  MOVLW  02
7184:  MOVLB  4
7186:  MOVWF  x5E
7188:  MOVLW  FA
718A:  MOVLB  5
718C:  MOVWF  xA6
718E:  MOVLB  0
7190:  CALL   1E58
7194:  MOVLB  4
7196:  DECFSZ x5E,F
7198:  BRA    7188
.................... 			got_buttons=0; 
719A:  BCF    x17.5
719C:  MOVLB  1
.................... 		} 
.................... 		if ( action.select_now ) { 
719E:  BTFSS  x80.4
71A0:  BRA    71AC
.................... 			action.select_now=0; 
71A2:  BCF    x80.4
.................... 			action.now_redraw=1; 
71A4:  BSF    x7F.0
.................... 			got_buttons=0; 
71A6:  MOVLB  4
71A8:  BCF    x17.5
71AA:  MOVLB  1
.................... 		} 
.................... 	} 
....................  
.................... 	return got_buttons; 
71AC:  MOVLW  00
71AE:  MOVLB  4
71B0:  BTFSC  x17.5
71B2:  MOVLW  01
71B4:  MOVWF  01
.................... } 
71B6:  MOVLB  0
71B8:  GOTO   72DE (RETURN)
....................  
.................... #define MAX_SCREEN_RDLOGGER_BASIC     12 
.................... #define ADDITIONAL_SCREENS_CMPS12     7 
.................... void screen_select(void) { 
71BC:  MOVLW  0C
71BE:  MOVLB  4
71C0:  MOVWF  x5B
.................... 	static int8 screen; 
.................... 	static short has_buttons=0; 
.................... 	int8 max_screen=MAX_SCREEN_RDLOGGER_BASIC; 
....................  
.................... 	/* turn on additional screens if we are equipped with CMPS12 */ 
.................... 	if ( WIND_DIRECTION_SOURCE_CMPS12 == current.wind_direction_source ) { 
71C2:  DECFSZ 51,W
71C4:  BRA    71CA
.................... 		max_screen  +=  ADDITIONAL_SCREENS_CMPS12; 
71C6:  MOVLW  07
71C8:  ADDWF  x5B,F
.................... 	} 
....................  
.................... 	if ( ! has_buttons && action.up_now ) { 
71CA:  BTFSC  x17.6
71CC:  BRA    71E8
71CE:  MOVLB  1
71D0:  BTFSC  x80.2
71D2:  BRA    71D8
71D4:  MOVLB  4
71D6:  BRA    71E8
.................... 		action.up_now=0; 
71D8:  BCF    x80.2
....................  
.................... 		if ( screen < max_screen ) { 
71DA:  MOVLB  4
71DC:  MOVF   x5B,W
71DE:  SUBWF  x4F,W
71E0:  BC    71E6
.................... 			screen++; 
71E2:  INCF   x4F,F
.................... 		} else { 
71E4:  BRA    71E8
.................... 			screen=0; 
71E6:  CLRF   x4F
.................... 		} 
.................... 	} 
....................  
.................... 	if ( ! has_buttons && action.down_now ) { 
71E8:  BTFSC  x17.6
71EA:  BRA    7206
71EC:  MOVLB  1
71EE:  BTFSC  x80.3
71F0:  BRA    71F6
71F2:  MOVLB  4
71F4:  BRA    7206
.................... 		action.down_now=0; 
71F6:  BCF    x80.3
....................  
.................... 		if ( screen != 0 ) { 
71F8:  MOVLB  4
71FA:  MOVF   x4F,F
71FC:  BZ    7202
.................... 			screen--; 
71FE:  DECF   x4F,F
.................... 		} else { 
7200:  BRA    7206
.................... 			screen=max_screen; 
7202:  MOVFF  45B,44F
.................... 		} 
.................... 	} 
....................  
.................... 	lcd_clear(); 
7206:  MOVLB  0
7208:  CALL   243A
....................  
....................  
.................... 		switch ( screen ) { 
720C:  MOVLB  4
720E:  MOVF   x4F,W
7210:  ADDLW  EC
7212:  BTFSC  FD8.0
7214:  BRA    72EA
7216:  ADDLW  14
7218:  MOVLB  0
721A:  GOTO   72F0
.................... 			case 0:  screen_wind(); has_buttons=0; break; 
721E:  GOTO   5CDE
7222:  MOVLB  4
7224:  BCF    x17.6
7226:  BRA    72EA
.................... 			case 1:  screen_wind_direction(); has_buttons=0; break; 
7228:  GOTO   5F64
722C:  MOVLB  4
722E:  BCF    x17.6
7230:  BRA    72EA
.................... 			case 2:  screen_time_date(); has_buttons=0; break; 
7232:  GOTO   60CA
7236:  MOVLB  4
7238:  BCF    x17.6
723A:  BRA    72EA
.................... 			case 3:  screen_dataflash(); has_buttons=0; break; 
723C:  GOTO   61A6
7240:  MOVLB  4
7242:  BCF    x17.6
7244:  BRA    72EA
.................... 			case 4:  screen_sd(); has_buttons=0; break; 
7246:  GOTO   622E
724A:  MOVLB  4
724C:  BCF    x17.6
724E:  BRA    72EA
.................... 			case 5:  screen_t(); has_buttons=0; break; 
7250:  GOTO   629A
7254:  MOVLB  4
7256:  BCF    x17.6
7258:  BRA    72EA
.................... 			case 6:  screen_analog(); has_buttons=0; break; 
725A:  GOTO   6364
725E:  MOVLB  4
7260:  BCF    x17.6
7262:  BRA    72EA
.................... 			case 7:  screen_power(); has_buttons=0; break; 
7264:  GOTO   63BC
7268:  MOVLB  4
726A:  BCF    x17.6
726C:  BRA    72EA
.................... 			case 8:  screen_modem_seconds(); has_buttons=0; break; 
726E:  GOTO   648C
7272:  MOVLB  4
7274:  BCF    x17.6
7276:  BRA    72EA
.................... 			case 9:  has_buttons=screen_set_date();  break; 
7278:  GOTO   65DA
727C:  MOVLB  4
727E:  BCF    x17.6
7280:  BTFSC  01.0
7282:  BSF    x17.6
7284:  BRA    72EA
.................... 			case 10: has_buttons=screen_set_time(); break; 
7286:  GOTO   67A6
728A:  MOVLB  4
728C:  BCF    x17.6
728E:  BTFSC  01.0
7290:  BSF    x17.6
7292:  BRA    72EA
.................... 			case 11: screen_download(); has_buttons=0; break; 
7294:  GOTO   697A
7298:  MOVLB  4
729A:  BCF    x17.6
729C:  BRA    72EA
.................... 			case 12: screen_version(); has_buttons=0; break; 
729E:  GOTO   69D2
72A2:  MOVLB  4
72A4:  BCF    x17.6
72A6:  BRA    72EA
.................... 			/* for CMPS12 equipped versions */ 
.................... 			case 13: screen_cmps12_version_temperature(); has_buttons=0; break; 
72A8:  GOTO   6A68
72AC:  MOVLB  4
72AE:  BCF    x17.6
72B0:  BRA    72EA
.................... 			case 14: screen_cmps12_calibration(); has_buttons=0; break; 
72B2:  BRA    6AF4
72B4:  MOVLB  4
72B6:  BCF    x17.6
72B8:  BRA    72EA
.................... 			case 15: screen_cmps12_bearings(); has_buttons=0; break; 
72BA:  BRA    6C00
72BC:  MOVLB  4
72BE:  BCF    x17.6
72C0:  BRA    72EA
.................... 			case 16: screen_cmps12_angles(); has_buttons=0; break; 
72C2:  BRA    6DDA
72C4:  MOVLB  4
72C6:  BCF    x17.6
72C8:  BRA    72EA
.................... 			case 17: screen_wind_direction_offset(); break; 
72CA:  BRA    6E5C
72CC:  MOVLB  4
72CE:  BRA    72EA
.................... 			case 18: has_buttons=screen_cmps12_set_calibration(); break; 
72D0:  BRA    6F82
72D2:  MOVLB  4
72D4:  BCF    x17.6
72D6:  BTFSC  01.0
72D8:  BSF    x17.6
72DA:  BRA    72EA
.................... 			case 19: has_buttons=screen_cmps12_set_direction_offset(); break; 
72DC:  BRA    7066
72DE:  MOVLB  4
72E0:  BCF    x17.6
72E2:  BTFSC  01.0
72E4:  BSF    x17.6
72E6:  BRA    72EA
72E8:  MOVLB  4
.................... 		} 
....................  
.................... } 
72EA:  MOVLB  0
72EC:  GOTO   79A0 (RETURN)
....................  
.................... #include "gps.c" 
....................  
....................  
.................... void gps_clear(void) { 
.................... 	gps.latitude=0.0; 
.................... 	gps.longitude=0.0; 
.................... 	gps.year=0; 
.................... 	gps.month=0; 
.................... 	gps.day=0; 
.................... 	gps.hour=0; 
.................... 	gps.minute=0; 
.................... 	gps.second=0; 
.................... 	gps.valid=0; 
.................... } 
....................  
.................... int8 xtoi(int8 h) { 
.................... 	if ( h>='0' && h<='9' ) { 
.................... 		return h-'0'; 
.................... 	} 
....................  
.................... 	h=toupper(h); 
.................... 	if ( h>='A' && h<='F' ) { 
.................... 		return (10 + (h-'A')); 
.................... 	} 
....................  
.................... 	return 0; 
.................... } 
....................  
.................... #define GPS_STATE_WAITING 0 
.................... #define GPS_STATE_IN      1 
.................... #define GPS_STATE_CRC     2 
....................  
.................... void gps_collect(int8 c) { 
.................... 	static int8 state=GPS_STATE_WAITING; 
.................... 	static int8 crc=0; 
.................... 	static int8 pos=0; 
....................  
.................... //	fputc(c,modem); 
....................  
.................... 	if ( '$'==c || GPS_STATE_WAITING==state ) { 
.................... 		state=GPS_STATE_IN; 
.................... 		gps.valid=0; 
.................... 		pos=0; 
.................... 		crc=0; 
.................... 	} else if ( GPS_STATE_IN==state ) { 
.................... 		/* got our CRC delimiter */ 
.................... 		if ( '*'==c ) { 
.................... 			state=GPS_STATE_CRC; 
.................... 			gps.buff[pos]='\0'; 
.................... 			gps.buff_rcrc[0]='\0'; 
.................... 			pos=0; 
.................... 			return; 
.................... 		} 
....................  
.................... 		/* add to CRC and buffer */ 
.................... 		crc = crc ^ c; 
.................... 		if ( pos<sizeof(gps.buff) )  
.................... 			gps.buff[pos++]=c; 
.................... 	} else if ( GPS_STATE_CRC==state ) { 
.................... 		if ( '\r'==c || '\n'==c ) { 
.................... 			/* check CRC and set flag */ 
.................... 			gps.rcrc = 16*xtoi(gps.buff_rcrc[0]) + xtoi(gps.buff_rcrc[1]); 
....................  
.................... 			if ( gps.rcrc == crc ) 
.................... 				gps.valid=1; 
.................... 			state=GPS_STATE_WAITING; 
.................... 			return; 
.................... 		} 
....................  
.................... 		if ( pos<sizeof(gps.buff_rcrc) )  
.................... 			gps.buff_rcrc[pos++]=c; 
.................... 	} 
....................  
.................... } 
....................  
.................... int8 gps_rmc_parse(void) { 
.................... 	int8 buff[12]; 
.................... 	int8 i; 
.................... 	char *p; 
....................  
.................... 	/* gps.buff 
.................... 	 GPRMC,235959,A,3851.3651,N,09447.9382,W,000.0,221.9,071103,003.3,E  
.................... 	 0     1      2 3         4 5          6 7     8     9      10    11 
.................... 	*/ 
....................  
.................... 	if ( ! ('G'==gps.buff[0] && 'P'==gps.buff[1] && 'R'==gps.buff[2] && 'M'==gps.buff[3] && 'C'==gps.buff[4]) ) { 
.................... 		/* not GPRMC */ 
.................... 		return 1; 
.................... 	} 
....................  
.................... 	if ( strlen(gps.buff) < 50 ) { 
.................... 		/* too short of sentence */ 
.................... 		return 2; 
.................... 	} 
....................  
.................... 	/* hour */ 
.................... 	p=gps.buff+6; 
.................... 	buff[0]=p[0]; 
.................... 	buff[1]=p[1]; 
.................... 	buff[2]='\0'; 
.................... 	gps.hour=atoi(buff); 
....................  
.................... 	/* minute */ 
.................... 	p+=2; 
.................... 	buff[0]=p[0]; 
.................... 	buff[1]=p[1]; 
.................... 	buff[2]='\0'; 
.................... 	gps.minute=atoi(buff); 
....................  
.................... 	/* second */ 
.................... 	p+=2; 
.................... 	buff[0]=p[0]; 
.................... 	buff[1]=p[1]; 
.................... 	buff[2]='\0'; 
.................... 	gps.second=atoi(buff); 
.................... 	for ( i=0 ; i<11 && p[0]!=',' ; i++ ) p++; 
....................  
.................... 	/* status */ 
.................... 	p+=1; 
.................... 	if ( 'A'!= p[0] ) { 
.................... 		gps.valid=0; 
.................... 		return 3; 
.................... 	} 
....................  
.................... 	/* latitude */ 
.................... 	p+=2; 
.................... 	for ( i=0 ; i<10 && p[i]!=',' ; i++ ) { 
.................... 		buff[i]=p[i]; 
.................... 	} 
.................... 	buff[++i]='\0'; 
.................... 	gps.latitude=atof(buff); 
.................... 	 
.................... 	/* latitude sign */ 
.................... 	p+=i; 
.................... 	if ( 'S'==p[0] ) 
.................... 		gps.latitude=0.0-gps.latitude; 
....................  
.................... 	/* longitude */ 
.................... 	p+=2; 
.................... 	for ( i=0 ; i<11 && p[i]!=',' ; i++ ) { 
.................... 		buff[i]=p[i]; 
.................... 	} 
.................... 	buff[++i]='\0'; 
.................... 	gps.longitude=atof(buff); 
.................... 	 
.................... 	/* longitude sign */ 
.................... 	p+=i; 
.................... 	if ( 'W'==p[0] ) 
.................... 		gps.longitude=0.0-gps.longitude; 
....................  
.................... 	/* speed over ground, to be skipped */ 
.................... 	p+=2; 
.................... 	for ( i=0 ; i<11 && p[0]!=',' ; i++ ) p++; 
....................  
.................... 	/* course over ground, to be skipped */ 
.................... 	p++; 
.................... 	for ( i=0 ; i<5 && p[0]!=',' ; i++ ) p++; 
....................  
.................... 	/* UTC date */ 
.................... 	/* day */ 
.................... 	p++; 
.................... 	buff[0]=p[0]; 
.................... 	buff[1]=p[1]; 
.................... 	buff[2]='\0'; 
.................... 	gps.day=atoi(buff); 
....................  
.................... 	/* month */ 
.................... 	p+=2; 
.................... 	buff[0]=p[0]; 
.................... 	buff[1]=p[1]; 
.................... 	gps.month=atoi(buff); 
....................  
.................... 	/* year */ 
.................... 	p+=2; 
.................... 	buff[0]=p[0]; 
.................... 	buff[1]=p[1]; 
.................... 	gps.year=atoi(buff); 
....................  
.................... 	/* ignore the rest */ 
....................  
.................... 	return 0; 
.................... } 
....................  
....................  
.................... void gps_action(void) { 
.................... 	if ( 0 == gps_rmc_parse() && 1 == gps.valid ) { 
.................... 		output_low(GPS_EN); 
.................... 		action.now_gps_update=0; 
....................  
.................... 		/* set the clock */ 
.................... 		write_rtc(0x06,bin2bcd(gps.year)); 
....................    		write_rtc(0x05,bin2bcd(gps.month)); 
....................    		write_rtc(0x04,bin2bcd(gps.day)); 
.................... 		write_rtc(0x02,bin2bcd(gps.hour)); 
.................... 		write_rtc(0x01,bin2bcd(gps.minute)); 
.................... 		write_rtc(0x00,0b01111111 & bin2bcd(gps.second)); 
....................  
.................... 		update_time_rtc(); 
....................  
.................... 		/* send a status if we got a valid GPS */ 
.................... 		action.now_live_status=1; 
.................... 	} else { 
.................... 		gps_clear(); 
.................... 	} 
.................... } 
....................  
....................  
.................... #if 0 
.................... void gps_print(void) { 
.................... 	printf("valid: %u\n",gps.valid); 
.................... 	printf("lat:   %f (%d bytes)\n",gps.latitude,sizeof(gps.latitude)); 
.................... 	printf("lon:   %f (%d bytes)\n",gps.longitude,sizeof(gps.longitude)); 
.................... 	printf("date:  20%02u-%02u-%02u\n",gps.year,gps.month,gps.day); 
.................... 	printf("time:  %02u:%02u:%02u\n",gps.hour,gps.minute,gps.second); 
.................... 	printf("rcrc:  0x%02x\n",gps.rcrc); 
.................... } 
....................  
....................  
.................... int main(int argc, char **argv) { 
.................... 	int8 i; 
.................... 	char sample[512]; 
....................  
.................... 	strcpy(sample,"$GPRMC,235959,A,3851.3651,N,09447.9382,W,000.0,221.9,071103,003.3,E*69\r\n"); 
.................... 	strcat(sample,"$GPRMC,222002,A,3614.4133,N,11509.6897,W,0.0,355.3,070401,13.1,E,A*31\r\n"); 
.................... 	strcat(sample,"$GPRMC,222128.00,A,4211.1283,N,08805.4656,W,0.0,341.5,160301,,*24\r\n"); 
.................... 	 
....................  
.................... 	printf("# parsing: %s\n",sample); 
.................... 	gps_clear(); 
....................  
.................... 	for ( i=0 ; i<strlen(sample) ; i++ ) { 
.................... 		gps_collect(sample[i]); 
.................... 		if ( gps.valid ) { 
.................... 			printf("# have valid NMEA sentence (%s):\n",gps.buff); 
.................... 			gps_parse(); 
.................... 			gps_print(); 
.................... 			gps_clear(); 
.................... 		} 
.................... 	} 
....................  
.................... 	return 0; 
.................... } 
.................... #endif 
....................  
.................... #include "live.c" 
....................  
....................  
.................... void live_send(void) { 
.................... 	int8 buff[64]; 
.................... 	int8 buff_decimal[256]; /* to SD card and debugging */ 
.................... 	int16 lCRC; 
.................... 	int8 i; 
.................... 	int16 l; 
.................... 	/* local copy of current */ 
.................... 	int16 pulse_period,pulse_min_period,pulse_count; 
....................  
.................... 	/* shut off main timer so we don't change while we copy */ 
.................... 	disable_interrupts(INT_TIMER2); 
*
494A:  BCF    F9D.1
.................... 	pulse_period = current.pulse_period; 
494C:  MOVFF  36,5A1
4950:  MOVFF  35,5A0
.................... 	pulse_min_period = current.pulse_min_period; 
4954:  MOVFF  38,5A3
4958:  MOVFF  37,5A2
.................... 	pulse_count = current.pulse_count_live; 
495C:  MOVFF  3C,5A5
4960:  MOVFF  3B,5A4
....................  
.................... 	/* reset our current record */ 
.................... 	current.pulse_count_live=0; 
4964:  CLRF   3C
4966:  CLRF   3B
.................... 	enable_interrupts(INT_TIMER2); 
4968:  BSF    F9D.1
....................  
.................... 	if ( LIVE_TYPE_CMPS12==current.live_type ) { 
496A:  MOVF   4F,W
496C:  SUBLW  02
496E:  BTFSS  FD8.2
4970:  BRA    4A8C
.................... 		buff[0]='#'; 
4972:  MOVLW  23
4974:  MOVLB  4
4976:  MOVWF  x5B
.................... 		buff[1]=current.serial_prefix; 
4978:  MOVFF  45,45C
.................... 		buff[2]=current.serial_msb; 
497C:  MOVFF  46,45D
.................... 		buff[3]=current.serial_lsb; 
4980:  MOVFF  47,45E
.................... 		buff[4]=57; /* packet length */ 
4984:  MOVLW  39
4986:  MOVWF  x5F
.................... 		buff[5]=37; /* packet type */ 
4988:  MOVLW  25
498A:  MOVWF  x60
....................  
.................... 		if ( ANEMOMETER_TYPE_THIES == current.anemometer_type ) { 
498C:  DECFSZ 4E,W
498E:  BRA    49D2
.................... 			/* scale Thies anemometer frequency to #40HC recipricol frequency */ 
.................... 			l=anemometer_thies_to_40HC(pulse_period); 
4990:  MOVFF  5A1,5A7
4994:  MOVFF  5A0,5A6
4998:  MOVLB  0
499A:  RCALL  4660
499C:  MOVFF  02,59F
49A0:  MOVFF  01,59E
.................... 			buff[6]=make8(l,1); /* wind speed */ 
49A4:  MOVFF  59F,461
49A8:  MOVLB  4
.................... 			buff[7]=make8(l,0); 
49AA:  MOVFF  59E,462
49AE:  MOVLB  4
....................  
.................... 			l=anemometer_thies_to_40HC(pulse_min_period); 
49B0:  MOVFF  5A3,5A7
49B4:  MOVFF  5A2,5A6
49B8:  MOVLB  0
49BA:  RCALL  4660
49BC:  MOVFF  02,59F
49C0:  MOVFF  01,59E
.................... 			buff[8]=make8(l,1); /* wind gust */ 
49C4:  MOVFF  59F,463
49C8:  MOVLB  4
.................... 			buff[9]=make8(l,0); 
49CA:  MOVFF  59E,464
49CE:  MOVLB  4
.................... 		} else { 
49D0:  BRA    49EA
.................... 			buff[6]=make8(pulse_period,1); /* wind speed */ 
49D2:  MOVFF  5A1,461
49D6:  MOVLB  4
.................... 			buff[7]=make8(pulse_period,0); 
49D8:  MOVFF  5A0,462
49DC:  MOVLB  4
.................... 			buff[8]=make8(pulse_min_period,1); /* wind gust */ 
49DE:  MOVFF  5A3,463
49E2:  MOVLB  4
.................... 			buff[9]=make8(pulse_min_period,0);  
49E4:  MOVFF  5A2,464
49E8:  MOVLB  4
.................... 		} 
.................... 		buff[10]=make8(pulse_count,1); /* wind pulse count */ 
49EA:  MOVFF  5A5,465
49EE:  MOVLB  4
.................... 		buff[11]=make8(pulse_count,0);  
49F0:  MOVFF  5A4,466
49F4:  MOVLB  4
....................  
.................... 		/* second anemometer not yet implemented */ 
.................... 		buff[12]=buff[13]=buff[14]=buff[15]=buff[16]=buff[17]=0; 
49F6:  CLRF   x6C
49F8:  MOVFF  46C,46B
49FC:  MOVFF  46B,46A
4A00:  MOVFF  46A,469
4A04:  MOVFF  469,468
4A08:  MOVFF  468,467
....................  
....................  
....................  
.................... 		/* analog0 */ 
.................... 		buff[18]=make8(current.analog0_adc,1); 
4A0C:  MOVFF  42,46D
.................... 		buff[19]=make8(current.analog0_adc,0); 
4A10:  MOVFF  41,46E
....................  
.................... 		/* analog1 */ 
.................... 		buff[20]=make8(current.analog1_adc,1); 
4A14:  MOVFF  44,46F
.................... 		buff[21]=make8(current.analog1_adc,0); 
4A18:  MOVFF  43,470
....................  
.................... 		/* battery */ 
.................... 		buff[22]=make8(current.input_voltage_adc,1); 
4A1C:  MOVFF  3E,471
.................... 		buff[23]=make8(current.input_voltage_adc,0); 
4A20:  MOVFF  3D,472
....................  
.................... 		/* CMPS12 registers */ 
.................... 		for ( i=0 ; i<31 ; i++ ) { 
4A24:  MOVLB  5
4A26:  CLRF   x9D
4A28:  MOVF   x9D,W
4A2A:  SUBLW  1E
4A2C:  BNC   4A62
.................... 			buff[24+i]=current.cmps12_register[i]; 
4A2E:  MOVLW  18
4A30:  ADDWF  x9D,W
4A32:  CLRF   03
4A34:  ADDLW  5B
4A36:  MOVWF  01
4A38:  MOVLW  04
4A3A:  ADDWFC 03,F
4A3C:  MOVFF  03,5A7
4A40:  CLRF   03
4A42:  MOVF   x9D,W
4A44:  ADDLW  56
4A46:  MOVWF  FE9
4A48:  MOVLW  00
4A4A:  ADDWFC 03,W
4A4C:  MOVWF  FEA
4A4E:  MOVFF  FEF,5A8
4A52:  MOVFF  5A7,FEA
4A56:  MOVFF  01,FE9
4A5A:  MOVFF  5A8,FEF
.................... 		} 
4A5E:  INCF   x9D,F
4A60:  BRA    4A28
....................  
.................... 		/* CRC */ 
.................... 		lCRC=crc_chk(buff+1,54); 
4A62:  MOVLW  04
4A64:  MOVWF  xA7
4A66:  MOVLW  5C
4A68:  MOVWF  xA6
4A6A:  MOVLW  36
4A6C:  MOVWF  xA8
4A6E:  MOVLB  0
4A70:  CALL   4128
4A74:  MOVFF  02,59C
4A78:  MOVFF  01,59B
.................... 		buff[55]=make8(lCRC,1); 
4A7C:  MOVFF  59C,492
4A80:  MOVLB  4
.................... 		buff[56]=make8(lCRC,0); 
4A82:  MOVFF  59B,493
4A86:  MOVLB  4
....................  
.................... 	} else if ( LIVE_TYPE_FULL==current.live_type ) { 
4A88:  BRA    4C5E
4A8A:  MOVLB  0
4A8C:  DECFSZ 4F,W
4A8E:  BRA    4B9E
.................... /*  
.................... '#'             0  STX 
.................... UNIT ID PREFIX  1  First character (A-Z) for serial number 
.................... UNIT ID MSB     2  high byte of sending station ID 
.................... UNIT ID LSB     3  low byte of sending station ID 
.................... PACKET LENGTH   4  number of byte for packet including STX through CRC (26) 
.................... PACKET TYPE     5  type of packet we are sending (36) 
....................  
.................... WS0 MSB         6  high byte of wind speed time 
.................... WS0 LSB         7  low byte of wind speed time 
.................... WG0 MSB         8  high byte of wind gust time 
.................... WG0 LSB         9  low byte of wind gust time 
.................... WC0 MSB         10 high byte of wind pulse count 
.................... WC0 LSB         11 low byte of wind pulse count 
....................  
.................... WS1 MSB         12 high byte of wind speed time 
.................... WS1 LSB         13 low byte of wind speed time 
.................... WG1 MSB         14 high byte of wind gust time 
.................... WG1 LSB         15 low byte of wind gust time 
.................... WC1 MSB         16 high byte of wind pulse count 
.................... WC1 LSB         17 low byte of wind pulse count 
....................  
.................... AN0 MSB         18 high byte of analog 0 (wind vane) 
.................... AN0 LSB         19 high byte of analog 0 (wind vane) 
.................... AN1 MSB         20 high byte of analog 1 
.................... AN1 LSB         21 high byte of analog 1 
....................  
.................... BATT MSB        22 high byte of battery voltage 
.................... BATT LSB        23 high byte of battery voltage 
....................  
.................... CRC MSB         24 high byte of CRC on everything after STX and before CRC 
.................... CRC LSB         25 low byte of CRC  
.................... */ 
....................  
.................... //	output_high(WV1_FILTERED); 
....................  
....................  
.................... 		buff[0]='#'; 
4A90:  MOVLW  23
4A92:  MOVLB  4
4A94:  MOVWF  x5B
.................... 		buff[1]=current.serial_prefix; 
4A96:  MOVFF  45,45C
.................... 		buff[2]=current.serial_msb; 
4A9A:  MOVFF  46,45D
.................... 		buff[3]=current.serial_lsb; 
4A9E:  MOVFF  47,45E
.................... 		buff[4]=26; /* packet length */ 
4AA2:  MOVLW  1A
4AA4:  MOVWF  x5F
.................... 		buff[5]=36; /* packet type */ 
4AA6:  MOVLW  24
4AA8:  MOVWF  x60
....................  
.................... 		if ( ANEMOMETER_TYPE_THIES == current.anemometer_type ) { 
4AAA:  DECFSZ 4E,W
4AAC:  BRA    4AF0
.................... 			/* scale Thies anemometer frequency to #40HC recipricol frequency */ 
.................... 			l=anemometer_thies_to_40HC(pulse_period); 
4AAE:  MOVFF  5A1,5A7
4AB2:  MOVFF  5A0,5A6
4AB6:  MOVLB  0
4AB8:  RCALL  4660
4ABA:  MOVFF  02,59F
4ABE:  MOVFF  01,59E
.................... 			buff[6]=make8(l,1); /* wind speed */ 
4AC2:  MOVFF  59F,461
4AC6:  MOVLB  4
.................... 			buff[7]=make8(l,0); 
4AC8:  MOVFF  59E,462
4ACC:  MOVLB  4
....................  
.................... 			l=anemometer_thies_to_40HC(pulse_min_period); 
4ACE:  MOVFF  5A3,5A7
4AD2:  MOVFF  5A2,5A6
4AD6:  MOVLB  0
4AD8:  RCALL  4660
4ADA:  MOVFF  02,59F
4ADE:  MOVFF  01,59E
.................... 			buff[8]=make8(l,1); /* wind gust */ 
4AE2:  MOVFF  59F,463
4AE6:  MOVLB  4
.................... 			buff[9]=make8(l,0); 
4AE8:  MOVFF  59E,464
4AEC:  MOVLB  4
.................... 		} else { 
4AEE:  BRA    4B08
.................... 			buff[6]=make8(pulse_period,1); /* wind speed */ 
4AF0:  MOVFF  5A1,461
4AF4:  MOVLB  4
.................... 			buff[7]=make8(pulse_period,0); 
4AF6:  MOVFF  5A0,462
4AFA:  MOVLB  4
.................... 			buff[8]=make8(pulse_min_period,1); /* wind gust */ 
4AFC:  MOVFF  5A3,463
4B00:  MOVLB  4
.................... 			buff[9]=make8(pulse_min_period,0);  
4B02:  MOVFF  5A2,464
4B06:  MOVLB  4
.................... 		} 
.................... 		buff[10]=make8(pulse_count,1); /* wind pulse count */ 
4B08:  MOVFF  5A5,465
4B0C:  MOVLB  4
.................... 		buff[11]=make8(pulse_count,0);  
4B0E:  MOVFF  5A4,466
4B12:  MOVLB  4
....................  
.................... 		/* second anemometer not yet implemented */ 
.................... 		buff[12]=buff[13]=buff[14]=buff[15]=buff[16]=buff[17]=0; 
4B14:  CLRF   x6C
4B16:  MOVFF  46C,46B
4B1A:  MOVFF  46B,46A
4B1E:  MOVFF  46A,469
4B22:  MOVFF  469,468
4B26:  MOVFF  468,467
....................  
....................  
.................... 		/* if CMPS12 as wind direction source, put: 
.................... 		    bearing in place of analog0,  
....................             pitch in place of analog1 MSB,  
.................... 		    roll in place of of analog1 LSB 
.................... 		*/ 
.................... 		if ( WIND_DIRECTION_SOURCE_CMPS12 == current.wind_direction_source ) { 
4B2A:  DECFSZ 51,W
4B2C:  BRA    4B56
.................... 			/* use CMPS12 direction instead of analog0 */	 
.................... 			buff[18]=make8(current.wind_direction_degrees,1); 
4B2E:  MOVFF  55,46D
.................... 			buff[19]=make8(current.wind_direction_degrees,0); 
4B32:  MOVFF  54,46E
....................  
.................... 			buff[20]=cmps12_get_int8(CMPS12_REG_PITCH); 
4B36:  MOVLW  04
4B38:  MOVLB  5
4B3A:  MOVWF  xC1
4B3C:  MOVLB  0
4B3E:  RCALL  46A2
4B40:  MOVFF  01,46F
.................... 			buff[21]=cmps12_get_int8(CMPS12_REG_ROLL); 
4B44:  MOVLW  05
4B46:  MOVLB  5
4B48:  MOVWF  xC1
4B4A:  MOVLB  0
4B4C:  RCALL  46A2
4B4E:  MOVFF  01,470
.................... 		} else { 
4B52:  BRA    4B68
4B54:  MOVLB  4
.................... 			/* analog0 */ 
.................... 			buff[18]=make8(current.analog0_adc,1); 
4B56:  MOVFF  42,46D
.................... 			buff[19]=make8(current.analog0_adc,0); 
4B5A:  MOVFF  41,46E
....................  
.................... 			/* analog1 */ 
.................... 			buff[20]=make8(current.analog1_adc,1); 
4B5E:  MOVFF  44,46F
.................... 			buff[21]=make8(current.analog1_adc,0); 
4B62:  MOVFF  43,470
4B66:  MOVLB  0
.................... 		} 
....................  
.................... 		/* battery */ 
.................... 		buff[22]=make8(current.input_voltage_adc,1); 
4B68:  MOVFF  3E,471
4B6C:  MOVLB  4
.................... 		buff[23]=make8(current.input_voltage_adc,0); 
4B6E:  MOVFF  3D,472
....................  
.................... 		lCRC=crc_chk(buff+1,23); 
4B72:  MOVLW  04
4B74:  MOVLB  5
4B76:  MOVWF  xA7
4B78:  MOVLW  5C
4B7A:  MOVWF  xA6
4B7C:  MOVLW  17
4B7E:  MOVWF  xA8
4B80:  MOVLB  0
4B82:  CALL   4128
4B86:  MOVFF  02,59C
4B8A:  MOVFF  01,59B
.................... 		buff[24]=make8(lCRC,1); 
4B8E:  MOVFF  59C,473
4B92:  MOVLB  4
.................... 		buff[25]=make8(lCRC,0); 
4B94:  MOVFF  59B,474
4B98:  MOVLB  4
.................... 	} else { 
4B9A:  BRA    4C5E
4B9C:  MOVLB  0
.................... 		/* normal RD Logger Cell */ 
.................... /*  
.................... '#'             0  STX 
.................... UNIT ID PREFIX  1  First character (A-Z) for serial number 
.................... UNIT ID MSB     2  high byte of sending station ID 
.................... UNIT ID LSB     3  low byte of sending station ID 
.................... PACKET LENGTH   4  number of byte for packet including STX through CRC (13) 
.................... PACKET TYPE     5  type of packet we are sending (0x07) 
.................... WS MSB          6  high byte of wind speed time 
.................... WS LSB          7  low byte of wind speed time 
.................... WG MSB          8  high byte of wind gust time 
.................... WG LSB          9  low byte of wind gust time 
.................... BATT / WD       10 battery state of charge and wind direction sector 
.................... WC MSB          11 high byte of wind pulse count 
.................... WC LSB          12 low byte of wind pulse count 
.................... CRC MSB         13 high byte of CRC on everything after STX and before CRC 
.................... CRC LSB         14 low byte of CRC  
.................... */ 
....................  
.................... //	output_high(WV1_FILTERED); 
....................  
....................  
.................... 		buff[0]='#'; 
4B9E:  MOVLW  23
4BA0:  MOVLB  4
4BA2:  MOVWF  x5B
.................... 		buff[1]=current.serial_prefix; 
4BA4:  MOVFF  45,45C
.................... 		buff[2]=current.serial_msb; 
4BA8:  MOVFF  46,45D
.................... 		buff[3]=current.serial_lsb; 
4BAC:  MOVFF  47,45E
.................... 		buff[4]=15; /* packet length */ 
4BB0:  MOVLW  0F
4BB2:  MOVWF  x5F
.................... 		buff[5]=0x07; /* packet type */ 
4BB4:  MOVLW  07
4BB6:  MOVWF  x60
....................  
.................... 		if ( ANEMOMETER_TYPE_THIES == current.anemometer_type ) { 
4BB8:  DECFSZ 4E,W
4BBA:  BRA    4BFE
.................... 			/* scale Thies anemometer frequency to #40HC recipricol frequency */ 
.................... 			l=anemometer_thies_to_40HC(pulse_period); 
4BBC:  MOVFF  5A1,5A7
4BC0:  MOVFF  5A0,5A6
4BC4:  MOVLB  0
4BC6:  RCALL  4660
4BC8:  MOVFF  02,59F
4BCC:  MOVFF  01,59E
.................... 			buff[6]=make8(l,1); /* wind speed */ 
4BD0:  MOVFF  59F,461
4BD4:  MOVLB  4
.................... 			buff[7]=make8(l,0); 
4BD6:  MOVFF  59E,462
4BDA:  MOVLB  4
....................  
.................... 			l=anemometer_thies_to_40HC(pulse_min_period); 
4BDC:  MOVFF  5A3,5A7
4BE0:  MOVFF  5A2,5A6
4BE4:  MOVLB  0
4BE6:  RCALL  4660
4BE8:  MOVFF  02,59F
4BEC:  MOVFF  01,59E
.................... 			buff[8]=make8(l,1); /* wind gust */ 
4BF0:  MOVFF  59F,463
4BF4:  MOVLB  4
.................... 			buff[9]=make8(l,0); 
4BF6:  MOVFF  59E,464
4BFA:  MOVLB  4
.................... 		} else { 
4BFC:  BRA    4C16
.................... 			buff[6]=make8(pulse_period,1); /* wind speed */ 
4BFE:  MOVFF  5A1,461
4C02:  MOVLB  4
.................... 			buff[7]=make8(pulse_period,0); 
4C04:  MOVFF  5A0,462
4C08:  MOVLB  4
.................... 			buff[8]=make8(pulse_min_period,1); /* wind gust */ 
4C0A:  MOVFF  5A3,463
4C0E:  MOVLB  4
.................... 			buff[9]=make8(pulse_min_period,0);  
4C10:  MOVFF  5A2,464
4C14:  MOVLB  4
.................... 		} 
.................... 		buff[10]=(current.battery_charge<<4) + (current.wind_direction_sector & 0x0F); /* battery % full, wind direction sector */ 
4C16:  SWAPF  40,W
4C18:  MOVLB  5
4C1A:  MOVWF  xA6
4C1C:  MOVLW  F0
4C1E:  ANDWF  xA6,F
4C20:  MOVF   3F,W
4C22:  ANDLW  0F
4C24:  ADDWF  xA6,W
4C26:  MOVLB  4
4C28:  MOVWF  x65
.................... 		buff[11]=make8(pulse_count,1); /* wind pulse count */ 
4C2A:  MOVFF  5A5,466
4C2E:  MOVLB  4
.................... 		buff[12]=make8(pulse_count,0);  
4C30:  MOVFF  5A4,467
4C34:  MOVLB  4
....................  
.................... 		lCRC=crc_chk(buff+1,12); 
4C36:  MOVLW  04
4C38:  MOVLB  5
4C3A:  MOVWF  xA7
4C3C:  MOVLW  5C
4C3E:  MOVWF  xA6
4C40:  MOVLW  0C
4C42:  MOVWF  xA8
4C44:  MOVLB  0
4C46:  CALL   4128
4C4A:  MOVFF  02,59C
4C4E:  MOVFF  01,59B
.................... 		buff[13]=make8(lCRC,1); 
4C52:  MOVFF  59C,468
4C56:  MOVLB  4
.................... 		buff[14]=make8(lCRC,0); 
4C58:  MOVFF  59B,469
4C5C:  MOVLB  4
.................... 	} 
....................  
.................... #if ! DEBUG_HUMAN_OUTPUT 
.................... 	/* send to wireless modem */ 
.................... 	for ( i=0 ; i<buff[4] ; i++ ) { 
4C5E:  MOVLB  5
4C60:  CLRF   x9D
4C62:  MOVLB  4
4C64:  MOVF   x5F,W
4C66:  MOVLB  5
4C68:  SUBWF  x9D,W
4C6A:  BC    4C8A
.................... 		/* xbee modem */ 
.................... 		fputc(buff[i],stream_wireless); 
4C6C:  CLRF   03
4C6E:  MOVF   x9D,W
4C70:  ADDLW  5B
4C72:  MOVWF  FE9
4C74:  MOVLW  04
4C76:  ADDWFC 03,W
4C78:  MOVWF  FEA
4C7A:  MOVFF  FEF,5A6
4C7E:  MOVF   xA6,W
4C80:  MOVLB  0
4C82:  RCALL  46BA
.................... 	} 
4C84:  MOVLB  5
4C86:  INCF   x9D,F
4C88:  BRA    4C62
.................... #endif	 
....................  
.................... 	/* modem will automatically shut off when countdown done */ 
....................  
....................  
.................... 	if ( SD_LOG_RATE_10 == current.sd_log_rate ) { 
4C8A:  DECFSZ 50,W
4C8C:  BRA    51BA
.................... 		/* write to SD card */ 
.................... 		/* decimal for human readability and for mmcDaughter */ 
.................... 		sprintf(buff_decimal,"20%02u-%02u-%02u %02u:%02u:%02u,%lu,%lu,%lu,%lu,%lu,%lu,%c%lu", 
.................... 			timers.year,  
.................... 			timers.month,  
.................... 			timers.day,  
.................... 			timers.hour,  
.................... 			timers.minute,  
.................... 			timers.second,  /* only present in 10 second SD logged */ 
.................... 			pulse_period,  
.................... 			pulse_min_period,  
.................... 			pulse_count,  
.................... 			current.input_voltage_adc, 
.................... 			current.analog0_adc, 
.................... 			current.uptime, 
.................... 			current.serial_prefix, 
.................... 			make16(current.serial_msb,current.serial_lsb) 
.................... 		); 
4C8E:  MOVFF  46,5A7
4C92:  MOVFF  47,5A6
4C96:  MOVLW  04
4C98:  MOVLB  4
4C9A:  MOVWF  x19
4C9C:  MOVLW  9B
4C9E:  MOVWF  x18
4CA0:  MOVLW  32
4CA2:  MOVLB  5
4CA4:  MOVWF  xCB
4CA6:  MOVLB  0
4CA8:  CALL   24A8
4CAC:  MOVLW  30
4CAE:  MOVLB  5
4CB0:  MOVWF  xCB
4CB2:  MOVLB  0
4CB4:  CALL   24A8
4CB8:  MOVFF  187,5C2
4CBC:  MOVLW  01
4CBE:  MOVLB  5
4CC0:  MOVWF  xC3
4CC2:  MOVLB  0
4CC4:  RCALL  46C2
4CC6:  MOVLW  2D
4CC8:  MOVLB  5
4CCA:  MOVWF  xCB
4CCC:  MOVLB  0
4CCE:  CALL   24A8
4CD2:  MOVFF  186,5C2
4CD6:  MOVLW  01
4CD8:  MOVLB  5
4CDA:  MOVWF  xC3
4CDC:  MOVLB  0
4CDE:  RCALL  46C2
4CE0:  MOVLW  2D
4CE2:  MOVLB  5
4CE4:  MOVWF  xCB
4CE6:  MOVLB  0
4CE8:  CALL   24A8
4CEC:  MOVFF  185,5C2
4CF0:  MOVLW  01
4CF2:  MOVLB  5
4CF4:  MOVWF  xC3
4CF6:  MOVLB  0
4CF8:  RCALL  46C2
4CFA:  MOVLW  20
4CFC:  MOVLB  5
4CFE:  MOVWF  xCB
4D00:  MOVLB  0
4D02:  CALL   24A8
4D06:  MOVFF  182,5C2
4D0A:  MOVLW  01
4D0C:  MOVLB  5
4D0E:  MOVWF  xC3
4D10:  MOVLB  0
4D12:  RCALL  46C2
4D14:  MOVLW  3A
4D16:  MOVLB  5
4D18:  MOVWF  xCB
4D1A:  MOVLB  0
4D1C:  CALL   24A8
4D20:  MOVFF  183,5C2
4D24:  MOVLW  01
4D26:  MOVLB  5
4D28:  MOVWF  xC3
4D2A:  MOVLB  0
4D2C:  RCALL  46C2
4D2E:  MOVLW  3A
4D30:  MOVLB  5
4D32:  MOVWF  xCB
4D34:  MOVLB  0
4D36:  CALL   24A8
4D3A:  MOVFF  184,5C2
4D3E:  MOVLW  01
4D40:  MOVLB  5
4D42:  MOVWF  xC3
4D44:  MOVLB  0
4D46:  RCALL  46C2
4D48:  MOVLW  2C
4D4A:  MOVLB  5
4D4C:  MOVWF  xCB
4D4E:  MOVLB  0
4D50:  CALL   24A8
4D54:  MOVLW  10
4D56:  MOVWF  FE9
4D58:  MOVFF  5A1,5C3
4D5C:  MOVFF  5A0,5C2
4D60:  CALL   24CA
4D64:  MOVLW  2C
4D66:  MOVLB  5
4D68:  MOVWF  xCB
4D6A:  MOVLB  0
4D6C:  CALL   24A8
4D70:  MOVLW  10
4D72:  MOVWF  FE9
4D74:  MOVFF  5A3,5C3
4D78:  MOVFF  5A2,5C2
4D7C:  CALL   24CA
4D80:  MOVLW  2C
4D82:  MOVLB  5
4D84:  MOVWF  xCB
4D86:  MOVLB  0
4D88:  CALL   24A8
4D8C:  MOVLW  10
4D8E:  MOVWF  FE9
4D90:  MOVFF  5A5,5C3
4D94:  MOVFF  5A4,5C2
4D98:  CALL   24CA
4D9C:  MOVLW  2C
4D9E:  MOVLB  5
4DA0:  MOVWF  xCB
4DA2:  MOVLB  0
4DA4:  CALL   24A8
4DA8:  MOVLW  10
4DAA:  MOVWF  FE9
4DAC:  MOVFF  3E,5C3
4DB0:  MOVFF  3D,5C2
4DB4:  CALL   24CA
4DB8:  MOVLW  2C
4DBA:  MOVLB  5
4DBC:  MOVWF  xCB
4DBE:  MOVLB  0
4DC0:  CALL   24A8
4DC4:  MOVLW  10
4DC6:  MOVWF  FE9
4DC8:  MOVFF  42,5C3
4DCC:  MOVFF  41,5C2
4DD0:  CALL   24CA
4DD4:  MOVLW  2C
4DD6:  MOVLB  5
4DD8:  MOVWF  xCB
4DDA:  MOVLB  0
4DDC:  CALL   24A8
4DE0:  MOVLW  10
4DE2:  MOVWF  FE9
4DE4:  MOVFF  4C,5C3
4DE8:  MOVFF  4B,5C2
4DEC:  CALL   24CA
4DF0:  MOVLW  2C
4DF2:  MOVLB  5
4DF4:  MOVWF  xCB
4DF6:  MOVLB  0
4DF8:  CALL   24A8
4DFC:  MOVFF  45,5CB
4E00:  CALL   24A8
4E04:  MOVLW  10
4E06:  MOVWF  FE9
4E08:  MOVFF  5A7,5C3
4E0C:  MOVFF  5A6,5C2
4E10:  CALL   24CA
....................  
.................... 		for ( i=0 ; i<strlen(buff_decimal) ; i++ ) { 
4E14:  MOVLB  5
4E16:  CLRF   x9D
4E18:  MOVLW  04
4E1A:  MOVWF  xA7
4E1C:  MOVLW  9B
4E1E:  MOVWF  xA6
4E20:  MOVLB  0
4E22:  RCALL  4748
4E24:  MOVF   01,W
4E26:  MOVLB  5
4E28:  SUBWF  x9D,W
4E2A:  BC    4E56
.................... 			/* rdLogger via builtin UART2 */ 
.................... 			fputc(buff_decimal[i],stream_sd); 
4E2C:  CLRF   03
4E2E:  MOVF   x9D,W
4E30:  ADDLW  9B
4E32:  MOVWF  FE9
4E34:  MOVLW  04
4E36:  ADDWFC 03,W
4E38:  MOVWF  FEA
4E3A:  MOVFF  FEF,5A6
4E3E:  MOVF   xA6,W
4E40:  MOVLB  0
4E42:  RCALL  4782
.................... 			delay_ms(1); 
4E44:  MOVLW  01
4E46:  MOVLB  5
4E48:  MOVWF  xA6
4E4A:  MOVLB  0
4E4C:  CALL   1E58
.................... 		} 
....................  
.................... #if DEBUG_HUMAN_OUTPUT 
4E50:  MOVLB  5
4E52:  INCF   x9D,F
4E54:  BRA    4E18
.................... 	printf(stream_wireless,"%c%lu,",current.serial_prefix,make16(current.serial_msb,current.serial_lsb));  
....................  
.................... 		for ( i=0 ; i<strlen(buff_decimal) ; i++ ) { 
.................... 			fputc(buff_decimal[i],stream_wireless); 
.................... 		} 
.................... #endif 
....................  
....................  
....................  
.................... 		if ( WIND_DIRECTION_SOURCE_CMPS12 == current.wind_direction_source )  { 
4E56:  DECFSZ 51,W
4E58:  BRA    51B0
.................... 			/* add the following columns after serial number if CMPS12 module is the wind direction source: 
.................... 			wind direction	bearing * 10	pitch	roll	mag x	mag y	mag z	accel x	accel y	accell z	gyro x	gyro y	gyro z	bosch compass	temp	pitch	cal state 
.................... 			*/ 
.................... 			sprintf(buff_decimal,",%lu,%lu,%d,%d,%lu,%lu,%lu,%lu,%lu,%lu,%lu,%lu,%lu,%lu,%d,%ld,%u", 
.................... 				current.wind_direction_degrees, 
.................... 				cmps12_get_int16(CMPS12_REG_BEARING_MSB), 
.................... 			 
.................... 				cmps12_get_int8(CMPS12_REG_PITCH), 
.................... 				cmps12_get_int8(CMPS12_REG_ROLL), 
.................... 			 
.................... 				cmps12_get_int16(CMPS12_REG_MAGNETOMETER_X_MSB), 
.................... 				cmps12_get_int16(CMPS12_REG_MAGNETOMETER_Y_MSB), 
.................... 				cmps12_get_int16(CMPS12_REG_MAGNETOMETER_Z_MSB), 
.................... 		 
.................... 				cmps12_get_int16(CMPS12_REG_ACCELEROMETER_X_MSB), 
.................... 				cmps12_get_int16(CMPS12_REG_ACCELEROMETER_Y_MSB), 
.................... 				cmps12_get_int16(CMPS12_REG_ACCELEROMETER_Z_MSB), 
....................  
.................... 				cmps12_get_int16(CMPS12_REG_GYRO_X_MSB), 
.................... 				cmps12_get_int16(CMPS12_REG_GYRO_Y_MSB), 
.................... 				cmps12_get_int16(CMPS12_REG_GYRO_Z_MSB), 
....................  
.................... 				cmps12_get_int16(CMPS12_REG_BNO055_COMPASS_MSB),	 
....................  
.................... 				cmps12_get_int8(CMPS12_REG_TEMPERATURE_LSB), 
....................  
.................... 				cmps12_get_int16(CMPS12_REG_PITCH_ANGLE_MSB), 
....................  
.................... 				cmps12_get_int8(CMPS12_REG_CALIBRATION_STATE)	 
.................... 			); 
4E5A:  MOVLW  02
4E5C:  MOVWF  xBF
4E5E:  MOVLB  0
4E60:  CALL   3B72
4E64:  MOVFF  02,5A7
4E68:  MOVFF  01,5A6
4E6C:  MOVLW  04
4E6E:  MOVLB  5
4E70:  MOVWF  xC1
4E72:  MOVLB  0
4E74:  RCALL  46A2
4E76:  MOVFF  01,5A8
4E7A:  MOVLW  05
4E7C:  MOVLB  5
4E7E:  MOVWF  xC1
4E80:  MOVLB  0
4E82:  RCALL  46A2
4E84:  MOVFF  01,5A9
4E88:  MOVLW  06
4E8A:  MOVLB  5
4E8C:  MOVWF  xBF
4E8E:  MOVLB  0
4E90:  CALL   3B72
4E94:  MOVFF  02,5AB
4E98:  MOVFF  01,5AA
4E9C:  MOVLW  08
4E9E:  MOVLB  5
4EA0:  MOVWF  xBF
4EA2:  MOVLB  0
4EA4:  CALL   3B72
4EA8:  MOVFF  02,5AD
4EAC:  MOVFF  01,5AC
4EB0:  MOVLW  0A
4EB2:  MOVLB  5
4EB4:  MOVWF  xBF
4EB6:  MOVLB  0
4EB8:  CALL   3B72
4EBC:  MOVFF  02,5AF
4EC0:  MOVFF  01,5AE
4EC4:  MOVLW  0C
4EC6:  MOVLB  5
4EC8:  MOVWF  xBF
4ECA:  MOVLB  0
4ECC:  CALL   3B72
4ED0:  MOVFF  02,5B1
4ED4:  MOVFF  01,5B0
4ED8:  MOVLW  0E
4EDA:  MOVLB  5
4EDC:  MOVWF  xBF
4EDE:  MOVLB  0
4EE0:  CALL   3B72
4EE4:  MOVFF  02,5B3
4EE8:  MOVFF  01,5B2
4EEC:  MOVLW  10
4EEE:  MOVLB  5
4EF0:  MOVWF  xBF
4EF2:  MOVLB  0
4EF4:  CALL   3B72
4EF8:  MOVFF  02,5B5
4EFC:  MOVFF  01,5B4
4F00:  MOVLW  12
4F02:  MOVLB  5
4F04:  MOVWF  xBF
4F06:  MOVLB  0
4F08:  CALL   3B72
4F0C:  MOVFF  02,5B7
4F10:  MOVFF  01,5B6
4F14:  MOVLW  14
4F16:  MOVLB  5
4F18:  MOVWF  xBF
4F1A:  MOVLB  0
4F1C:  CALL   3B72
4F20:  MOVFF  02,5B9
4F24:  MOVFF  01,5B8
4F28:  MOVLW  16
4F2A:  MOVLB  5
4F2C:  MOVWF  xBF
4F2E:  MOVLB  0
4F30:  CALL   3B72
4F34:  MOVFF  02,5BB
4F38:  MOVFF  01,5BA
4F3C:  MOVLW  1A
4F3E:  MOVLB  5
4F40:  MOVWF  xBF
4F42:  MOVLB  0
4F44:  CALL   3B72
4F48:  MOVFF  02,5BD
4F4C:  MOVFF  01,5BC
4F50:  MOVLW  19
4F52:  MOVLB  5
4F54:  MOVWF  xC1
4F56:  MOVLB  0
4F58:  CALL   46A2
4F5C:  MOVFF  01,5BE
4F60:  MOVLW  1C
4F62:  MOVLB  5
4F64:  MOVWF  xBF
4F66:  MOVLB  0
4F68:  CALL   3B72
4F6C:  MOVFF  02,5C0
4F70:  MOVFF  01,5BF
4F74:  MOVLW  1E
4F76:  MOVLB  5
4F78:  MOVWF  xC1
4F7A:  MOVLB  0
4F7C:  CALL   46A2
4F80:  MOVFF  01,5C1
4F84:  MOVLW  04
4F86:  MOVLB  4
4F88:  MOVWF  x19
4F8A:  MOVLW  9B
4F8C:  MOVWF  x18
4F8E:  MOVLW  2C
4F90:  MOVLB  5
4F92:  MOVWF  xCB
4F94:  MOVLB  0
4F96:  CALL   24A8
4F9A:  MOVLW  10
4F9C:  MOVWF  FE9
4F9E:  MOVFF  55,5C3
4FA2:  MOVFF  54,5C2
4FA6:  CALL   24CA
4FAA:  MOVLW  2C
4FAC:  MOVLB  5
4FAE:  MOVWF  xCB
4FB0:  MOVLB  0
4FB2:  CALL   24A8
4FB6:  MOVLW  10
4FB8:  MOVWF  FE9
4FBA:  MOVFF  5A7,5C3
4FBE:  MOVFF  5A6,5C2
4FC2:  CALL   24CA
4FC6:  MOVLW  2C
4FC8:  MOVLB  5
4FCA:  MOVWF  xCB
4FCC:  MOVLB  0
4FCE:  CALL   24A8
4FD2:  MOVFF  5A8,5C2
4FD6:  MOVLW  18
4FD8:  MOVLB  5
4FDA:  MOVWF  xC3
4FDC:  MOVLB  0
4FDE:  CALL   478A
4FE2:  MOVLW  2C
4FE4:  MOVLB  5
4FE6:  MOVWF  xCB
4FE8:  MOVLB  0
4FEA:  CALL   24A8
4FEE:  MOVFF  5A9,5C2
4FF2:  MOVLW  18
4FF4:  MOVLB  5
4FF6:  MOVWF  xC3
4FF8:  MOVLB  0
4FFA:  CALL   478A
4FFE:  MOVLW  2C
5000:  MOVLB  5
5002:  MOVWF  xCB
5004:  MOVLB  0
5006:  CALL   24A8
500A:  MOVLW  10
500C:  MOVWF  FE9
500E:  MOVFF  5AB,5C3
5012:  MOVFF  5AA,5C2
5016:  CALL   24CA
501A:  MOVLW  2C
501C:  MOVLB  5
501E:  MOVWF  xCB
5020:  MOVLB  0
5022:  CALL   24A8
5026:  MOVLW  10
5028:  MOVWF  FE9
502A:  MOVFF  5AD,5C3
502E:  MOVFF  5AC,5C2
5032:  CALL   24CA
5036:  MOVLW  2C
5038:  MOVLB  5
503A:  MOVWF  xCB
503C:  MOVLB  0
503E:  CALL   24A8
5042:  MOVLW  10
5044:  MOVWF  FE9
5046:  MOVFF  5AF,5C3
504A:  MOVFF  5AE,5C2
504E:  CALL   24CA
5052:  MOVLW  2C
5054:  MOVLB  5
5056:  MOVWF  xCB
5058:  MOVLB  0
505A:  CALL   24A8
505E:  MOVLW  10
5060:  MOVWF  FE9
5062:  MOVFF  5B1,5C3
5066:  MOVFF  5B0,5C2
506A:  CALL   24CA
506E:  MOVLW  2C
5070:  MOVLB  5
5072:  MOVWF  xCB
5074:  MOVLB  0
5076:  CALL   24A8
507A:  MOVLW  10
507C:  MOVWF  FE9
507E:  MOVFF  5B3,5C3
5082:  MOVFF  5B2,5C2
5086:  CALL   24CA
508A:  MOVLW  2C
508C:  MOVLB  5
508E:  MOVWF  xCB
5090:  MOVLB  0
5092:  CALL   24A8
5096:  MOVLW  10
5098:  MOVWF  FE9
509A:  MOVFF  5B5,5C3
509E:  MOVFF  5B4,5C2
50A2:  CALL   24CA
50A6:  MOVLW  2C
50A8:  MOVLB  5
50AA:  MOVWF  xCB
50AC:  MOVLB  0
50AE:  CALL   24A8
50B2:  MOVLW  10
50B4:  MOVWF  FE9
50B6:  MOVFF  5B7,5C3
50BA:  MOVFF  5B6,5C2
50BE:  CALL   24CA
50C2:  MOVLW  2C
50C4:  MOVLB  5
50C6:  MOVWF  xCB
50C8:  MOVLB  0
50CA:  CALL   24A8
50CE:  MOVLW  10
50D0:  MOVWF  FE9
50D2:  MOVFF  5B9,5C3
50D6:  MOVFF  5B8,5C2
50DA:  CALL   24CA
50DE:  MOVLW  2C
50E0:  MOVLB  5
50E2:  MOVWF  xCB
50E4:  MOVLB  0
50E6:  CALL   24A8
50EA:  MOVLW  10
50EC:  MOVWF  FE9
50EE:  MOVFF  5BB,5C3
50F2:  MOVFF  5BA,5C2
50F6:  CALL   24CA
50FA:  MOVLW  2C
50FC:  MOVLB  5
50FE:  MOVWF  xCB
5100:  MOVLB  0
5102:  CALL   24A8
5106:  MOVLW  10
5108:  MOVWF  FE9
510A:  MOVFF  5BD,5C3
510E:  MOVFF  5BC,5C2
5112:  CALL   24CA
5116:  MOVLW  2C
5118:  MOVLB  5
511A:  MOVWF  xCB
511C:  MOVLB  0
511E:  CALL   24A8
5122:  MOVFF  5BE,5C2
5126:  MOVLW  18
5128:  MOVLB  5
512A:  MOVWF  xC3
512C:  MOVLB  0
512E:  CALL   478A
5132:  MOVLW  2C
5134:  MOVLB  5
5136:  MOVWF  xCB
5138:  MOVLB  0
513A:  CALL   24A8
513E:  MOVLW  10
5140:  MOVWF  FE9
5142:  MOVFF  5C0,5C3
5146:  MOVFF  5BF,5C2
514A:  GOTO   4852
514E:  MOVLW  2C
5150:  MOVLB  5
5152:  MOVWF  xCB
5154:  MOVLB  0
5156:  CALL   24A8
515A:  MOVFF  5C1,5C2
515E:  MOVLW  1B
5160:  MOVLB  5
5162:  MOVWF  xC3
5164:  MOVLB  0
5166:  CALL   46C2
....................  
.................... 			for ( i=0 ; i<strlen(buff_decimal) ; i++ ) { 
516A:  MOVLB  5
516C:  CLRF   x9D
516E:  MOVLW  04
5170:  MOVWF  xA7
5172:  MOVLW  9B
5174:  MOVWF  xA6
5176:  MOVLB  0
5178:  CALL   4748
517C:  MOVF   01,W
517E:  MOVLB  5
5180:  SUBWF  x9D,W
5182:  BC    51B0
.................... 				/* rdLogger via builtin UART2 */ 
.................... 				fputc(buff_decimal[i],stream_sd); 
5184:  CLRF   03
5186:  MOVF   x9D,W
5188:  ADDLW  9B
518A:  MOVWF  FE9
518C:  MOVLW  04
518E:  ADDWFC 03,W
5190:  MOVWF  FEA
5192:  MOVFF  FEF,5A6
5196:  MOVF   xA6,W
5198:  MOVLB  0
519A:  CALL   4782
.................... 				delay_ms(1); 
519E:  MOVLW  01
51A0:  MOVLB  5
51A2:  MOVWF  xA6
51A4:  MOVLB  0
51A6:  CALL   1E58
.................... 			} 
....................  
.................... #if DEBUG_HUMAN_OUTPUT 
51AA:  MOVLB  5
51AC:  INCF   x9D,F
51AE:  BRA    516E
.................... 			for ( i=0 ; i<strlen(buff_decimal) ; i++ ) { 
.................... 				fputc(buff_decimal[i],stream_wireless); 
.................... 			} 
.................... #endif 
....................  
....................  
.................... 		} 
....................  
....................  
.................... 		/* terminate with new line */ 
.................... 		fputc('\n',stream_sd); 
51B0:  MOVLW  0A
51B2:  MOVLB  0
51B4:  CALL   4782
51B8:  MOVLB  5
.................... #if DEBUG_HUMAN_OUTPUT 
.................... 		fputc('\n',stream_wireless); 
.................... #endif 
.................... 	} 
....................  
....................  
....................  
.................... //	output_low(WV1_FILTERED); 
.................... } 
51BA:  MOVLB  0
51BC:  GOTO   51F4 (RETURN)
....................  
.................... void liveTask(void) { 
.................... 	static short state=0; 
....................  
.................... 	if ( 0 == state ) { 
51C0:  MOVLB  4
51C2:  BTFSC  x17.7
51C4:  BRA    51DA
.................... 		/* wake up the modem */ 
.................... 		wirelessOn(1); 
51C6:  MOVLW  01
51C8:  MOVWF  x5E
51CA:  MOVLB  0
51CC:  CALL   2424
.................... 		wireless.age_response=0; 
51D0:  CLRF   xFC
51D2:  CLRF   xFB
.................... 		state=1; 
51D4:  MOVLB  4
51D6:  BSF    x17.7
.................... 		return; 
51D8:  BRA    51F8
.................... 	} 
....................  
.................... 	if ( wireless.age_response >= 14 ) { 
51DA:  MOVLB  0
51DC:  MOVF   xFC,F
51DE:  BNZ   51E6
51E0:  MOVF   xFB,W
51E2:  SUBLW  0D
51E4:  BC    51F8
.................... 		/* delay for >=14 milliseconds, then transmit */ 
.................... 		action.now_live=0; 
51E6:  MOVLB  1
51E8:  BCF    x7F.4
.................... 		sample_adc(); 
51EA:  MOVLB  0
51EC:  GOTO   4582
.................... 		live_send(); 
51F0:  GOTO   494A
.................... 		state=0; 
51F4:  MOVLB  4
51F6:  BCF    x17.7
51F8:  MOVLB  0
.................... 	}	 
.................... } 
51FA:  GOTO   7982 (RETURN)
....................  
.................... /*		 
.................... rdLoggerCellStatus packet format 
.................... '#'                 0  STX 
.................... UNIT ID PREFIX      1  First character (A-Z) for serial number 
.................... UNIT ID MSB         2  sending station ID MSB 
.................... UNIT ID LSB         3  sending station ID LSB 
.................... PACKET LENGTH       4  number of byte for packet including STX through CRC (43) 
.................... PACKET TYPE         5  type of packet we are sending (0x08) 
....................  
.................... tPulseTime MSB      6  COUNTER pulse time 
.................... tPulseTime LSB      7  COUNTER pulse time 
.................... tPulseMinTime MSB   8  COUNTER pulse minimum time 
.................... tPulseMinTime LSB   9  COUNTER pulse minimum time 
.................... pulseCount MSB      10 COUNTER pulse count 
.................... pulseCount LSB      11 COUNTER pulse count 
....................  
.................... year                12 RTC year 
.................... month               13 RTC month 
.................... day                 14 RTC day 
.................... hour                15 RTC hour 
.................... minute              16 RTC minute 
.................... second              17 RTC second 
....................  
.................... dataflashReadStatus 18 DATAFLASH status (172 is normal) 
.................... dataflashPage MSB   19 DATAFLASH last page being used 
.................... dataflashPage LSB   20 DATAFLASH last page being used 
....................  
.................... adcInputVoltage MSB 21 ADC input voltage (10 bits spanning 0 to 40 volts) 
.................... adcInputVoltage LSB 22 ADC input voltage (10 bits spanning 0 to 40 volts) 
.................... sdStatus            23 SD status 
....................  
.................... latitude AEXP       24 GPS latitude 8-bit biased exponent 
.................... latitude AARGB0     25 GPS latitude MSB of mantissa 
.................... latitude AARGB1     26 GPS latitude mantissa middle byte 
.................... latitude AARGB2     27 GPS latitude LSB of mantissa  
.................... longitude AEXP      28 GPS longitude 8-bit biased exponent 
.................... longitude AARGB0    29 GPS longitude MSB of mantissa 
.................... longitude AARGB1    30 GPS longitude mantissa middle byte 
.................... longitude AARGB2    31 GPS longitude LSB of mantissa  
....................  
.................... windDirectionSector 32 Wind direction sector 
.................... gprsState           33 GPRS connection state 
.................... gprsUptime MSB      34 GPRS uptime minutes  
.................... gprsUptime LSB      35 
.................... compileYear         36 Firmware compiled year 
.................... compileMonth        37 Firmware compiled month 
.................... compileDay          38 Firmware compiled day 
....................  
.................... uptime MSB          39 unit uptime minutes 
.................... uptime LSB          40 
....................  
.................... CRC MSB             41 high byte of CRC on everything after STX and before CRC 
.................... CRC LSB             42 low byte of CRC 
....................  
.................... */ 
....................  
.................... void live_send_status(void) { 
.................... 	int8 buff[43]; 
.................... 	int16 lCRC; 
.................... 	int8 i; 
.................... 	int8 *p; 
....................  
.................... 	buff[0]='#'; 
*
5292:  MOVLW  23
5294:  MOVLB  4
5296:  MOVWF  x5B
.................... 	buff[1]=current.serial_prefix; 
5298:  MOVFF  45,45C
.................... 	buff[2]=current.serial_msb; 
529C:  MOVFF  46,45D
.................... 	buff[3]=current.serial_lsb; 
52A0:  MOVFF  47,45E
.................... 	buff[4]=sizeof(buff); /* packet length */ 
52A4:  MOVLW  2B
52A6:  MOVWF  x5F
.................... 	buff[5]=0x08; /* packet type */ 
52A8:  MOVLW  08
52AA:  MOVWF  x60
....................  
.................... 	buff[6]=make8(current.pulse_period,1); /* wind speed */ 
52AC:  MOVFF  36,461
.................... 	buff[7]=make8(current.pulse_period,0); 
52B0:  MOVFF  35,462
.................... 	buff[8]=make8(current.pulse_min_period,1); /* wind gust */ 
52B4:  MOVFF  38,463
.................... 	buff[9]=make8(current.pulse_min_period,0);  
52B8:  MOVFF  37,464
.................... 	buff[10]=make8(current.pulse_count_live,1); /* wind pulse count */ 
52BC:  MOVFF  3C,465
.................... 	buff[11]=make8(current.pulse_count_live,0);  
52C0:  MOVFF  3B,466
....................  
.................... 	buff[12]=timers.year; 
52C4:  MOVFF  187,467
.................... 	buff[13]=timers.month; 
52C8:  MOVFF  186,468
.................... 	buff[14]=timers.day; 
52CC:  MOVFF  185,469
.................... 	buff[15]=timers.hour; 
52D0:  MOVFF  182,46A
.................... 	buff[16]=timers.minute; 
52D4:  MOVFF  183,46B
.................... 	buff[17]=timers.second; 
52D8:  MOVFF  184,46C
....................  
.................... 	buff[18]=dataflash_read_status(); 
*
5302:  MOVFF  01,46D
.................... 	buff[19]=read_ext_fram(FRAM_ADDR_DATAFLASH_PAGE+0); 
5306:  MOVLB  5
5308:  CLRF   x7B
530A:  MOVLW  02
530C:  MOVWF  x7A
530E:  MOVLB  0
5310:  RCALL  51FE
5312:  MOVFF  01,46E
.................... 	buff[20]=read_ext_fram(FRAM_ADDR_DATAFLASH_PAGE+1); 
5316:  MOVLB  5
5318:  CLRF   x7B
531A:  MOVLW  03
531C:  MOVWF  x7A
531E:  MOVLB  0
5320:  RCALL  51FE
5322:  MOVFF  01,46F
....................  
.................... 	buff[21]=make8(current.input_voltage_adc,1); 
5326:  MOVFF  3E,470
532A:  MOVLB  4
.................... 	buff[22]=make8(current.input_voltage_adc,0); 
532C:  MOVFF  3D,471
.................... 	buff[23]=input(MMC_STATUS_TO_HOST); 
5330:  BSF    F96.1
5332:  CLRF   x72
5334:  BTFSC  F84.1
5336:  INCF   x72,F
....................  
.................... 	p=(int8 *)&gps.latitude; 
5338:  MOVLW  01
533A:  MOVWF  x8C
533C:  MOVLW  8F
533E:  MOVFF  48C,48A
5342:  MOVWF  x89
.................... 	buff[24]=p[0]; 
5344:  MOVFF  489,FE9
5348:  MOVFF  48A,FEA
534C:  MOVFF  FEF,473
.................... 	buff[25]=p[1]; 
5350:  MOVLW  01
5352:  ADDWF  x89,W
5354:  MOVWF  FE9
5356:  MOVLW  00
5358:  ADDWFC x8A,W
535A:  MOVWF  FEA
535C:  MOVFF  FEF,474
.................... 	buff[26]=p[2]; 
5360:  MOVLW  02
5362:  ADDWF  x89,W
5364:  MOVWF  FE9
5366:  MOVLW  00
5368:  ADDWFC x8A,W
536A:  MOVWF  FEA
536C:  MOVFF  FEF,475
.................... 	buff[27]=p[3]; 
5370:  MOVLW  03
5372:  ADDWF  x89,W
5374:  MOVWF  FE9
5376:  MOVLW  00
5378:  ADDWFC x8A,W
537A:  MOVWF  FEA
537C:  MOVFF  FEF,476
....................  
.................... 	p=(int8 *)&gps.longitude; 
5380:  MOVLW  01
5382:  MOVWF  x8C
5384:  MOVLW  93
5386:  MOVFF  48C,48A
538A:  MOVWF  x89
.................... 	buff[28]=p[0]; 
538C:  MOVFF  489,FE9
5390:  MOVFF  48A,FEA
5394:  MOVFF  FEF,477
.................... 	buff[29]=p[1]; 
5398:  MOVLW  01
539A:  ADDWF  x89,W
539C:  MOVWF  FE9
539E:  MOVLW  00
53A0:  ADDWFC x8A,W
53A2:  MOVWF  FEA
53A4:  MOVFF  FEF,478
.................... 	buff[30]=p[2]; 
53A8:  MOVLW  02
53AA:  ADDWF  x89,W
53AC:  MOVWF  FE9
53AE:  MOVLW  00
53B0:  ADDWFC x8A,W
53B2:  MOVWF  FEA
53B4:  MOVFF  FEF,479
.................... 	buff[31]=p[3]; 
53B8:  MOVLW  03
53BA:  ADDWF  x89,W
53BC:  MOVWF  FE9
53BE:  MOVLW  00
53C0:  ADDWFC x8A,W
53C2:  MOVWF  FEA
53C4:  MOVFF  FEF,47A
....................  
.................... 	buff[32]=current.wind_direction_sector; 
53C8:  MOVFF  3F,47B
.................... 	buff[33]=0; // gprs.state; 
53CC:  CLRF   x7C
.................... 	buff[34]=0; // make8(gprs.uptime,1); 
53CE:  CLRF   x7D
.................... 	buff[35]=0; // make8(gprs.uptime,0); 
53D0:  CLRF   x7E
.................... 	buff[36]=current.compile_year; 
53D2:  MOVFF  48,47F
.................... 	/* low four bits is the compile month, high four bits is the high nibble of the modem on time */ 
.................... 	buff[37]=(current.compile_month&0x0f) + (timers.modem_seconds&0xf0); 
53D6:  MOVF   49,W
53D8:  ANDLW  0F
53DA:  MOVWF  x8B
53DC:  MOVLB  1
53DE:  MOVF   x89,W
53E0:  ANDLW  F0
53E2:  MOVLB  4
53E4:  ADDWF  x8B,W
53E6:  MOVWF  x80
.................... 	buff[38]=current.compile_day; 
53E8:  MOVFF  4A,481
.................... 	buff[39]=make8(current.uptime,1); 
53EC:  MOVFF  4C,482
.................... 	buff[40]=make8(current.uptime,0); 
53F0:  MOVFF  4B,483
....................  
....................  
.................... 	lCRC=crc_chk(buff+1,40); 
53F4:  MOVLW  04
53F6:  MOVLB  5
53F8:  MOVWF  xA7
53FA:  MOVLW  5C
53FC:  MOVWF  xA6
53FE:  MOVLW  28
5400:  MOVWF  xA8
5402:  MOVLB  0
5404:  CALL   4128
5408:  MOVFF  02,487
540C:  MOVFF  01,486
.................... 	buff[41]=make8(lCRC,1); 
5410:  MOVLB  4
5412:  MOVFF  487,484
.................... 	buff[42]=make8(lCRC,0); 
5416:  MOVFF  486,485
....................  
.................... 	for ( i=0 ; i<sizeof(buff) ; i++ ) { 
541A:  CLRF   x88
541C:  MOVF   x88,W
541E:  SUBLW  2A
5420:  BNC   5442
.................... 		/* xbee modem */ 
.................... 		fputc(buff[i],stream_wireless); 
5422:  CLRF   03
5424:  MOVF   x88,W
5426:  ADDLW  5B
5428:  MOVWF  FE9
542A:  MOVLW  04
542C:  ADDWFC 03,W
542E:  MOVWF  FEA
5430:  MOVFF  FEF,48B
5434:  MOVF   x8B,W
5436:  MOVLB  0
5438:  CALL   46BA
.................... 	}	 
543C:  MOVLB  4
543E:  INCF   x88,F
5440:  BRA    541C
....................  
.................... 	/* modem will automatically shut off when countdown done */ 
.................... } 
5442:  MOVLB  0
5444:  GOTO   547A (RETURN)
....................  
.................... void liveStatusTask(void) { 
.................... 	static short state=0; 
....................  
.................... 	if ( 0 == state ) { 
5448:  MOVLB  4
544A:  BTFSC  x53.0
544C:  BRA    5466
.................... 		/* wake up the modem */ 
.................... 		wireless.age_response=0; 
544E:  MOVLB  0
5450:  CLRF   xFC
5452:  CLRF   xFB
.................... 		wirelessOn(1); 
5454:  MOVLW  01
5456:  MOVLB  4
5458:  MOVWF  x5E
545A:  MOVLB  0
545C:  CALL   2424
.................... 		state=1; 
5460:  MOVLB  4
5462:  BSF    x53.0
.................... 		return; 
5464:  BRA    547E
.................... 	} 
....................  
.................... 	if ( wireless.age_response >= 14 ) { 
5466:  MOVLB  0
5468:  MOVF   xFC,F
546A:  BNZ   5472
546C:  MOVF   xFB,W
546E:  SUBLW  0D
5470:  BC    547E
.................... 		/* delay for >=14 milliseconds, then transmit */ 
.................... 		action.now_live_status=0; 
5472:  MOVLB  1
5474:  BCF    x7F.5
.................... 		live_send_status(); 
5476:  MOVLB  0
5478:  BRA    5292
.................... 		state=0; 
547A:  MOVLB  4
547C:  BCF    x53.0
547E:  MOVLB  0
.................... 	}	 
.................... } 
5480:  GOTO   798E (RETURN)
....................  
....................  
....................  
....................  
.................... void basicInit() { 
.................... 	int8 buff[32]; 
....................  
.................... 	setup_oscillator(OSC_8MHZ|OSC_INTRC); 
*
2168:  MOVLW  72
216A:  MOVWF  FD3
216C:  MOVF   FD3,W
.................... 	setup_adc_ports(AN0_TO_AN3 | VSS_VDD); 
216E:  MOVF   FC1,W
2170:  ANDLW  C0
2172:  IORLW  0B
2174:  MOVWF  FC1
.................... 	setup_adc(ADC_CLOCK_INTERNAL); 
2176:  MOVF   FC0,W
2178:  ANDLW  C0
217A:  IORLW  07
217C:  MOVWF  FC0
217E:  BSF    FC0.7
2180:  BSF    FC2.0
....................  
.................... 	action.now_log=0; 
2182:  MOVLB  1
2184:  BCF    x7F.1
.................... 	action.now_log_init=0; 
2186:  BCF    x7F.2
.................... 	action.now_log_mark_downloaded=0; 
2188:  BCF    x7F.3
.................... 	action.now_redraw=1; 
218A:  BSF    x7F.0
.................... 	action.now_live=0; 
218C:  BCF    x7F.4
.................... 	action.now_live_status=0; 
218E:  BCF    x7F.5
.................... 	action.now_gps_update=1; 
2190:  BSF    x80.0
.................... 	action.now_10millisecond=0; 
2192:  BCF    x7F.6
.................... 	action.now_second=0; 
2194:  BCF    x7F.7
....................  
.................... 	action.up_now=0; 
2196:  BCF    x80.2
.................... 	action.down_now=0; 
2198:  BCF    x80.3
.................... 	action.select_now=0; 
219A:  BCF    x80.4
....................  
.................... 	action.port_b=port_b; 
219C:  MOVFF  F81,181
....................  
.................... 	timers.backlight_seconds=BACKLIGHT_TIMEOUT_SECONDS; 
21A0:  MOVLW  1E
21A2:  MOVWF  x88
....................  
.................... 	current.pulse_period=0; 
21A4:  CLRF   36
21A6:  CLRF   35
.................... 	current.pulse_min_period=65535; 
21A8:  SETF   38
21AA:  SETF   37
.................... 	current.pulse_count_live=0; 
21AC:  CLRF   3C
21AE:  CLRF   3B
.................... 	current.pulse_count_log=0; 
21B0:  CLRF   3A
21B2:  CLRF   39
.................... 	current.wind_direction_offset=0; 
21B4:  CLRF   53
21B6:  CLRF   52
....................  
.................... 	timers.pulse_count=0; 
21B8:  CLRF   x8E
21BA:  CLRF   x8D
....................  
....................  
.................... 	/* get our compiled date from constant */ 
.................... 	strcpy(buff,__DATE__); 
21BC:  MOVLW  04
21BE:  MOVWF  FEA
21C0:  MOVLW  5B
21C2:  MOVWF  FE9
21C4:  MOVLW  00
21C6:  MOVLB  0
21C8:  CALL   1476
21CC:  TBLRD*-
21CE:  TBLRD*+
21D0:  MOVF   FF5,W
21D2:  MOVWF  FEE
21D4:  IORLW  00
21D6:  BNZ   21CE
.................... 	current.compile_day =(buff[0]-'0')*10; 
21D8:  MOVLW  30
21DA:  MOVLB  4
21DC:  SUBWF  x5B,W
21DE:  MULLW  0A
21E0:  MOVFF  FF3,4A
.................... 	current.compile_day+=(buff[1]-'0'); 
21E4:  MOVLW  30
21E6:  SUBWF  x5C,W
21E8:  ADDWF  4A,F
.................... 	/* determine month ... how annoying */ 
.................... 	if ( 'J'==buff[3] ) { 
21EA:  MOVF   x5E,W
21EC:  SUBLW  4A
21EE:  BNZ   220E
.................... 		if ( 'A'==buff[4] ) 
21F0:  MOVF   x5F,W
21F2:  SUBLW  41
21F4:  BNZ   21FC
.................... 			current.compile_month=1; 
21F6:  MOVLW  01
21F8:  MOVWF  49
.................... 		else if ( 'N'==buff[5] ) 
21FA:  BRA    220C
21FC:  MOVF   x60,W
21FE:  SUBLW  4E
2200:  BNZ   2208
.................... 			current.compile_month=6; 
2202:  MOVLW  06
2204:  MOVWF  49
.................... 		else 
2206:  BRA    220C
.................... 			current.compile_month=7; 
2208:  MOVLW  07
220A:  MOVWF  49
.................... 	} else if ( 'A'==buff[3] ) { 
220C:  BRA    227C
220E:  MOVF   x5E,W
2210:  SUBLW  41
2212:  BNZ   2226
.................... 		if ( 'P'==buff[4] ) 
2214:  MOVF   x5F,W
2216:  SUBLW  50
2218:  BNZ   2220
.................... 			current.compile_month=4; 
221A:  MOVLW  04
221C:  MOVWF  49
.................... 		else 
221E:  BRA    2224
.................... 			current.compile_month=8; 
2220:  MOVLW  08
2222:  MOVWF  49
.................... 	} else if ( 'M'==buff[3] ) { 
2224:  BRA    227C
2226:  MOVF   x5E,W
2228:  SUBLW  4D
222A:  BNZ   223E
.................... 		if ( 'R'==buff[5] ) 
222C:  MOVF   x60,W
222E:  SUBLW  52
2230:  BNZ   2238
.................... 			current.compile_month=3; 
2232:  MOVLW  03
2234:  MOVWF  49
.................... 		else 
2236:  BRA    223C
.................... 			current.compile_month=5; 
2238:  MOVLW  05
223A:  MOVWF  49
.................... 	} else if ( 'F'==buff[3] ) { 
223C:  BRA    227C
223E:  MOVF   x5E,W
2240:  SUBLW  46
2242:  BNZ   224A
.................... 		current.compile_month=2; 
2244:  MOVLW  02
2246:  MOVWF  49
.................... 	} else if ( 'S'==buff[3] ) { 
2248:  BRA    227C
224A:  MOVF   x5E,W
224C:  SUBLW  53
224E:  BNZ   2256
.................... 		current.compile_month=9; 
2250:  MOVLW  09
2252:  MOVWF  49
.................... 	} else if ( 'O'==buff[3] ) { 
2254:  BRA    227C
2256:  MOVF   x5E,W
2258:  SUBLW  4F
225A:  BNZ   2262
.................... 		current.compile_month=10; 
225C:  MOVLW  0A
225E:  MOVWF  49
.................... 	} else if ( 'N'==buff[3] ) { 
2260:  BRA    227C
2262:  MOVF   x5E,W
2264:  SUBLW  4E
2266:  BNZ   226E
.................... 		current.compile_month=11; 
2268:  MOVLW  0B
226A:  MOVWF  49
.................... 	} else if ( 'D'==buff[3] ) { 
226C:  BRA    227C
226E:  MOVF   x5E,W
2270:  SUBLW  44
2272:  BNZ   227A
.................... 		current.compile_month=12; 
2274:  MOVLW  0C
2276:  MOVWF  49
.................... 	} else { 
2278:  BRA    227C
.................... 		/* error parsing, shouldn't happen */ 
.................... 		current.compile_month=255; 
227A:  SETF   49
.................... 	} 
.................... 	current.compile_year =(buff[7]-'0')*10; 
227C:  MOVLW  30
227E:  SUBWF  x62,W
2280:  MULLW  0A
2282:  MOVFF  FF3,48
.................... 	current.compile_year+=(buff[8]-'0'); 
2286:  MOVLW  30
2288:  SUBWF  x63,W
228A:  ADDWF  48,F
.................... 	current.uptime=0; 
228C:  CLRF   4C
228E:  CLRF   4B
....................  
.................... 	wireless.now_generate_message=0; 
2290:  MOVLB  0
2292:  BCF    x76.0
.................... 	wireless.buff_length=0; 
2294:  CLRF   xF8
2296:  CLRF   xF7
.................... 	wireless.age=65535; 
2298:  SETF   xFA
229A:  SETF   xF9
.................... 	wireless.age_response=65535; 
229C:  SETF   xFC
229E:  SETF   xFB
.................... 	wireless.message_waiting=0; 
22A0:  MOVLB  1
22A2:  BCF    x7E.0
....................  
.................... 	current.serial_prefix=read_eeprom(EE_SERIAL_PREFIX); 
22A4:  MOVFF  FF2,47B
22A8:  BCF    FF2.6
22AA:  BCF    FF2.7
22AC:  CLRF   FAA
22AE:  MOVLW  10
22B0:  MOVWF  FA9
22B2:  BCF    FA6.6
22B4:  BCF    FA6.7
22B6:  BSF    FA6.0
22B8:  MOVF   FA8,W
22BA:  MOVLB  4
22BC:  BTFSC  x7B.6
22BE:  BSF    FF2.6
22C0:  BTFSC  x7B.7
22C2:  BSF    FF2.7
22C4:  MOVWF  45
.................... 	current.serial_msb=read_eeprom(EE_SERIAL_MSB); 
22C6:  MOVFF  FF2,47B
22CA:  BCF    FF2.6
22CC:  BCF    FF2.7
22CE:  CLRF   FAA
22D0:  MOVLW  11
22D2:  MOVWF  FA9
22D4:  BCF    FA6.6
22D6:  BCF    FA6.7
22D8:  BSF    FA6.0
22DA:  MOVF   FA8,W
22DC:  BTFSC  x7B.6
22DE:  BSF    FF2.6
22E0:  BTFSC  x7B.7
22E2:  BSF    FF2.7
22E4:  MOVWF  46
.................... 	current.serial_lsb=read_eeprom(EE_SERIAL_LSB); 
22E6:  MOVFF  FF2,47B
22EA:  BCF    FF2.6
22EC:  BCF    FF2.7
22EE:  CLRF   FAA
22F0:  MOVLW  12
22F2:  MOVWF  FA9
22F4:  BCF    FA6.6
22F6:  BCF    FA6.7
22F8:  BSF    FA6.0
22FA:  MOVF   FA8,W
22FC:  BTFSC  x7B.6
22FE:  BSF    FF2.6
2300:  BTFSC  x7B.7
2302:  BSF    FF2.7
2304:  MOVWF  47
....................  
.................... 	current.hardware_type=read_eeprom(EE_HW_TYPE); 
2306:  MOVFF  FF2,47B
230A:  BCF    FF2.6
230C:  BCF    FF2.7
230E:  CLRF   FAA
2310:  MOVLW  13
2312:  MOVWF  FA9
2314:  BCF    FA6.6
2316:  BCF    FA6.7
2318:  BSF    FA6.0
231A:  MOVF   FA8,W
231C:  BTFSC  x7B.6
231E:  BSF    FF2.6
2320:  BTFSC  x7B.7
2322:  BSF    FF2.7
2324:  MOVWF  4D
.................... 	current.anemometer_type=read_eeprom(EE_ANEMOMETER_TYPE); 
2326:  MOVFF  FF2,47B
232A:  BCF    FF2.6
232C:  BCF    FF2.7
232E:  CLRF   FAA
2330:  MOVLW  14
2332:  MOVWF  FA9
2334:  BCF    FA6.6
2336:  BCF    FA6.7
2338:  BSF    FA6.0
233A:  MOVF   FA8,W
233C:  BTFSC  x7B.6
233E:  BSF    FF2.6
2340:  BTFSC  x7B.7
2342:  BSF    FF2.7
2344:  MOVWF  4E
.................... 	current.sd_log_rate=read_eeprom(EE_SD_LOG_RATE); 
2346:  MOVFF  FF2,47B
234A:  BCF    FF2.6
234C:  BCF    FF2.7
234E:  CLRF   FAA
2350:  MOVLW  15
2352:  MOVWF  FA9
2354:  BCF    FA6.6
2356:  BCF    FA6.7
2358:  BSF    FA6.0
235A:  MOVF   FA8,W
235C:  BTFSC  x7B.6
235E:  BSF    FF2.6
2360:  BTFSC  x7B.7
2362:  BSF    FF2.7
2364:  MOVWF  50
.................... 	current.live_type=read_eeprom(EE_LIVE_TYPE); 
2366:  MOVFF  FF2,47B
236A:  BCF    FF2.6
236C:  BCF    FF2.7
236E:  CLRF   FAA
2370:  MOVLW  16
2372:  MOVWF  FA9
2374:  BCF    FA6.6
2376:  BCF    FA6.7
2378:  BSF    FA6.0
237A:  MOVF   FA8,W
237C:  BTFSC  x7B.6
237E:  BSF    FF2.6
2380:  BTFSC  x7B.7
2382:  BSF    FF2.7
2384:  MOVWF  4F
.................... 	current.wind_direction_source=read_eeprom(EE_WIND_DIRECTION_SOURCE); 
2386:  MOVFF  FF2,47B
238A:  BCF    FF2.6
238C:  BCF    FF2.7
238E:  CLRF   FAA
2390:  MOVLW  17
2392:  MOVWF  FA9
2394:  BCF    FA6.6
2396:  BCF    FA6.7
2398:  BSF    FA6.0
239A:  MOVF   FA8,W
239C:  BTFSC  x7B.6
239E:  BSF    FF2.6
23A0:  BTFSC  x7B.7
23A2:  BSF    FF2.7
23A4:  MOVWF  51
.................... 	current.wind_direction_offset=read_eeprom_int16(EE_WIND_DIRECTION_OFFSET_MSB); 
23A6:  CLRF   x7C
23A8:  MOVLW  18
23AA:  MOVWF  x7B
23AC:  MOVLB  0
23AE:  BRA    1D54
23B0:  MOVFF  02,53
23B4:  MOVFF  01,52
....................  
.................... 	if ( current.wind_direction_offset > 359 ) { 
23B8:  MOVF   53,W
23BA:  SUBLW  00
23BC:  BC    23DC
23BE:  XORLW  FF
23C0:  BNZ   23C8
23C2:  MOVF   52,W
23C4:  SUBLW  67
23C6:  BC    23DC
.................... 		current.wind_direction_offset=0; 
23C8:  CLRF   53
23CA:  CLRF   52
.................... 		write_eeprom_int16(EE_WIND_DIRECTION_OFFSET_MSB,0); 
23CC:  MOVLB  4
23CE:  CLRF   x7C
23D0:  MOVLW  18
23D2:  MOVWF  x7B
23D4:  CLRF   x7E
23D6:  CLRF   x7D
23D8:  MOVLB  0
23DA:  RCALL  1DB8
.................... 	} 
....................  
.................... 	log.page_requested=65535; 
23DC:  MOVLB  4
23DE:  SETF   x03
23E0:  SETF   x02
....................  
....................  
.................... 	/* initialize other devices */ 
.................... 	dataflash_init(); 
23E2:  MOVLB  0
23E4:  BRA    1E32
.................... 	init_ext_fram(); 
23E6:  BRA    1E50
.................... 	lcd_init(); 
23E8:  BRA    1F02
....................  
.................... 	init_rtc(); 
23EA:  BRA    2028
.................... 	if ( bcd2bin(read_rtc(0x06)) < 5 ) { 
23EC:  MOVLW  06
23EE:  MOVLB  4
23F0:  MOVWF  x7B
23F2:  MOVLB  0
23F4:  RCALL  2086
23F6:  MOVFF  01,47B
23FA:  MOVFF  01,47C
23FE:  RCALL  20FA
2400:  MOVF   01,W
2402:  SUBLW  04
2404:  BNC   2408
.................... 		reset_rtc(); 
2406:  BRA    2118
.................... 	} 
....................  
....................  
.................... 	/* one periodic interrupt @ 100uS. Generated from system 8 MHz clock */ 
.................... 	/* prescale=4, match=49, postscale=1. Match is 49 because when match occurs, one cycle is lost */ 
.................... 	setup_timer_2(T2_DIV_BY_4,49,1);  
2408:  MOVLW  00
240A:  IORLW  05
240C:  MOVWF  FCA
240E:  MOVLW  31
2410:  MOVWF  FCB
....................  
....................  
.................... 	/* setup timer 3 to be a 10ms timer. It only runs while we are booting */ 
.................... 	setup_timer_3(T3_INTERNAL | T3_DIV_BY_1 ); /* preload to 45536 to get 10.0 milliseconds */ 
2412:  MOVLW  85
2414:  MOVWF  FB1
....................  
.................... 	/* receive data from serial ports */ 
.................... 	enable_interrupts(INT_RDA); 
2416:  BSF    F9D.5
.................... 	enable_interrupts(INT_RDA2); 
2418:  BSF    FA3.5
....................  
.................... 	port_b_pullups(TRUE); 
241A:  BCF    FF1.7
.................... 	enable_interrupts(GLOBAL); 
241C:  MOVLW  C0
241E:  IORWF  FF2,F
.................... } 
2420:  GOTO   7884 (RETURN)
....................  
....................  
....................  
....................  
.................... void serialNumberCheck(void) { 
.................... 	/* 	middle button sets serial number */ 
.................... 	if ( 'R' != read_eeprom(EE_SERIAL_PREFIX) || read_eeprom(EE_HW_TYPE) > HARDWARE_TYPE_RDLOGGERUNIVERSAL || read_eeprom(EE_ANEMOMETER_TYPE) > ANEMOMETER_TYPE_THIES || read_eeprom(EE_LIVE_TYPE) > LIVE_TYPE_CMPS12 ) { 
*
3162:  MOVFF  FF2,45B
3166:  BCF    FF2.6
3168:  BCF    FF2.7
316A:  CLRF   FAA
316C:  MOVLW  10
316E:  MOVWF  FA9
3170:  BCF    FA6.6
3172:  BCF    FA6.7
3174:  BSF    FA6.0
3176:  MOVF   FA8,W
3178:  MOVLB  4
317A:  BTFSC  x5B.6
317C:  BSF    FF2.6
317E:  BTFSC  x5B.7
3180:  BSF    FF2.7
3182:  SUBLW  52
3184:  BNZ   31EC
3186:  MOVFF  FF2,45C
318A:  BCF    FF2.6
318C:  BCF    FF2.7
318E:  CLRF   FAA
3190:  MOVLW  13
3192:  MOVWF  FA9
3194:  BCF    FA6.6
3196:  BCF    FA6.7
3198:  BSF    FA6.0
319A:  MOVF   FA8,W
319C:  BTFSC  x5C.6
319E:  BSF    FF2.6
31A0:  BTFSC  x5C.7
31A2:  BSF    FF2.7
31A4:  SUBLW  02
31A6:  BNC   31EC
31A8:  MOVFF  FF2,45D
31AC:  BCF    FF2.6
31AE:  BCF    FF2.7
31B0:  CLRF   FAA
31B2:  MOVLW  14
31B4:  MOVWF  FA9
31B6:  BCF    FA6.6
31B8:  BCF    FA6.7
31BA:  BSF    FA6.0
31BC:  MOVF   FA8,W
31BE:  BTFSC  x5D.6
31C0:  BSF    FF2.6
31C2:  BTFSC  x5D.7
31C4:  BSF    FF2.7
31C6:  SUBLW  01
31C8:  BNC   31EC
31CA:  MOVFF  FF2,45E
31CE:  BCF    FF2.6
31D0:  BCF    FF2.7
31D2:  CLRF   FAA
31D4:  MOVLW  16
31D6:  MOVWF  FA9
31D8:  BCF    FA6.6
31DA:  BCF    FA6.7
31DC:  BSF    FA6.0
31DE:  MOVF   FA8,W
31E0:  BTFSC  x5E.6
31E2:  BSF    FF2.6
31E4:  BTFSC  x5E.7
31E6:  BSF    FF2.7
31E8:  SUBLW  02
31EA:  BC    31F8
.................... 		screen_set_serial(1); 
31EC:  MOVLW  01
31EE:  MOVWF  x5B
31F0:  MOVLB  0
31F2:  CALL   289C
.................... 	} else if ( 0==action.up_now && 1==action.select_now && 0==action.down_now ) { 
31F6:  BRA    3212
31F8:  MOVLB  1
31FA:  BTFSC  x80.2
31FC:  BRA    3214
31FE:  BTFSS  x80.4
3200:  BRA    3214
3202:  BTFSC  x80.3
3204:  BRA    3214
.................... 		action.select_now=0; 
3206:  BCF    x80.4
.................... 		screen_set_serial(0); 
3208:  MOVLB  4
320A:  CLRF   x5B
320C:  MOVLB  0
320E:  CALL   289C
3212:  MOVLB  1
.................... 	}  
.................... } 
3214:  MOVLB  0
3216:  GOTO   78B8 (RETURN)
....................  
.................... void startupCountdown() { 
*
34DA:  MOVLB  4
34DC:  CLRF   x5B
.................... 	int8 i=0; 
.................... 	int16 serial; 
....................  
.................... 	output_high(LED_LOGGING); 
34DE:  BCF    F93.2
34E0:  BSF    F8A.2
.................... 	output_high(LED_WIRELESS); 
34E2:  BCF    F93.3
34E4:  BSF    F8A.3
.................... 	output_high(LED_ANEMOMETER); 
34E6:  BCF    F95.7
34E8:  BSF    F8C.7
....................  
.................... 	wirelessOn(20); 
34EA:  MOVLW  14
34EC:  MOVWF  x5E
34EE:  MOVLB  0
34F0:  CALL   2424
....................  
.................... 	if ( HARDWARE_TYPE_RDLOGGER == current.hardware_type ) 
34F4:  MOVF   4D,F
34F6:  BNZ   3506
.................... 		printf(lcd_putch,"rdl(U)"); 
34F8:  MOVLW  74
34FA:  MOVWF  FF6
34FC:  MOVLW  1C
34FE:  MOVWF  FF7
3500:  CALL   2460
.................... 	else if ( HARDWARE_TYPE_RDLOGGERUNIVERSAL == current.hardware_type )  
3504:  BRA    3526
3506:  MOVF   4D,W
3508:  SUBLW  02
350A:  BNZ   351A
.................... 		printf(lcd_putch,"rdlUni"); 
350C:  MOVLW  7C
350E:  MOVWF  FF6
3510:  MOVLW  1C
3512:  MOVWF  FF7
3514:  CALL   2460
.................... 	else 
3518:  BRA    3526
.................... 		printf(lcd_putch,"unknown!");	 
351A:  MOVLW  84
351C:  MOVWF  FF6
351E:  MOVLW  1C
3520:  MOVWF  FF7
3522:  CALL   2460
....................  
.................... 	if ( ANEMOMETER_TYPE_40HC == current.anemometer_type ) { 
3526:  MOVF   4E,F
3528:  BNZ   3538
.................... 		printf(lcd_putch," #40HC"); 
352A:  MOVLW  8E
352C:  MOVWF  FF6
352E:  MOVLW  1C
3530:  MOVWF  FF7
3532:  CALL   2460
.................... 	} else if ( ANEMOMETER_TYPE_THIES == current.anemometer_type ) { 
3536:  BRA    3556
3538:  DECFSZ 4E,W
353A:  BRA    354A
.................... 		printf(lcd_putch," THIES"); 
353C:  MOVLW  96
353E:  MOVWF  FF6
3540:  MOVLW  1C
3542:  MOVWF  FF7
3544:  CALL   2460
.................... 	} else { 
3548:  BRA    3556
.................... 		printf(lcd_putch," UNKNOWN"); 
354A:  MOVLW  9E
354C:  MOVWF  FF6
354E:  MOVLW  1C
3550:  MOVWF  FF7
3552:  CALL   2460
.................... 	} 
....................  
.................... 	serial=make16(read_eeprom(EE_SERIAL_MSB),read_eeprom(EE_SERIAL_LSB)); 
3556:  MOVFF  FF2,45E
355A:  BCF    FF2.6
355C:  BCF    FF2.7
355E:  CLRF   FAA
3560:  MOVLW  11
3562:  MOVWF  FA9
3564:  BCF    FA6.6
3566:  BCF    FA6.7
3568:  BSF    FA6.0
356A:  MOVF   FA8,W
356C:  MOVLB  4
356E:  BTFSC  x5E.6
3570:  BSF    FF2.6
3572:  BTFSC  x5E.7
3574:  BSF    FF2.7
3576:  MOVWF  x5F
3578:  MOVFF  FF2,460
357C:  BCF    FF2.6
357E:  BCF    FF2.7
3580:  CLRF   FAA
3582:  MOVLW  12
3584:  MOVWF  FA9
3586:  BCF    FA6.6
3588:  BCF    FA6.7
358A:  BSF    FA6.0
358C:  MOVF   FA8,W
358E:  BTFSC  x60.6
3590:  BSF    FF2.6
3592:  BTFSC  x60.7
3594:  BSF    FF2.7
3596:  MOVWF  x61
3598:  MOVFF  45F,45D
359C:  MOVFF  461,45C
....................  
.................... 	for ( i=10 ; i>0 ; i-- ) { 
35A0:  MOVLW  0A
35A2:  MOVWF  x5B
35A4:  MOVF   x5B,F
35A6:  BZ    367A
.................... 		lcd_goto(LCD_LINE_TWO); 
35A8:  MOVLW  40
35AA:  MOVWF  x6D
35AC:  MOVLB  0
35AE:  CALL   2586
.................... 		printf(lcd_putch,"Up in %u ID=%c%lu ",i,read_eeprom(EE_SERIAL_PREFIX),serial); 
35B2:  MOVFF  FF2,45E
35B6:  BCF    FF2.6
35B8:  BCF    FF2.7
35BA:  CLRF   FAA
35BC:  MOVLW  10
35BE:  MOVWF  FA9
35C0:  BCF    FA6.6
35C2:  BCF    FA6.7
35C4:  BSF    FA6.0
35C6:  MOVF   FA8,W
35C8:  MOVLB  4
35CA:  BTFSC  x5E.6
35CC:  BSF    FF2.6
35CE:  BTFSC  x5E.7
35D0:  BSF    FF2.7
35D2:  MOVWF  x5F
35D4:  MOVLW  A8
35D6:  MOVWF  FF6
35D8:  MOVLW  1C
35DA:  MOVWF  FF7
35DC:  MOVLW  06
35DE:  MOVWF  x66
35E0:  MOVLB  0
35E2:  CALL   2480
35E6:  MOVFF  45B,461
35EA:  MOVLW  1B
35EC:  MOVLB  4
35EE:  MOVWF  x62
35F0:  MOVLB  0
35F2:  RCALL  321A
35F4:  MOVLW  B0
35F6:  MOVWF  FF6
35F8:  MOVLW  1C
35FA:  MOVWF  FF7
35FC:  MOVLW  04
35FE:  MOVLB  4
3600:  MOVWF  x66
3602:  MOVLB  0
3604:  CALL   2480
3608:  MOVFF  45F,46F
360C:  CALL   2454
3610:  MOVLW  10
3612:  MOVWF  FE9
3614:  MOVFF  45D,461
3618:  MOVFF  45C,460
361C:  RCALL  32A0
361E:  MOVLW  20
3620:  MOVLB  4
3622:  MOVWF  x6F
3624:  MOVLB  0
3626:  CALL   2454
.................... 		fprintf(stream_wireless,"# UP IN %u SECONDS\r\n",i); 
362A:  MOVLW  BC
362C:  MOVWF  FF6
362E:  MOVLW  1C
3630:  MOVWF  FF7
3632:  MOVLW  08
3634:  MOVLB  4
3636:  MOVWF  x60
3638:  MOVLB  0
363A:  RCALL  335E
363C:  MOVFF  45B,460
3640:  MOVLW  1B
3642:  MOVLB  4
3644:  MOVWF  x61
3646:  MOVLB  0
3648:  RCALL  3388
364A:  MOVLW  C6
364C:  MOVWF  FF6
364E:  MOVLW  1C
3650:  MOVWF  FF7
3652:  MOVLW  0A
3654:  MOVLB  4
3656:  MOVWF  x60
3658:  MOVLB  0
365A:  RCALL  335E
.................... 		delay_ms(1000); 
365C:  MOVLW  04
365E:  MOVLB  4
3660:  MOVWF  x5E
3662:  MOVLW  FA
3664:  MOVLB  5
3666:  MOVWF  xA6
3668:  MOVLB  0
366A:  CALL   1E58
366E:  MOVLB  4
3670:  DECFSZ x5E,F
3672:  BRA    3662
.................... 		restart_wdt(); 
3674:  CLRWDT
.................... 	} 
3676:  DECF   x5B,F
3678:  BRA    35A4
.................... 	 
....................  
.................... 	fprintf(stream_wireless,"# rdLoggerUniversal %s (20%02u-%02u-%02u) (serial %c%lu) (hardware %u) (anemometer %u)\r\n", 
.................... 		__DATE__, 
.................... 		current.compile_year, 
.................... 		current.compile_month, 
.................... 		current.compile_day, 
.................... 		read_eeprom(EE_SERIAL_PREFIX), 
.................... 		serial, 
.................... 		current.hardware_type, 
.................... 		current.anemometer_type 
.................... 	); 
367A:  MOVFF  FF2,45E
367E:  BCF    FF2.6
3680:  BCF    FF2.7
3682:  CLRF   FAA
3684:  MOVLW  10
3686:  MOVWF  FA9
3688:  BCF    FA6.6
368A:  BCF    FA6.7
368C:  BSF    FA6.0
368E:  MOVF   FA8,W
3690:  BTFSC  x5E.6
3692:  BSF    FF2.6
3694:  BTFSC  x5E.7
3696:  BSF    FF2.7
3698:  MOVWF  x5F
369A:  MOVLW  D2
369C:  MOVWF  FF6
369E:  MOVLW  1C
36A0:  MOVWF  FF7
36A2:  MOVLW  14
36A4:  MOVWF  x60
36A6:  MOVLB  0
36A8:  RCALL  335E
36AA:  MOVLW  2C
36AC:  MOVWF  FF6
36AE:  MOVLW  1D
36B0:  MOVWF  FF7
36B2:  RCALL  340C
36B4:  MOVLW  E8
36B6:  MOVWF  FF6
36B8:  MOVLW  1C
36BA:  MOVWF  FF7
36BC:  MOVLW  04
36BE:  MOVLB  4
36C0:  MOVWF  x60
36C2:  MOVLB  0
36C4:  RCALL  335E
36C6:  MOVFF  48,460
36CA:  MOVLW  01
36CC:  MOVLB  4
36CE:  MOVWF  x61
36D0:  MOVLB  0
36D2:  RCALL  3388
36D4:  MOVLW  2D
36D6:  BTFSS  F9E.4
36D8:  BRA    36D6
36DA:  MOVWF  FAD
36DC:  MOVFF  49,460
36E0:  MOVLW  01
36E2:  MOVLB  4
36E4:  MOVWF  x61
36E6:  MOVLB  0
36E8:  RCALL  3388
36EA:  MOVLW  2D
36EC:  BTFSS  F9E.4
36EE:  BRA    36EC
36F0:  MOVWF  FAD
36F2:  MOVFF  4A,460
36F6:  MOVLW  01
36F8:  MOVLB  4
36FA:  MOVWF  x61
36FC:  MOVLB  0
36FE:  RCALL  3388
3700:  MOVLW  FA
3702:  MOVWF  FF6
3704:  MOVLW  1C
3706:  MOVWF  FF7
3708:  MOVLW  0A
370A:  MOVLB  4
370C:  MOVWF  x60
370E:  MOVLB  0
3710:  RCALL  335E
3712:  MOVLB  4
3714:  MOVF   x5F,W
3716:  BTFSS  F9E.4
3718:  BRA    3716
371A:  MOVWF  FAD
371C:  MOVLW  10
371E:  MOVWF  FE9
3720:  MOVFF  45D,461
3724:  MOVFF  45C,460
3728:  MOVLB  0
372A:  BRA    342E
372C:  MOVLW  09
372E:  MOVWF  FF6
3730:  MOVLW  1D
3732:  MOVWF  FF7
3734:  MOVLW  0C
3736:  MOVLB  4
3738:  MOVWF  x60
373A:  MOVLB  0
373C:  RCALL  335E
373E:  MOVFF  4D,460
3742:  MOVLW  1B
3744:  MOVLB  4
3746:  MOVWF  x61
3748:  MOVLB  0
374A:  RCALL  3388
374C:  MOVLW  17
374E:  MOVWF  FF6
3750:  MOVLW  1D
3752:  MOVWF  FF7
3754:  MOVLW  0E
3756:  MOVLB  4
3758:  MOVWF  x60
375A:  MOVLB  0
375C:  RCALL  335E
375E:  MOVFF  4E,460
3762:  MOVLW  1B
3764:  MOVLB  4
3766:  MOVWF  x61
3768:  MOVLB  0
376A:  RCALL  3388
376C:  MOVLW  27
376E:  MOVWF  FF6
3770:  MOVLW  1D
3772:  MOVWF  FF7
3774:  MOVLW  03
3776:  MOVLB  4
3778:  MOVWF  x60
377A:  MOVLB  0
377C:  RCALL  335E
.................... } 
377E:  GOTO   78BC (RETURN)
....................  
.................... void task_second(void) { 
.................... 	static int8 last_minute=100; 
....................  
.................... 	update_time_rtc(); 
*
4000:  BRA    3A12
....................  
.................... 	/* control backlight */ 
.................... 	if (  0 == timers.backlight_seconds ) { 
4002:  MOVLB  1
4004:  MOVF   x88,F
4006:  BNZ   400E
.................... 		/* auto, and we have finished counting down */ 
.................... 		output_high(LCD_BACKLIGHT); 
4008:  BCF    F97.0
400A:  BSF    F8E.0
.................... 	} else { 
400C:  BRA    4014
.................... 		output_low(LCD_BACKLIGHT); 
400E:  BCF    F97.0
4010:  BCF    F8E.0
.................... 		timers.backlight_seconds--; 
4012:  DECF   x88,F
.................... 	} 
....................  
.................... 	/* turn modem on if we got anything */ 
.................... 	if (  0 == timers.modem_seconds ) { 
4014:  MOVF   x89,F
4016:  BNZ   4020
.................... 		/* auto, and we have finished counting down */ 
.................... 		wirelessOff(); 
4018:  MOVLB  0
401A:  BRA    3AC4
.................... 	} else { 
401C:  BRA    402E
401E:  MOVLB  1
.................... 		wirelessOn(0); 
4020:  MOVLB  4
4022:  CLRF   x5E
4024:  MOVLB  0
4026:  CALL   2424
.................... 		timers.modem_seconds--; 
402A:  MOVLB  1
402C:  DECF   x89,F
.................... 	} 
....................  
.................... 	if ( 0 == timers.live_seconds ) { 
402E:  MOVLB  1
4030:  MOVF   x8A,F
4032:  BNZ   403C
.................... 		action.now_live=1; 
4034:  BSF    x7F.4
.................... 		timers.live_seconds=9; 
4036:  MOVLW  09
4038:  MOVWF  x8A
.................... 	} else { 
403A:  BRA    403E
.................... 		timers.live_seconds--; 
403C:  DECF   x8A,F
.................... 	} 
....................  
.................... 	/* check to see if we are on a new minute */ 
.................... 	if ( timers.minute != last_minute ) { 
403E:  MOVLB  4
4040:  MOVF   x54,W
4042:  MOVLB  1
4044:  SUBWF  x83,W
4046:  BZ    408A
.................... 		action.now_log=1; 
4048:  BSF    x7F.1
.................... 		last_minute=timers.minute; 
404A:  MOVFF  183,454
....................  
....................  
.................... 		if ( current.uptime<65535 ) 
404E:  INCFSZ 4B,W
4050:  BRA    4058
4052:  INCFSZ 4C,W
4054:  BRA    4058
4056:  BRA    405E
.................... 			current.uptime++; 
4058:  INCF   4B,F
405A:  BTFSC  FD8.2
405C:  INCF   4C,F
....................  
.................... 		/* GPS starts at 30 minutes after hour, aborts at 45 minutes */ 
.................... 		if ( 30==timers.minute ) 
405E:  MOVF   x83,W
4060:  SUBLW  1E
4062:  BNZ   4068
.................... 			action.now_gps_update=1; 
4064:  BSF    x80.0
.................... 		else if ( 45 == timers.minute )  
4066:  BRA    4070
4068:  MOVF   x83,W
406A:  SUBLW  2D
406C:  BNZ   4070
.................... 			action.now_gps_update=0; 
406E:  BCF    x80.0
....................  
.................... 		/* send status */ 
.................... 		if ( 5==timers.minute || 20==timers.minute || 35==timers.minute || 50==timers.minute ) { 
4070:  MOVF   x83,W
4072:  SUBLW  05
4074:  BZ    4088
4076:  MOVF   x83,W
4078:  SUBLW  14
407A:  BZ    4088
407C:  MOVF   x83,W
407E:  SUBLW  23
4080:  BZ    4088
4082:  MOVF   x83,W
4084:  SUBLW  32
4086:  BNZ   408A
.................... 			action.now_live_status=1; 
4088:  BSF    x7F.5
.................... 		} 
.................... 	} 
....................  
.................... 	/* status LEDs on rdLoggerUniversalXTC */ 
.................... 	/* Logging LED shows if SD card is LOGGING */ 
.................... 	if ( ! input(MMC_STATUS_TO_HOST) ) { 
408A:  BSF    F96.1
408C:  BTFSC  F84.1
408E:  BRA    4096
.................... 		output_high(LED_LOGGING); 
4090:  BCF    F93.2
4092:  BSF    F8A.2
.................... 	} else { 
4094:  BRA    409A
.................... 		output_low(LED_LOGGING); 
4096:  BCF    F93.2
4098:  BCF    F8A.2
.................... 	} 
....................  
.................... 	/* Anemometer LED shows if pulse count is > 0 */ 
.................... 	if ( current.pulse_count_live > 0 ) { 
409A:  MOVF   3B,F
409C:  BNZ   40A2
409E:  MOVF   3C,F
40A0:  BZ    40A8
.................... 		output_high(LED_ANEMOMETER); 
40A2:  BCF    F95.7
40A4:  BSF    F8C.7
.................... 	} else { 
40A6:  BRA    40AC
.................... 		output_low(LED_ANEMOMETER); 
40A8:  BCF    F95.7
40AA:  BCF    F8C.7
.................... 	} 
....................  
.................... 	/* query the CMPS12 module once per second */ 
.................... 	if ( WIND_DIRECTION_SOURCE_CMPS12 == current.wind_direction_source ) { 
40AC:  DECFSZ 51,W
40AE:  BRA    40B8
.................... 		/* read registers from CMPS12 */ 
.................... 		cmps12_read_registers(); 
40B0:  MOVLB  0
40B2:  BRA    3ACC
.................... 		/* translate to wind direction values */ 
.................... 		cmps12_update_current(); 
40B4:  BRA    3E96
40B6:  MOVLB  1
.................... 	} 
....................  
....................  
.................... } 
40B8:  MOVLB  0
40BA:  GOTO   7966 (RETURN)
....................  
....................  
.................... void task_10millisecond(void) { 
.................... 	static int16 b0_state=0; 
.................... 	static int16 b1_state=0; 
.................... 	static int16 b2_state=0; 
.................... 	int8 b; 
....................  
....................  
.................... 	b=port_b;	 
*
38EE:  MOVFF  F81,45B
....................  
.................... 	/* check to see if we got a falling edge from the RTC square wave */ 
.................... 	if ( ! bit_test(b,4) && bit_test(action.port_b,4)	) { 
38F2:  MOVLB  4
38F4:  BTFSC  x5B.4
38F6:  BRA    3906
38F8:  MOVLB  1
38FA:  BTFSC  x81.4
38FC:  BRA    3902
38FE:  MOVLB  4
3900:  BRA    3906
.................... 		action.now_second=1; 
3902:  BSF    x7F.7
3904:  MOVLB  4
.................... 	} 
....................  
.................... 	/* draw screen on rising edge of RTC square wave */ 
.................... 	if ( bit_test(b,4) && ! bit_test(action.port_b,4)	) { 
3906:  BTFSS  x5B.4
3908:  BRA    3918
390A:  MOVLB  1
390C:  BTFSS  x81.4
390E:  BRA    3914
3910:  MOVLB  4
3912:  BRA    3918
.................... 		action.now_redraw=1; 
3914:  BSF    x7F.0
3916:  MOVLB  4
.................... 	} 
....................  
.................... 	action.port_b=b; 
3918:  MOVFF  45B,181
....................  
.................... 	/* update timers / counters */ 
.................... 	if ( wireless.age < 65535 )  
391C:  MOVLB  0
391E:  INCFSZ xF9,W
3920:  BRA    3928
3922:  INCFSZ xFA,W
3924:  BRA    3928
3926:  BRA    392E
.................... 		wireless.age++; 
3928:  INCF   xF9,F
392A:  BTFSC  FD8.2
392C:  INCF   xFA,F
.................... 	if ( wireless.age_response < 65535 )  
392E:  INCFSZ xFB,W
3930:  BRA    3938
3932:  INCFSZ xFC,W
3934:  BRA    3938
3936:  BRA    393E
.................... 		wireless.age_response++; 
3938:  INCF   xFB,F
393A:  BTFSC  FD8.2
393C:  INCF   xFC,F
....................  
.................... 	/* set flags if we have a message ready */ 
.................... 	if ( wireless.buff_length && wireless.age > 5 && wireless.age < 65535 )  
393E:  MOVF   xF7,W
3940:  IORWF  xF8,W
3942:  BZ    395A
3944:  MOVF   xFA,F
3946:  BNZ   394E
3948:  MOVF   xF9,W
394A:  SUBLW  05
394C:  BC    395A
394E:  INCFSZ xF9,W
3950:  BRA    3958
3952:  INCFSZ xFA,W
3954:  BRA    3958
3956:  BRA    395A
.................... 		wireless.now_generate_message=1; 
3958:  BSF    x76.0
....................  
.................... 	/* button must be down for 12 milliseconds */ 
.................... 	b0_state=(b0_state<<1) | !bit_test(action.port_b,BUTTON_0_BIT) | 0xe000; 
395A:  BCF    FD8.0
395C:  MOVLB  4
395E:  RLCF   x55,W
3960:  MOVWF  x5C
3962:  RLCF   x56,W
3964:  MOVWF  x5D
3966:  MOVLW  00
3968:  MOVLB  1
396A:  BTFSS  x81.5
396C:  MOVLW  01
396E:  MOVLB  4
3970:  IORWF  x5C,F
3972:  MOVFF  45C,455
3976:  MOVF   x5D,W
3978:  IORLW  E0
397A:  MOVWF  x56
.................... 	if ( b0_state==0xf000) { 
397C:  MOVF   x55,F
397E:  BNZ   3992
3980:  MOVF   x56,W
3982:  SUBLW  F0
3984:  BNZ   3992
.................... 		action.down_now=1; 
3986:  MOVLB  1
3988:  BSF    x80.3
.................... 		action.now_redraw=1; 
398A:  BSF    x7F.0
.................... 		timers.backlight_seconds=BACKLIGHT_TIMEOUT_SECONDS; 
398C:  MOVLW  1E
398E:  MOVWF  x88
3990:  MOVLB  4
.................... 	} 
.................... 	b1_state=(b1_state<<1) | !bit_test(action.port_b,BUTTON_1_BIT) | 0xe000; 
3992:  BCF    FD8.0
3994:  RLCF   x57,W
3996:  MOVWF  x5C
3998:  RLCF   x58,W
399A:  MOVWF  x5D
399C:  MOVLW  00
399E:  MOVLB  1
39A0:  BTFSS  x81.6
39A2:  MOVLW  01
39A4:  MOVLB  4
39A6:  IORWF  x5C,F
39A8:  MOVFF  45C,457
39AC:  MOVF   x5D,W
39AE:  IORLW  E0
39B0:  MOVWF  x58
.................... 	if ( b1_state==0xf000) { 
39B2:  MOVF   x57,F
39B4:  BNZ   39C8
39B6:  MOVF   x58,W
39B8:  SUBLW  F0
39BA:  BNZ   39C8
.................... 		action.select_now=1;	 
39BC:  MOVLB  1
39BE:  BSF    x80.4
.................... 		action.now_redraw=1; 
39C0:  BSF    x7F.0
.................... 		timers.backlight_seconds=BACKLIGHT_TIMEOUT_SECONDS; 
39C2:  MOVLW  1E
39C4:  MOVWF  x88
39C6:  MOVLB  4
.................... 	} 
....................  
.................... 	b2_state=(b2_state<<1) | !bit_test(action.port_b,BUTTON_2_BIT) | 0xe000; 
39C8:  BCF    FD8.0
39CA:  RLCF   x59,W
39CC:  MOVWF  x5C
39CE:  RLCF   x5A,W
39D0:  MOVWF  x5D
39D2:  MOVLW  00
39D4:  MOVLB  1
39D6:  BTFSS  x81.7
39D8:  MOVLW  01
39DA:  MOVLB  4
39DC:  IORWF  x5C,F
39DE:  MOVFF  45C,459
39E2:  MOVF   x5D,W
39E4:  IORLW  E0
39E6:  MOVWF  x5A
.................... 	if ( b2_state==0xf000) { 
39E8:  MOVF   x59,F
39EA:  BNZ   39FC
39EC:  MOVF   x5A,W
39EE:  SUBLW  F0
39F0:  BNZ   39FC
.................... 		action.up_now=1; 
39F2:  MOVLB  1
39F4:  BSF    x80.2
.................... 		action.now_redraw=1; 
39F6:  BSF    x7F.0
.................... 		timers.backlight_seconds=BACKLIGHT_TIMEOUT_SECONDS; 
39F8:  MOVLW  1E
39FA:  MOVWF  x88
.................... 	} 
....................  
.................... 	/* Wireless LED shows if Wireless modem is ON */ 
.................... 	if ( 0 != timers.modem_seconds ) { 
39FC:  MOVLB  1
39FE:  MOVF   x89,F
3A00:  BZ    3A08
.................... 		output_high(LED_WIRELESS); 
3A02:  BCF    F93.3
3A04:  BSF    F8A.3
.................... 	} else { 
3A06:  BRA    3A0C
.................... 		output_low(LED_WIRELESS); 
3A08:  BCF    F93.3
3A0A:  BCF    F8A.3
.................... 	} 
....................  
.................... } 
3A0C:  MOVLB  0
3A0E:  GOTO   7958 (RETURN)
....................  
....................  
.................... void main(void) { 
*
7788:  CLRF   FF8
778A:  BSF    F9F.1
778C:  BCF    FA2.1
778E:  BCF    F9F.5
7790:  BCF    FA5.5
7792:  BSF    FD0.7
7794:  BSF    07.7
7796:  CLRF   FEA
7798:  CLRF   FE9
779A:  MOVLW  70
779C:  MOVWF  FD3
779E:  MOVF   FD3,W
77A0:  CLRF   34
77A2:  BSF    F7E.3
77A4:  MOVLW  22
77A6:  MOVWF  FAF
77A8:  MOVLW  00
77AA:  MOVWF  F7F
77AC:  MOVLW  A6
77AE:  MOVWF  FAC
77B0:  MOVLW  90
77B2:  MOVWF  FAB
77B4:  BCF    F7C.3
77B6:  MOVLW  0C
77B8:  MOVWF  F6F
77BA:  MOVLW  A2
77BC:  MOVWF  F6C
77BE:  MOVLW  90
77C0:  MOVWF  F6B
77C2:  MOVLB  4
77C4:  CLRF   x0F
77C6:  CLRF   x0E
77C8:  CLRF   x11
77CA:  CLRF   x10
77CC:  CLRF   x13
77CE:  CLRF   x12
77D0:  CLRF   x14
77D2:  CLRF   x16
77D4:  CLRF   x15
77D6:  BCF    x17.0
77D8:  BCF    x17.1
77DA:  CLRF   x19
77DC:  CLRF   x18
77DE:  CLRF   x1A
77E0:  CLRF   x29
77E2:  CLRF   x2A
77E4:  CLRF   x4B
77E6:  CLRF   x4C
77E8:  BCF    x17.2
77EA:  CLRF   x4D
77EC:  BCF    x17.3
77EE:  CLRF   x4E
77F0:  BCF    x17.4
77F2:  BCF    x17.5
77F4:  BCF    x17.6
77F6:  CLRF   x50
77F8:  CLRF   x51
77FA:  CLRF   x52
77FC:  BCF    x17.7
77FE:  BCF    x53.0
7800:  MOVLW  64
7802:  MOVWF  x54
7804:  CLRF   x56
7806:  CLRF   x55
7808:  CLRF   x58
780A:  CLRF   x57
780C:  CLRF   x5A
780E:  CLRF   x59
7810:  MOVF   FC1,W
7812:  ANDLW  C0
7814:  IORLW  0F
7816:  MOVWF  FC1
7818:  MOVLW  07
781A:  MOVWF  FB4
781C:  CLRF   2E
781E:  CLRF   2F
7820:  CLRF   x1B
7822:  CLRF   x1C
7824:  CLRF   x1D
7826:  CLRF   x1E
7828:  CLRF   x1F
782A:  CLRF   x20
782C:  CLRF   x21
782E:  CLRF   x22
7830:  CLRF   x23
7832:  CLRF   x24
7834:  CLRF   x25
7836:  CLRF   x26
7838:  CLRF   x27
783A:  CLRF   x28
783C:  CLRF   x2B
783E:  CLRF   x2C
7840:  CLRF   x2D
7842:  CLRF   x2E
7844:  CLRF   x2F
7846:  CLRF   x30
7848:  CLRF   x31
784A:  CLRF   x32
784C:  CLRF   x33
784E:  CLRF   x34
7850:  CLRF   x35
7852:  CLRF   x36
7854:  CLRF   x37
7856:  CLRF   x38
7858:  CLRF   x39
785A:  CLRF   x3A
785C:  CLRF   x3B
785E:  CLRF   x3C
7860:  CLRF   x3D
7862:  CLRF   x3E
7864:  CLRF   x3F
7866:  CLRF   x40
7868:  CLRF   x41
786A:  CLRF   x42
786C:  CLRF   x43
786E:  CLRF   x44
7870:  CLRF   x45
7872:  CLRF   x46
7874:  CLRF   x47
7876:  CLRF   x48
7878:  CLRF   x49
787A:  CLRF   x4A
787C:  CLRF   x4F
.................... 	basicInit(); 
787E:  MOVLB  0
7880:  GOTO   2168
.................... 	enable_interrupts(INT_TIMER3); 
7884:  BSF    FA0.1
.................... 	output_low(LCD_BACKLIGHT); 
7886:  BCF    F97.0
7888:  BCF    F8E.0
....................  
.................... 	wirelessOn(30); 
788A:  MOVLW  1E
788C:  MOVLB  4
788E:  MOVWF  x5E
7890:  MOVLB  0
7892:  CALL   2424
....................  
.................... 	delay_ms(500); 
7896:  MOVLW  02
7898:  MOVLB  4
789A:  MOVWF  x5B
789C:  MOVLW  FA
789E:  MOVLB  5
78A0:  MOVWF  xA6
78A2:  MOVLB  0
78A4:  CALL   1E58
78A8:  MOVLB  4
78AA:  DECFSZ x5B,F
78AC:  BRA    789C
....................  
.................... 	/* start the modem booting */ 
.................... 	lcd_clear(); 
78AE:  MOVLB  0
78B0:  CALL   243A
.................... 	serialNumberCheck(); 
78B4:  GOTO   3162
....................  
.................... 	startupCountdown(); 
78B8:  GOTO   34DA
....................  
.................... 	/* hold down all three buttons to reset the log */ 
.................... 	if ( 0==bit_test(action.port_b,BUTTON_0_BIT) && 0==bit_test(action.port_b,BUTTON_1_BIT) && 0==bit_test(action.port_b,BUTTON_1_BIT) ) { 
78BC:  MOVLB  1
78BE:  BTFSC  x81.5
78C0:  BRA    792C
78C2:  BTFSC  x81.6
78C4:  BRA    792C
78C6:  BTFSC  x81.6
78C8:  BRA    792C
.................... 		action.up_now=0; 
78CA:  BCF    x80.2
.................... 		action.down_now=0; 
78CC:  BCF    x80.3
.................... 		action.select_now=0; 
78CE:  BCF    x80.4
.................... 		lcd_clear(); 
78D0:  MOVLB  0
78D2:  CALL   243A
.................... 		lcd_putch("Press middle"); 
78D6:  MOVLW  36
78D8:  MOVWF  FF6
78DA:  MOVLW  1D
78DC:  MOVWF  FF7
78DE:  CALL   2460
.................... 		lcd_goto(LCD_LINE_TWO); 
78E2:  MOVLW  40
78E4:  MOVLB  4
78E6:  MOVWF  x6D
78E8:  MOVLB  0
78EA:  CALL   2586
.................... 		lcd_putch("button to clear"); 
78EE:  MOVLW  44
78F0:  MOVWF  FF6
78F2:  MOVLW  1D
78F4:  MOVWF  FF7
78F6:  CALL   2460
.................... 		delay_ms(1000); 
78FA:  MOVLW  04
78FC:  MOVLB  4
78FE:  MOVWF  x5B
7900:  MOVLW  FA
7902:  MOVLB  5
7904:  MOVWF  xA6
7906:  MOVLB  0
7908:  CALL   1E58
790C:  MOVLB  4
790E:  DECFSZ x5B,F
7910:  BRA    7900
....................  
.................... 		action.select_now=0; 
7912:  MOVLB  1
7914:  BCF    x80.4
.................... 		action.up_now=0; 
7916:  BCF    x80.2
.................... 		action.down_now=0; 
7918:  BCF    x80.3
.................... 		for ( ; ; ) { 
.................... 			if ( action.select_now ) { 
791A:  BTFSS  x80.4
791C:  BRA    792A
.................... 				action.select_now=0; 
791E:  BCF    x80.4
.................... 				log_init(); 
7920:  MOVLB  0
7922:  CALL   37E6
.................... 				break; 
7926:  BRA    792E
7928:  MOVLB  1
.................... 			} 
.................... 			/* let watchdog reset us if we don't press select */ 
.................... 		} 
792A:  BRA    791A
792C:  MOVLB  0
.................... 	} 
....................  
.................... 	timers.live_seconds=10;	 
792E:  MOVLW  0A
7930:  MOVLB  1
7932:  MOVWF  x8A
....................  
.................... 	delay_ms(100); 
7934:  MOVLW  64
7936:  MOVLB  5
7938:  MOVWF  xA6
793A:  MOVLB  0
793C:  CALL   1E58
....................  
.................... 	/* stop 10mS boot up timer */ 
.................... 	disable_interrupts(INT_TIMER3); 
7940:  BCF    FA0.1
.................... 	output_high(LCD_BACKLIGHT); 
7942:  BCF    F97.0
7944:  BSF    F8E.0
....................  
....................  
.................... 	/* start 100uS timer */ 
.................... 	enable_interrupts(INT_TIMER2); 
7946:  BSF    F9D.1
....................  
.................... 	 
.................... 	/* main loop */ 
.................... 	for ( ; ; ) { 
.................... 		restart_wdt(); 
7948:  CLRWDT
....................  
.................... 		if  ( action.now_10millisecond ) { 
794A:  MOVLB  1
794C:  BTFSS  x7F.6
794E:  BRA    795A
.................... 			action.now_10millisecond=0; 
7950:  BCF    x7F.6
.................... 			task_10millisecond(); 
7952:  MOVLB  0
7954:  GOTO   38EE
7958:  MOVLB  1
.................... 		} 
....................  
.................... 		if ( action.now_second ) { 
795A:  BTFSS  x7F.7
795C:  BRA    7966
.................... 			action.now_second=0; 
795E:  BCF    x7F.7
.................... 			task_second(); 
7960:  MOVLB  0
7962:  GOTO   4000
.................... 		} 
....................  
.................... 		/* wireless 802.15.4 related stuff */ 
.................... 		if ( wireless.now_generate_message ) { 
7966:  MOVLB  0
7968:  BTFSS  x76.0
796A:  BRA    7972
.................... 			wirelessMessageFromBuff(); 
796C:  GOTO   40BE
.................... 			wireless.now_generate_message=0; 
7970:  BCF    x76.0
.................... 		} 
....................  
.................... 		wirelessTick(); 
7972:  GOTO   418E
....................  
....................  
.................... 		/* send a live packet */ 
.................... 		if ( action.now_live ) { 
7976:  MOVLB  1
7978:  BTFSS  x7F.4
797A:  BRA    7984
.................... 			liveTask(); 
797C:  MOVLB  0
797E:  GOTO   51C0
7982:  MOVLB  1
.................... 		} 
....................  
.................... 		/* status packet */ 
.................... 		if ( action.now_live_status ) { 
7984:  BTFSS  x7F.5
7986:  BRA    798E
.................... 			liveStatusTask(); 
7988:  MOVLB  0
798A:  GOTO   5448
.................... 		} 
....................  
....................  
.................... 		/* handle sending requested log pages */ 
.................... 		logSendTick(); 
798E:  MOVLB  0
7990:  GOTO   568A
....................  
....................  
.................... 		if ( action.now_redraw ) { 
7994:  MOVLB  1
7996:  BTFSS  x7F.0
7998:  BRA    79A2
.................... 			action.now_redraw=0; 
799A:  BCF    x7F.0
.................... 			screen_select(); 
799C:  MOVLB  0
799E:  BRA    71BC
79A0:  MOVLB  1
.................... 		} 
....................  
.................... 		if ( action.now_log ) { 
79A2:  BTFSS  x7F.1
79A4:  BRA    79AE
.................... 			action.now_log=0; 
79A6:  BCF    x7F.1
.................... 			log_now(); 
79A8:  MOVLB  0
79AA:  BRA    74E8
79AC:  MOVLB  1
.................... 		} 
....................  
.................... 		if ( action.now_log_init ) { 
79AE:  BTFSS  x7F.2
79B0:  BRA    79BC
.................... 			action.now_log_init=0; 
79B2:  BCF    x7F.2
.................... 			log_init(); 
79B4:  MOVLB  0
79B6:  CALL   37E6
79BA:  MOVLB  1
.................... 		} 
....................  
.................... 	} 
79BC:  MOVLB  0
79BE:  BRA    7948
.................... } 
....................  
....................  
79C0:  BRA    79C0

Configuration Fuses:
   Word  1: C800   INTRC_IO FCMEN IESO
   Word  2: 1A19   NOPUT NOBROWNOUT BORV21 NOWDT WDT8192
   Word  3: 0503   CCP2C1 LPT1OSC NOMCLR
   Word  4: 0030   NOSTVREN NOLVP NOXINST DEBUG
   Word  5: C0FF   NOPROTECT NOCPB NOCPD
   Word  6: E0FF   NOWRT NOWRTC NOWRTB NOWRTD
   Word  7: 40FF   NOEBTR NOEBTRB

   Some fuses have been forced to be compatible with the ICD debugger.
